((dp0
S'children'
p1
(lp2
(dp3
g1
(lp4
(dp5
g1
(lp6
(dp7
g1
(lp8
(dp9
S'id'
p10
I0
sS'name'
p11
S'Eastern_Orthodox_Church'
p12
sa(dp13
g10
I4
sg11
S'Finland'
p14
sa(dp15
g10
I16
sg11
S'Greece'
p16
sa(dp17
g10
I26
sg11
S'Hungary'
p18
sa(dp19
g10
I32
sg11
S'Iceland'
p20
sa(dp21
g10
I51
sg11
S'Eastern_European_Summer_Time'
p22
sa(dp23
g10
I63
sg11
S'Byzantine_Empire'
p24
sa(dp25
g10
I68
sg11
S'Latvia'
p26
sa(dp27
g10
I69
sg11
S'Luxembourg'
p28
sa(dp29
g10
I70
sg11
S'Lithuania'
p30
sa(dp31
g10
I85
sg11
S'Middle_Ages'
p32
sa(dp33
g10
I125
sg11
S'Russian_Empire'
p34
sa(dp35
g10
I129
sg11
S'Countries_of_the_world'
p36
sa(dp37
g10
I130
sg11
S'Nazi_Germany'
p38
sa(dp39
g10
I131
sg11
S'Norway'
p40
sa(dp41
g10
I149
sg11
S'Ottoman_Empire'
p42
sa(dp43
g10
I151
sg11
S'Poland'
p44
sa(dp45
g10
I159
sg11
S'UTC+01:00'
p46
sa(dp47
g10
I161
sg11
S'UTC+02:00'
p48
sa(dp49
g10
I162
sg11
S'UTC+03:00'
p50
sa(dp51
g10
I191
sg11
S'Romania'
p52
sa(dp53
g10
I195
sg11
S'Roman_Empire'
p54
sa(dp55
g10
I205
sg11
S'UTC+2'
p56
sa(dp57
g10
I206
sg11
S'UTC+3'
p58
sa(dp59
g10
I211
sg11
S'Switzerland'
p60
sa(dp61
g10
I216
sg11
S'Slovakia'
p62
sa(dp63
g10
I217
sg11
S'Austria'
p64
sa(dp65
g10
I224
sg11
S'Slovenia'
p66
sa(dp67
g10
I226
sg11
S'Anatomical_Therapeutic_Chemical_Classification_System'
p68
sa(dp69
g10
I230
sg11
S'Estonia'
p70
sa(dp71
g10
I234
sg11
S'Serbia'
p72
sa(dp73
g10
I247
sg11
S'Ukraine'
p74
sa(dp75
g10
I260
sg11
S'Belgium'
p76
sa(dp77
g10
I267
sg11
S'Bulgaria'
p78
sa(dp79
g10
I271
sg11
S'Belarus'
p80
sa(dp81
g10
I272
sg11
S'Bosnia_and_Herzegovina'
p82
sa(dp83
g10
I323
sg11
S'Sweden'
p84
sa(dp85
g10
I328
sg11
S'Ancient_Rome'
p86
sa(dp87
g10
I333
sg11
S'Central_European_Time'
p88
sa(dp89
g10
I337
sg11
S'Czech_Republic'
p90
sa(dp91
g10
I346
sg11
S'Croatia'
p92
sa(dp93
g10
I347
sg11
S'Vienna'
p94
sa(dp95
g10
I382
sg11
S'Denmark'
p96
sa(dp97
g10
I396
sg11
S'Eastern_European_Time'
p98
sa(dp99
g10
I399
sg11
S'Central_European_Summer_Time'
p100
sasg10
I408
sg11
S'Romania'
p101
sa(dp102
g1
(lp103
(dp104
g10
I1
sg11
S'International_Union_for_Conservation_of_Nature'
p105
sa(dp106
g10
I20
sg11
S'Papua_New_Guinea'
p107
sa(dp108
g10
I21
sg11
S'Population_density'
p109
sa(dp110
g10
I27
sg11
S'Hong_Kong'
p111
sa(dp112
g10
I29
sg11
S'Parliament_of_the_United_Kingdom'
p113
sa(dp114
g10
I34
sg11
S'India'
p115
sa(dp116
g10
I37
sg11
S'Indonesia'
p117
sa(dp118
g10
I38
sg11
S'Iran'
p119
sa(dp120
g10
I46
sg11
S'Football_(soccer)'
p121
sa(dp122
g10
I64
sg11
S'Peru'
p123
sa(dp124
g10
I67
sg11
S'South_Africa'
p125
sa(dp126
g10
I73
sg11
S'List_of_countries'
p127
sa(dp128
g10
I83
sg11
S'Kenya'
p129
sa(dp130
g10
I99
sg11
S'Antarctica'
p131
sa(dp132
g10
I105
sg11
S'Drainage_basin'
p133
sa(dp134
g10
I107
sg11
S'Conservation_status'
p135
sa(dp136
g10
I109
sg11
S'The_Guardian'
p137
sa(dp138
g10
I110
sg11
S'BBC'
p139
sa(dp140
g10
I111
sg11
S'Burma'
p141
sa(dp142
g10
I132
sg11
S'Northern_Ireland'
p143
sa(dp144
g10
I133
sg11
S'Nigeria'
p145
sa(dp146
g10
I153
sg11
S'Papua_New_Guinea'
p147
sa(dp148
g10
I158
sg11
S'Pacific_Ocean'
p149
sa(dp150
g10
I165
sg11
S'Pakistan'
p151
sa(dp152
g10
I169
sg11
S'Philippines'
p153
sa(dp154
g10
I174
sg11
S'Sovereign_state'
p155
sa(dp156
g10
I196
sg11
S'Cricket'
p157
sa(dp158
g10
I197
sg11
S'Taiwan'
p159
sa(dp160
g10
I201
sg11
S'New_Zealand'
p161
sa(dp162
g10
I202
sg11
S'Royal_Navy'
p163
sa(dp164
g10
I203
sg11
S'Simplified_Chinese_characters'
p165
sa(dp166
g10
I208
sg11
S'Traditional_Chinese_characters'
p167
sa(dp168
g10
I212
sg11
S'Sri_Lanka'
p169
sa(dp170
g10
I213
sg11
S'South_America'
p171
sa(dp172
g10
I219
sg11
S'Scotland'
p173
sa(dp174
g10
I220
sg11
S'South_Korea'
p175
sa(dp176
g10
I221
sg11
S'Singapore'
p177
sa(dp178
g10
I240
sg11
S'Thailand'
p179
sa(dp180
g10
I255
sg11
S'Venezuela'
p181
sa(dp182
g10
I257
sg11
S'Buddhism'
p183
sa(dp184
g10
I259
sg11
S"People's_Republic_of_China"
p185
sa(dp186
g10
I263
sg11
S'Brazil'
p187
sa(dp188
g10
I270
sg11
S'Bangladesh'
p189
sa(dp190
g10
I273
sg11
S'Saudi_Arabia'
p191
sa(dp192
g10
I279
sg11
S'Malaysia'
p193
sa(dp194
g10
I288
sg11
S'Mexico'
p195
sa(dp196
g10
I298
sg11
S'Hangul'
p197
sa(dp198
g10
I299
sg11
S'Member_of_Parliament'
p199
sa(dp200
g10
I313
sg11
S'New_Zealand'
p201
sa(dp202
g10
I319
sg11
S'Cuba'
p203
sa(dp204
g10
I320
sg11
S'Canada'
p205
sa(dp206
g10
I329
sg11
S'Colombia'
p207
sa(dp208
g10
I339
sg11
S'Africa'
p209
sa(dp210
g10
I342
sg11
S'China'
p211
sa(dp212
g10
I344
sg11
S'Chile'
p213
sa(dp214
g10
I350
sg11
S'Iran_Standard_Time'
p215
sa(dp216
g10
I358
sg11
S'Agriculture'
p217
sa(dp218
g10
I371
sg11
S'Atlantic_Ocean'
p219
sa(dp220
g10
I372
sg11
S'Wales'
p221
sa(dp222
g10
I378
sg11
S'Afghanistan'
p223
sa(dp224
g10
I381
sg11
S'Iraq'
p225
sa(dp226
g10
I398
sg11
S'Earth'
p227
sa(dp228
g10
I402
sg11
S'England'
p229
sasg10
I409
sg11
S'India'
p230
sa(dp231
g1
(lp232
(dp233
g10
I3
sg11
S'Association_football'
p234
sa(dp235
g10
I9
sg11
S'Turkey'
p236
sa(dp237
g10
I11
sg11
S'BBC_News'
p238
sa(dp239
g10
I13
sg11
S'Germany'
p240
sa(dp241
g10
I33
sg11
S'Italy'
p242
sa(dp243
g10
I36
sg11
S'Republic_of_Ireland'
p244
sa(dp245
g10
I41
sg11
S'Ireland'
p246
sa(dp247
g10
I52
sg11
S'Japan'
p248
sa(dp249
g10
I59
sg11
S'Kazakhstan'
p250
sa(dp251
g10
I95
sg11
S'DMOZ'
p252
sa(dp253
g10
I98
sg11
S'Argentina'
p254
sa(dp255
g10
I103
sg11
S'Municipality'
p256
sa(dp257
g10
I108
sg11
S'Morocco'
p258
sa(dp259
g10
I114
sg11
S'Marriage'
p260
sa(dp261
g10
I123
sg11
S'Vietnam'
p262
sa(dp263
g10
I128
sg11
S'Netherlands'
p264
sa(dp265
g10
I134
sg11
S'Dependent_territory'
p266
sa(dp267
g10
I143
sg11
S'UNESCO'
p268
sa(dp269
g10
I156
sg11
S'Portugal'
p270
sa(dp271
g10
I164
sg11
S'Unincorporated_area'
p272
sa(dp273
g10
I182
sg11
S'Saint_Petersburg'
p274
sa(dp275
g10
I188
sg11
S'Russia'
p276
sa(dp277
g10
I192
sg11
S'Coordinated_Universal_Time'
p278
sa(dp279
g10
I194
sg11
S'Roman_Catholic'
p280
sa(dp281
g10
I198
sg11
S'Protestantism'
p282
sa(dp283
g10
I199
sg11
S'Jews'
p284
sa(dp285
g10
I209
sg11
S'Spain'
p286
sa(dp287
g10
I214
sg11
S'Soviet_Union'
p288
sa(dp289
g10
I245
sg11
S'United_Kingdom'
p290
sa(dp291
g10
I249
sg11
S'United_Nations'
p292
sa(dp293
g10
I250
sg11
S'USA'
p294
sa(dp295
g10
I258
sg11
S'World_War_II'
p296
sa(dp297
g10
I275
sg11
S'YouTube'
p298
sa(dp299
g10
I278
sg11
S'Algeria'
p300
sa(dp301
g10
I291
sg11
S'United_Kingdom'
p302
sa(dp303
g10
I307
sg11
S'Australia'
p304
sa(dp305
g10
I308
sg11
S'Daylight_saving_time'
p306
sa(dp307
g10
I309
sg11
S'World_War_I'
p308
sa(dp309
g10
I312
sg11
S'Georgia_(country)'
p310
sa(dp311
g10
I327
sg11
S'Christianity'
p312
sa(dp313
g10
I332
sg11
S'List_of_states_with_limited_recognition'
p314
sa(dp315
g10
I348
sg11
S'Cyprus'
p316
sa(dp317
g10
I353
sg11
S'France'
p318
sa(dp319
g10
I354
sg11
S'Islam'
p320
sa(dp321
g10
I355
sg11
S'Catholic_Church'
p322
sa(dp323
g10
I366
sg11
S'List_of_sovereign_states'
p324
sa(dp325
g10
I369
sg11
S'Asia'
p326
sa(dp327
g10
I373
sg11
S'Surname'
p328
sa(dp329
g10
I379
sg11
S'Azerbaijan'
p330
sa(dp331
g10
I380
sg11
S'Syria'
p332
sa(dp333
g10
I386
sg11
S'Egypt'
p334
sa(dp335
g10
I400
sg11
S'Europe'
p336
sa(dp337
g10
I401
sg11
S'Israel'
p338
sa(dp339
g10
I403
sg11
S'European_Union'
p340
sasg10
I411
sg11
S'Spain'
p341
sasg10
I419
sg11
S'France'
p342
sasg10
I423
sg11
S'United_Kingdom'
p343
sa(dp344
g1
(lp345
(dp346
g1
(lp347
(dp348
g1
(lp349
(dp350
g10
I2
sg11
S'The_Washington_Post'
p351
sa(dp352
g10
I42
sg11
S'Ice_hockey'
p353
sa(dp354
g10
I54
sg11
S'Jazz'
p355
sa(dp356
g10
I62
sg11
S'Types_of_business_entity'
p357
sa(dp358
g10
I75
sg11
S'Los_Angeles'
p359
sa(dp360
g10
I80
sg11
S'NASA'
p361
sa(dp362
g10
I93
sg11
S'Associated_Press'
p363
sa(dp364
g10
I96
sg11
S'Law'
p365
sa(dp366
g10
I97
sg11
S'American_football'
p367
sa(dp368
g10
I127
sg11
S'North_America'
p369
sa(dp370
g10
I137
sg11
S'New_York_Times'
p371
sa(dp372
g10
I157
sg11
S'Puerto_Rico'
p373
sa(dp374
g10
I160
sg11
S'UTC\xe2\x88\x9204:00'
p375
sa(dp376
g10
I177
sg11
S'Per_capita_income'
p377
sa(dp378
g10
I181
sg11
S'Alma_mater'
p379
sa(dp380
g10
I187
sg11
S'Virtual_International_Authority_File'
p381
sa(dp382
g10
I207
sg11
S'UTC-5'
p383
sa(dp384
g10
I232
sg11
S'Precipitation'
p385
sa(dp386
g10
I233
sg11
S'Defamation'
p387
sa(dp388
g10
I241
sg11
S'The_New_York_Times'
p389
sa(dp390
g10
I242
sg11
S'Time_zone'
p391
sa(dp392
g10
I243
sg11
S'Atlanta'
p393
sa(dp394
g10
I252
sg11
S'Republican_Party_(United_States)'
p395
sa(dp396
g10
I268
sg11
S'United_States'
p397
sa(dp398
g10
I287
sg11
S'Basketball'
p399
sa(dp400
g10
I303
sg11
S'Legislature'
p401
sa(dp402
g10
I310
sg11
S'Geographic_coordinate_system'
p403
sa(dp404
g10
I317
sg11
S'Poverty_line'
p405
sa(dp406
g10
I359
sg11
S'Telephone_numbering_plan'
p407
sa(dp408
g10
I360
sg11
S'National_Register_of_Historic_Places'
p409
sa(dp410
g10
I361
sg11
S'New_York_City'
p411
sa(dp412
g10
I362
sg11
S'UTC\xe2\x88\x9205:00'
p413
sa(dp414
g10
I367
sg11
S'Chicago'
p415
sasg10
I410
sg11
S'New_York_City'
p416
sa(dp417
g1
(lp418
(dp419
g10
I6
sg11
S'Washington_D.C.'
p420
sa(dp421
g10
I23
sg11
S'Washington_(state)'
p422
sa(dp423
g10
I25
sg11
S'Hawaii'
p424
sa(dp425
g10
I44
sg11
S'Illinois'
p426
sa(dp427
g10
I56
sg11
S'National_Park_Service'
p428
sa(dp429
g10
I58
sg11
S'Massachusetts'
p430
sa(dp431
g10
I81
sg11
S'U.S._state'
p432
sa(dp433
g10
I82
sg11
S'United_States_dollar'
p434
sa(dp435
g10
I88
sg11
S'Maryland'
p436
sa(dp437
g10
I89
sg11
S'Michigan'
p438
sa(dp439
g10
I91
sg11
S'Florida'
p440
sa(dp441
g10
I112
sg11
S'United_States_House_of_Representatives'
p442
sa(dp443
g10
I113
sg11
S'Federal_government_of_the_United_States'
p444
sa(dp445
g10
I124
sg11
S'United_States_Navy'
p446
sa(dp447
g10
I139
sg11
S'New_Jersey'
p448
sa(dp449
g10
I140
sg11
S'North_Carolina'
p450
sa(dp451
g10
I147
sg11
S'Ohio'
p452
sa(dp453
g10
I166
sg11
S'Pennsylvania'
p454
sa(dp455
g10
I176
sg11
S'United_States_Geological_Survey'
p456
sa(dp457
g10
I180
sg11
S'President_of_the_United_States'
p458
sa(dp459
g10
I183
sg11
S'Boston'
p460
sa(dp461
g10
I186
sg11
S'United_States_Senate'
p462
sa(dp463
g10
I218
sg11
S'Census_designated_place'
p464
sa(dp465
g10
I222
sg11
S'Race_and_ethnicity_in_the_United_States_Census'
p466
sa(dp467
g10
I235
sg11
S'Texas'
p468
sa(dp469
g10
I246
sg11
S'Supreme_Court_of_the_United_States'
p470
sa(dp471
g10
I248
sg11
S'United_States_Congress'
p472
sa(dp473
g10
I253
sg11
S'United_States_Army'
p474
sa(dp475
g10
I256
sg11
S'Virginia'
p476
sa(dp477
g10
I265
sg11
S'Washington_D.C.'
p478
sa(dp479
g10
I269
sg11
S'2010_United_States_Census'
p480
sa(dp481
g10
I274
sg11
S'Geographic_Names_Information_System'
p482
sa(dp483
g10
I301
sg11
S'2000_United_States_Census'
p484
sa(dp485
g10
I304
sg11
S'Political_divisions_of_the_United_States'
p486
sa(dp487
g10
I306
sg11
S'Census-designated_place'
p488
sa(dp489
g10
I315
sg11
S'Eastern_Time_Zone'
p490
sa(dp491
g10
I316
sg11
S'San_Francisco'
p492
sa(dp493
g10
I321
sg11
S'Democratic_Party_(United_States)'
p494
sa(dp495
g10
I322
sg11
S'Philadelphia'
p496
sa(dp497
g10
I325
sg11
S'County_seat'
p498
sa(dp499
g10
I326
sg11
S'ZIP_code'
p500
sa(dp501
g10
I343
sg11
S'California'
p502
sa(dp503
g10
I351
sg11
S'United_States_Census_Bureau'
p504
sa(dp505
g10
I388
sg11
S'New_York'
p506
sa(dp507
g10
I392
sg11
S'American_Civil_War'
p508
sasg10
I413
sg11
S'Federal_government_of_the_United_States'
p509
sa(dp510
g1
(lp511
(dp512
g10
I7
sg11
S'Google'
p513
sa(dp514
g10
I19
sg11
S'Music_genre'
p515
sa(dp516
g10
I35
sg11
S'Internet'
p517
sa(dp518
g10
I40
sg11
S'Record_label'
p519
sa(dp520
g10
I55
sg11
S'Single_(music)'
p521
sa(dp522
g10
I78
sg11
S'Billboard_(magazine)'
p523
sa(dp524
g10
I90
sg11
S'Microsoft_Windows'
p525
sa(dp526
g10
I126
sg11
S'MusicBrainz'
p527
sa(dp528
g10
I135
sg11
S'Actor'
p529
sa(dp530
g10
I136
sg11
S'Film'
p531
sa(dp532
g10
I144
sg11
S'Studio_album'
p533
sa(dp534
g10
I145
sg11
S'Newspaper'
p535
sa(dp536
g10
I146
sg11
S'Operating_system'
p537
sa(dp538
g10
I163
sg11
S'Private_Use_Areas'
p539
sa(dp540
g10
I184
sg11
S'Pop_music'
p541
sa(dp542
g10
I189
sg11
S'Rock_music'
p543
sa(dp544
g10
I223
sg11
S'Los_Angeles_Times'
p545
sa(dp546
g10
I231
sg11
S'Internet_Movie_Database'
p547
sa(dp548
g10
I236
sg11
S'Television'
p549
sa(dp550
g10
I237
sg11
S'Wikilink'
p551
sa(dp552
g10
I244
sg11
S'Time_(magazine)'
p553
sa(dp554
g10
I251
sg11
S'University_of_California_Berkeley'
p555
sa(dp556
g10
I254
sg11
S'Uniform_resource_locator'
p557
sa(dp558
g10
I280
sg11
S'University_of_California_Berkeley'
p559
sa(dp560
g10
I284
sg11
S'H:S'
p561
sa(dp562
g10
I290
sg11
S'Allmusic'
p563
sa(dp564
g10
I300
sg11
S'Forward_(association_football)'
p565
sa(dp566
g10
I314
sg11
S'Hyperlink'
p567
sa(dp568
g10
I330
sg11
S'Chief_executive_officer'
p569
sa(dp570
g10
I334
sg11
S'Album'
p571
sa(dp572
g10
I336
sg11
S'Record_producer'
p573
sa(dp574
g10
I345
sg11
S'Midfielder'
p575
sa(dp576
g10
I364
sg11
S'Defender_(association_football)'
p577
sa(dp578
g10
I370
sg11
S'AllMusic'
p579
sa(dp580
g10
I374
sg11
S'Tributary'
p581
sa(dp582
g10
I389
sg11
S'Database'
p583
sa(dp584
g10
I390
sg11
S'Apple_Inc.'
p585
sa(dp586
g10
I394
sg11
S'Apple_Inc.'
p587
sa(dp588
g10
I395
sg11
S'Amazon.com'
p589
sa(dp590
g10
I404
sg11
S'Songwriter'
p591
sa(dp592
g10
I406
sg11
S'Twitter'
p593
sasg10
I414
sg11
S'Pop_music'
p594
sa(dp595
g1
(lp596
(dp597
g10
I65
sg11
S'Melbourne'
p598
sa(dp599
g10
I74
sg11
S'London'
p600
sa(dp601
g10
I102
sg11
S'Moscow'
p602
sa(dp603
g10
I141
sg11
S'New_South_Wales'
p604
sa(dp605
g10
I150
sg11
S'Olympic_Games'
p606
sa(dp607
g10
I155
sg11
S'Paris'
p608
sa(dp609
g10
I193
sg11
S'Rome'
p610
sa(dp611
g10
I204
sg11
S'UTC+1'
p612
sa(dp613
g10
I210
sg11
S'Stockholm'
p614
sa(dp615
g10
I225
sg11
S'St._Louis'
p616
sa(dp617
g10
I229
sg11
S'Sydney'
p618
sa(dp619
g10
I239
sg11
S'Tokyo'
p620
sa(dp621
g10
I261
sg11
S'Berlin'
p622
sa(dp623
g10
I363
sg11
S'Toronto'
p624
sasg10
I418
sg11
S'Sydney'
p625
sasg10
I420
sg11
S'Washington_D.C.'
p626
sa(dp627
g1
(lp628
(dp629
g1
(lp630
(dp631
g10
I5
sg11
S'French_language'
p632
sa(dp633
g10
I12
sg11
S'Persian_language'
p634
sa(dp635
g10
I14
sg11
S'German_language'
p636
sa(dp637
g10
I15
sg11
S'Greek_language'
p638
sa(dp639
g10
I18
sg11
S'Gmina'
p640
sa(dp641
g10
I22
sg11
S'Latin_language'
p642
sa(dp643
g10
I28
sg11
S'Hebrew_language'
p644
sa(dp645
g10
I39
sg11
S'Italian_language'
p646
sa(dp647
g10
I43
sg11
S'Ancient_Greek'
p648
sa(dp649
g10
I53
sg11
S'Japanese_language'
p650
sa(dp651
g10
I72
sg11
S'Latin'
p652
sa(dp653
g10
I76
sg11
S'Capital_city'
p654
sa(dp655
g10
I77
sg11
S'Language_family'
p656
sa(dp657
g10
I106
sg11
S'Administrative_divisions_of_Iran'
p658
sa(dp659
g10
I120
sg11
S'Dutch_language'
p660
sa(dp661
g10
I148
sg11
S'Ontario'
p662
sa(dp663
g10
I154
sg11
S'Polish_language'
p664
sa(dp665
g10
I170
sg11
S'Roman_Catholic_Church'
p666
sa(dp667
g10
I178
sg11
S'Portuguese_language'
p668
sa(dp669
g10
I185
sg11
S'Given_name'
p670
sa(dp671
g10
I190
sg11
S'Russian_language'
p672
sa(dp673
g10
I215
sg11
S'Spanish_language'
p674
sa(dp675
g10
I238
sg11
S'Turkish_language'
p676
sa(dp677
g10
I264
sg11
S'British_Columbia'
p678
sa(dp679
g10
I282
sg11
S'Noun'
p680
sa(dp681
g10
I283
sg11
S'Adjective'
p682
sa(dp683
g10
I285
sg11
S'Powiat'
p684
sa(dp685
g10
I292
sg11
S'Voivodeships_of_Poland'
p686
sa(dp687
g10
I295
sg11
S'Glottolog'
p688
sa(dp689
g10
I311
sg11
S'Oxford_University_Press'
p690
sa(dp691
g10
I335
sg11
S'Town'
p692
sa(dp693
g10
I340
sg11
S'Village'
p694
sa(dp695
g10
I341
sg11
S'City'
p696
sa(dp697
g10
I352
sg11
S'Chinese_language'
p698
sa(dp699
g10
I368
sg11
S'Census'
p700
sa(dp701
g10
I375
sg11
S'Nonprofit_organization'
p702
sa(dp703
g10
I384
sg11
S'Quebec'
p704
sa(dp705
g10
I385
sg11
S'Arabic_language'
p706
sa(dp707
g10
I391
sg11
S'English_language'
p708
sa(dp709
g10
I405
sg11
S'Member_of_parliament'
p710
sasg10
I412
sg11
S'French_language'
p711
sa(dp712
g1
(lp713
(dp714
g10
I24
sg11
S'PubMed_Identifier'
p715
sa(dp716
g10
I30
sg11
S'Authority_control'
p717
sa(dp718
g10
I31
sg11
S'Bibcode'
p719
sa(dp720
g10
I45
sg11
S'ISO_3166'
p721
sa(dp722
g10
I47
sg11
S'Library_of_Congress_Control_Number'
p723
sa(dp724
g10
I48
sg11
S'International_Standard_Book_Number'
p725
sa(dp726
g10
I57
sg11
S'Singing'
p727
sa(dp728
g10
I71
sg11
S'Internet_Archive'
p729
sa(dp730
g10
I79
sg11
S'Harvard_University'
p731
sa(dp732
g10
I84
sg11
S'Mathematics'
p733
sa(dp734
g10
I92
sg11
S'Public_domain'
p735
sa(dp736
g10
I94
sg11
S'Library_of_Congress'
p737
sa(dp738
g10
I100
sg11
S'Geography'
p739
sa(dp740
g10
I119
sg11
S'Biblioth\xc3\xa8que_nationale_de_France'
p741
sa(dp742
g10
I121
sg11
S'Union_List_of_Artist_Names'
p743
sa(dp744
g10
I122
sg11
S'National_Library_of_the_Czech_Republic'
p745
sa(dp746
g10
I138
sg11
S'JSTOR'
p747
sa(dp748
g10
I152
sg11
S'Physics'
p749
sa(dp750
g10
I171
sg11
S'International_Standard_Serial_Number'
p751
sa(dp752
g10
I172
sg11
S'Wayback_Machine'
p753
sa(dp754
g10
I200
sg11
S'Encyclop\xc3\xa6dia_Britannica_Eleventh_Edition'
p755
sa(dp756
g10
I228
sg11
S'PubMed_Central'
p757
sa(dp758
g10
I262
sg11
S'Syst\xc3\xa8me_universitaire_de_documentation'
p759
sa(dp760
g10
I277
sg11
S'Integrated_Authority_File'
p761
sa(dp762
g10
I281
sg11
S'National_Diet_Library'
p763
sa(dp764
g10
I294
sg11
S'Wikisource'
p765
sa(dp766
g10
I296
sg11
S'Digital_object_identifier'
p767
sa(dp768
g10
I305
sg11
S'Copyright_status_of_work_by_the_U.S._government'
p769
sa(dp770
g10
I356
sg11
S'Sea_level'
p771
sa(dp772
g10
I376
sg11
S'Encyclop\xc3\xa6dia_Britannica_Eleventh_Edition'
p773
sa(dp774
g10
I377
sg11
S'Cambridge_University_Press'
p775
sa(dp776
g10
I393
sg11
S'OCLC'
p777
sa(dp778
g10
I397
sg11
S'Economics'
p779
sasg10
I417
sg11
S'Library_of_Congress'
p780
sasg10
I421
sg11
S'Digital_object_identifier'
p781
sa(dp782
g1
(lp783
(dp784
g1
(lp785
(dp786
g10
I8
sg11
S'Animal'
p787
sa(dp788
g10
I50
sg11
S'IUCN_Red_List'
p789
sa(dp790
g10
I86
sg11
S'Mammal'
p791
sa(dp792
g10
I101
sg11
S'Flowering_plant'
p793
sa(dp794
g10
I115
sg11
S'Mollusca'
p795
sa(dp796
g10
I116
sg11
S'Arthropod'
p797
sa(dp798
g10
I117
sg11
S'Plant'
p799
sa(dp800
g10
I118
sg11
S'Plantae'
p801
sa(dp802
g10
I142
sg11
S'Species'
p803
sa(dp804
g10
I167
sg11
S'Insect'
p805
sa(dp806
g10
I168
sg11
S'Biological_classification'
p807
sa(dp808
g10
I175
sg11
S'Protein'
p809
sa(dp810
g10
I227
sg11
S'Eudicots'
p811
sa(dp812
g10
I266
sg11
S'Bird'
p813
sa(dp814
g10
I286
sg11
S'Genus'
p815
sa(dp816
g10
I289
sg11
S'Binomial_nomenclature'
p817
sa(dp818
g10
I293
sg11
S'Animalia'
p819
sa(dp820
g10
I297
sg11
S'Gene'
p821
sa(dp822
g10
I302
sg11
S'Angiosperms'
p823
sa(dp824
g10
I324
sg11
S'Chordate'
p825
sa(dp826
g10
I331
sg11
S'Carl_Linnaeus'
p827
sa(dp828
g10
I338
sg11
S'Lepidoptera'
p829
sa(dp830
g10
I349
sg11
S'Family_(biology)'
p831
sa(dp832
g10
I357
sg11
S'Human_Genome_Organisation'
p833
sa(dp834
g10
I365
sg11
S'Moth'
p835
sa(dp836
g10
I383
sg11
S'Chordata'
p837
sa(dp838
g10
I387
sg11
S'Synonym_(taxonomy)'
p839
sa(dp840
g10
I407
sg11
S'Wikispecies'
p841
sasg10
I415
sg11
S'Species'
p842
sa(dp843
g1
(lp844
(dp845
g10
I10
sg11
S'ISO_4'
p846
sa(dp847
g10
I17
sg11
S'ISO/IEC_27000-series'
p848
sa(dp849
g10
I49
sg11
S'International_Organization_for_Standardization'
p850
sa(dp851
g10
I60
sg11
S'ISO_639'
p852
sa(dp853
g10
I61
sg11
S'Film_speed'
p854
sa(dp855
g10
I66
sg11
S'ISO_639-3'
p856
sa(dp857
g10
I87
sg11
S'International_Standard_Name_Identifier'
p858
sa(dp859
g10
I104
sg11
S'Library_catalog'
p860
sa(dp861
g10
I173
sg11
S'Pinyin'
p862
sa(dp863
g10
I179
sg11
S'Portable_Document_Format'
p864
sa(dp865
g10
I276
sg11
S'Wikidata'
p866
sa(dp867
g10
I318
sg11
S'PubMed'
p868
sasg10
I416
sg11
S'ISO_4'
p869
sasg10
I422
sg11
S'Biological_classification'
p870
sasg10
I424
sg11
S'United_States'
p871
sasg10
I425
sg11
S'International_Standard_Book_Number'
p872
s(dp873
I0
(dp874
g10
I0
sg11
g12
ssI1
(dp875
g10
I1
sg11
g105
ssI2
(dp876
g10
I2
sg11
g351
ssI3
(dp877
g10
I3
sg11
g234
ssI4
(dp878
g10
I4
sg11
g14
ssI5
(dp879
g10
I5
sg11
g632
ssI6
(dp880
g10
I6
sg11
g420
ssI7
(dp881
g10
I7
sg11
g513
ssI8
(dp882
g10
I8
sg11
g787
ssI9
(dp883
g10
I9
sg11
g236
ssI10
(dp884
g10
I10
sg11
g846
ssI11
(dp885
g10
I11
sg11
g238
ssI12
(dp886
g10
I12
sg11
g634
ssI13
(dp887
g10
I13
sg11
g240
ssI14
(dp888
g10
I14
sg11
g636
ssI15
(dp889
g10
I15
sg11
g638
ssI16
(dp890
g10
I16
sg11
g16
ssI17
(dp891
g10
I17
sg11
g848
ssI18
(dp892
g10
I18
sg11
g640
ssI19
(dp893
g10
I19
sg11
g515
ssI20
(dp894
g10
I20
sg11
g107
ssI21
(dp895
g10
I21
sg11
g109
ssI22
(dp896
g10
I22
sg11
g642
ssI23
(dp897
g10
I23
sg11
g422
ssI24
(dp898
g10
I24
sg11
g715
ssI25
(dp899
g10
I25
sg11
g424
ssI26
(dp900
g10
I26
sg11
g18
ssI27
(dp901
g10
I27
sg11
g111
ssI28
(dp902
g10
I28
sg11
g644
ssI29
(dp903
g10
I29
sg11
g113
ssI30
(dp904
g10
I30
sg11
g717
ssI31
(dp905
g10
I31
sg11
g719
ssI32
(dp906
g10
I32
sg11
g20
ssI33
(dp907
g10
I33
sg11
g242
ssI34
(dp908
g10
I34
sg11
g115
ssI35
(dp909
g10
I35
sg11
g517
ssI36
(dp910
g10
I36
sg11
g244
ssI37
(dp911
g10
I37
sg11
g117
ssI38
(dp912
g10
I38
sg11
g119
ssI39
(dp913
g10
I39
sg11
g646
ssI40
(dp914
g10
I40
sg11
g519
ssI41
(dp915
g10
I41
sg11
g246
ssI42
(dp916
g10
I42
sg11
g353
ssI43
(dp917
g10
I43
sg11
g648
ssI44
(dp918
g10
I44
sg11
g426
ssI45
(dp919
g10
I45
sg11
g721
ssI46
(dp920
g10
I46
sg11
g121
ssI47
(dp921
g10
I47
sg11
g723
ssI48
(dp922
g10
I48
sg11
g725
ssI49
(dp923
g10
I49
sg11
g850
ssI50
(dp924
g10
I50
sg11
g789
ssI51
(dp925
g10
I51
sg11
g22
ssI52
(dp926
g10
I52
sg11
g248
ssI53
(dp927
g10
I53
sg11
g650
ssI54
(dp928
g10
I54
sg11
g355
ssI55
(dp929
g10
I55
sg11
g521
ssI56
(dp930
g10
I56
sg11
g428
ssI57
(dp931
g10
I57
sg11
g727
ssI58
(dp932
g10
I58
sg11
g430
ssI59
(dp933
g10
I59
sg11
g250
ssI60
(dp934
g10
I60
sg11
g852
ssI61
(dp935
g10
I61
sg11
g854
ssI62
(dp936
g10
I62
sg11
g357
ssI63
(dp937
g10
I63
sg11
g24
ssI64
(dp938
g10
I64
sg11
g123
ssI65
(dp939
g10
I65
sg11
g598
ssI66
(dp940
g10
I66
sg11
g856
ssI67
(dp941
g10
I67
sg11
g125
ssI68
(dp942
g10
I68
sg11
g26
ssI69
(dp943
g10
I69
sg11
g28
ssI70
(dp944
g10
I70
sg11
g30
ssI71
(dp945
g10
I71
sg11
g729
ssI72
(dp946
g10
I72
sg11
g652
ssI73
(dp947
g10
I73
sg11
g127
ssI74
(dp948
g10
I74
sg11
g600
ssI75
(dp949
g10
I75
sg11
g359
ssI76
(dp950
g10
I76
sg11
g654
ssI77
(dp951
g10
I77
sg11
g656
ssI78
(dp952
g10
I78
sg11
g523
ssI79
(dp953
g10
I79
sg11
g731
ssI80
(dp954
g10
I80
sg11
g361
ssI81
(dp955
g10
I81
sg11
g432
ssI82
(dp956
g10
I82
sg11
g434
ssI83
(dp957
g10
I83
sg11
g129
ssI84
(dp958
g10
I84
sg11
g733
ssI85
(dp959
g10
I85
sg11
g32
ssI86
(dp960
g10
I86
sg11
g791
ssI87
(dp961
g10
I87
sg11
g858
ssI88
(dp962
g10
I88
sg11
g436
ssI89
(dp963
g10
I89
sg11
g438
ssI90
(dp964
g10
I90
sg11
g525
ssI91
(dp965
g10
I91
sg11
g440
ssI92
(dp966
g10
I92
sg11
g735
ssI93
(dp967
g10
I93
sg11
g363
ssI94
(dp968
g10
I94
sg11
g737
ssI95
(dp969
g10
I95
sg11
g252
ssI96
(dp970
g10
I96
sg11
g365
ssI97
(dp971
g10
I97
sg11
g367
ssI98
(dp972
g10
I98
sg11
g254
ssI99
(dp973
g10
I99
sg11
g131
ssI100
(dp974
g10
I100
sg11
g739
ssI101
(dp975
g10
I101
sg11
g793
ssI102
(dp976
g10
I102
sg11
g602
ssI103
(dp977
g10
I103
sg11
g256
ssI104
(dp978
g10
I104
sg11
g860
ssI105
(dp979
g10
I105
sg11
g133
ssI106
(dp980
g10
I106
sg11
g658
ssI107
(dp981
g10
I107
sg11
g135
ssI108
(dp982
g10
I108
sg11
g258
ssI109
(dp983
g10
I109
sg11
g137
ssI110
(dp984
g10
I110
sg11
g139
ssI111
(dp985
g10
I111
sg11
g141
ssI112
(dp986
g10
I112
sg11
g442
ssI113
(dp987
g10
I113
sg11
g444
ssI114
(dp988
g10
I114
sg11
g260
ssI115
(dp989
g10
I115
sg11
g795
ssI116
(dp990
g10
I116
sg11
g797
ssI117
(dp991
g10
I117
sg11
g799
ssI118
(dp992
g10
I118
sg11
g801
ssI119
(dp993
g10
I119
sg11
g741
ssI120
(dp994
g10
I120
sg11
g660
ssI121
(dp995
g10
I121
sg11
g743
ssI122
(dp996
g10
I122
sg11
g745
ssI123
(dp997
g10
I123
sg11
g262
ssI124
(dp998
g10
I124
sg11
g446
ssI125
(dp999
g10
I125
sg11
g34
ssI126
(dp1000
g10
I126
sg11
g527
ssI127
(dp1001
g10
I127
sg11
g369
ssI128
(dp1002
g10
I128
sg11
g264
ssI129
(dp1003
g10
I129
sg11
g36
ssI130
(dp1004
g10
I130
sg11
g38
ssI131
(dp1005
g10
I131
sg11
g40
ssI132
(dp1006
g10
I132
sg11
g143
ssI133
(dp1007
g10
I133
sg11
g145
ssI134
(dp1008
g10
I134
sg11
g266
ssI135
(dp1009
g10
I135
sg11
g529
ssI136
(dp1010
g10
I136
sg11
g531
ssI137
(dp1011
g10
I137
sg11
g371
ssI138
(dp1012
g10
I138
sg11
g747
ssI139
(dp1013
g10
I139
sg11
g448
ssI140
(dp1014
g10
I140
sg11
g450
ssI141
(dp1015
g10
I141
sg11
g604
ssI142
(dp1016
g10
I142
sg11
g803
ssI143
(dp1017
g10
I143
sg11
g268
ssI144
(dp1018
g10
I144
sg11
g533
ssI145
(dp1019
g10
I145
sg11
g535
ssI146
(dp1020
g10
I146
sg11
g537
ssI147
(dp1021
g10
I147
sg11
g452
ssI148
(dp1022
g10
I148
sg11
g662
ssI149
(dp1023
g10
I149
sg11
g42
ssI150
(dp1024
g10
I150
sg11
g606
ssI151
(dp1025
g10
I151
sg11
g44
ssI152
(dp1026
g10
I152
sg11
g749
ssI153
(dp1027
g10
I153
sg11
g147
ssI154
(dp1028
g10
I154
sg11
g664
ssI155
(dp1029
g10
I155
sg11
g608
ssI156
(dp1030
g10
I156
sg11
g270
ssI157
(dp1031
g10
I157
sg11
g373
ssI158
(dp1032
g10
I158
sg11
g149
ssI159
(dp1033
g10
I159
sg11
g46
ssI160
(dp1034
g10
I160
sg11
g375
ssI161
(dp1035
g10
I161
sg11
g48
ssI162
(dp1036
g10
I162
sg11
g50
ssI163
(dp1037
g10
I163
sg11
g539
ssI164
(dp1038
g10
I164
sg11
g272
ssI165
(dp1039
g10
I165
sg11
g151
ssI166
(dp1040
g10
I166
sg11
g454
ssI167
(dp1041
g10
I167
sg11
g805
ssI168
(dp1042
g10
I168
sg11
g807
ssI169
(dp1043
g10
I169
sg11
g153
ssI170
(dp1044
g10
I170
sg11
g666
ssI171
(dp1045
g10
I171
sg11
g751
ssI172
(dp1046
g10
I172
sg11
g753
ssI173
(dp1047
g10
I173
sg11
g862
ssI174
(dp1048
g10
I174
sg11
g155
ssI175
(dp1049
g10
I175
sg11
g809
ssI176
(dp1050
g10
I176
sg11
g456
ssI177
(dp1051
g10
I177
sg11
g377
ssI178
(dp1052
g10
I178
sg11
g668
ssI179
(dp1053
g10
I179
sg11
g864
ssI180
(dp1054
g10
I180
sg11
g458
ssI181
(dp1055
g10
I181
sg11
g379
ssI182
(dp1056
g10
I182
sg11
g274
ssI183
(dp1057
g10
I183
sg11
g460
ssI184
(dp1058
g10
I184
sg11
g541
ssI185
(dp1059
g10
I185
sg11
g670
ssI186
(dp1060
g10
I186
sg11
g462
ssI187
(dp1061
g10
I187
sg11
g381
ssI188
(dp1062
g10
I188
sg11
g276
ssI189
(dp1063
g10
I189
sg11
g543
ssI190
(dp1064
g10
I190
sg11
g672
ssI191
(dp1065
g10
I191
sg11
g52
ssI192
(dp1066
g10
I192
sg11
g278
ssI193
(dp1067
g10
I193
sg11
g610
ssI194
(dp1068
g10
I194
sg11
g280
ssI195
(dp1069
g10
I195
sg11
g54
ssI196
(dp1070
g10
I196
sg11
g157
ssI197
(dp1071
g10
I197
sg11
g159
ssI198
(dp1072
g10
I198
sg11
g282
ssI199
(dp1073
g10
I199
sg11
g284
ssI200
(dp1074
g10
I200
sg11
g755
ssI201
(dp1075
g10
I201
sg11
g161
ssI202
(dp1076
g10
I202
sg11
g163
ssI203
(dp1077
g10
I203
sg11
g165
ssI204
(dp1078
g10
I204
sg11
g612
ssI205
(dp1079
g10
I205
sg11
g56
ssI206
(dp1080
g10
I206
sg11
g58
ssI207
(dp1081
g10
I207
sg11
g383
ssI208
(dp1082
g10
I208
sg11
g167
ssI209
(dp1083
g10
I209
sg11
g286
ssI210
(dp1084
g10
I210
sg11
g614
ssI211
(dp1085
g10
I211
sg11
g60
ssI212
(dp1086
g10
I212
sg11
g169
ssI213
(dp1087
g10
I213
sg11
g171
ssI214
(dp1088
g10
I214
sg11
g288
ssI215
(dp1089
g10
I215
sg11
g674
ssI216
(dp1090
g10
I216
sg11
g62
ssI217
(dp1091
g10
I217
sg11
g64
ssI218
(dp1092
g10
I218
sg11
g464
ssI219
(dp1093
g10
I219
sg11
g173
ssI220
(dp1094
g10
I220
sg11
g175
ssI221
(dp1095
g10
I221
sg11
g177
ssI222
(dp1096
g10
I222
sg11
g466
ssI223
(dp1097
g10
I223
sg11
g545
ssI224
(dp1098
g10
I224
sg11
g66
ssI225
(dp1099
g10
I225
sg11
g616
ssI226
(dp1100
g10
I226
sg11
g68
ssI227
(dp1101
g10
I227
sg11
g811
ssI228
(dp1102
g10
I228
sg11
g757
ssI229
(dp1103
g10
I229
sg11
g618
ssI230
(dp1104
g10
I230
sg11
g70
ssI231
(dp1105
g10
I231
sg11
g547
ssI232
(dp1106
g10
I232
sg11
g385
ssI233
(dp1107
g10
I233
sg11
g387
ssI234
(dp1108
g10
I234
sg11
g72
ssI235
(dp1109
g10
I235
sg11
g468
ssI236
(dp1110
g10
I236
sg11
g549
ssI237
(dp1111
g10
I237
sg11
g551
ssI238
(dp1112
g10
I238
sg11
g676
ssI239
(dp1113
g10
I239
sg11
g620
ssI240
(dp1114
g10
I240
sg11
g179
ssI241
(dp1115
g10
I241
sg11
g389
ssI242
(dp1116
g10
I242
sg11
g391
ssI243
(dp1117
g10
I243
sg11
g393
ssI244
(dp1118
g10
I244
sg11
g553
ssI245
(dp1119
g10
I245
sg11
g290
ssI246
(dp1120
g10
I246
sg11
g470
ssI247
(dp1121
g10
I247
sg11
g74
ssI248
(dp1122
g10
I248
sg11
g472
ssI249
(dp1123
g10
I249
sg11
g292
ssI250
(dp1124
g10
I250
sg11
g294
ssI251
(dp1125
g10
I251
sg11
g555
ssI252
(dp1126
g10
I252
sg11
g395
ssI253
(dp1127
g10
I253
sg11
g474
ssI254
(dp1128
g10
I254
sg11
g557
ssI255
(dp1129
g10
I255
sg11
g181
ssI256
(dp1130
g10
I256
sg11
g476
ssI257
(dp1131
g10
I257
sg11
g183
ssI258
(dp1132
g10
I258
sg11
g296
ssI259
(dp1133
g10
I259
sg11
g185
ssI260
(dp1134
g10
I260
sg11
g76
ssI261
(dp1135
g10
I261
sg11
g622
ssI262
(dp1136
g10
I262
sg11
g759
ssI263
(dp1137
g10
I263
sg11
g187
ssI264
(dp1138
g10
I264
sg11
g678
ssI265
(dp1139
g10
I265
sg11
g478
ssI266
(dp1140
g10
I266
sg11
g813
ssI267
(dp1141
g10
I267
sg11
g78
ssI268
(dp1142
g10
I268
sg11
g397
ssI269
(dp1143
g10
I269
sg11
g480
ssI270
(dp1144
g10
I270
sg11
g189
ssI271
(dp1145
g10
I271
sg11
g80
ssI272
(dp1146
g10
I272
sg11
g82
ssI273
(dp1147
g10
I273
sg11
g191
ssI274
(dp1148
g10
I274
sg11
g482
ssI275
(dp1149
g10
I275
sg11
g298
ssI276
(dp1150
g10
I276
sg11
g866
ssI277
(dp1151
g10
I277
sg11
g761
ssI278
(dp1152
g10
I278
sg11
g300
ssI279
(dp1153
g10
I279
sg11
g193
ssI280
(dp1154
g10
I280
sg11
g559
ssI281
(dp1155
g10
I281
sg11
g763
ssI282
(dp1156
g10
I282
sg11
g680
ssI283
(dp1157
g10
I283
sg11
g682
ssI284
(dp1158
g10
I284
sg11
g561
ssI285
(dp1159
g10
I285
sg11
g684
ssI286
(dp1160
g10
I286
sg11
g815
ssI287
(dp1161
g10
I287
sg11
g399
ssI288
(dp1162
g10
I288
sg11
g195
ssI289
(dp1163
g10
I289
sg11
g817
ssI290
(dp1164
g10
I290
sg11
g563
ssI291
(dp1165
g10
I291
sg11
g302
ssI292
(dp1166
g10
I292
sg11
g686
ssI293
(dp1167
g10
I293
sg11
g819
ssI294
(dp1168
g10
I294
sg11
g765
ssI295
(dp1169
g10
I295
sg11
g688
ssI296
(dp1170
g10
I296
sg11
g767
ssI297
(dp1171
g10
I297
sg11
g821
ssI298
(dp1172
g10
I298
sg11
g197
ssI299
(dp1173
g10
I299
sg11
g199
ssI300
(dp1174
g10
I300
sg11
g565
ssI301
(dp1175
g10
I301
sg11
g484
ssI302
(dp1176
g10
I302
sg11
g823
ssI303
(dp1177
g10
I303
sg11
g401
ssI304
(dp1178
g10
I304
sg11
g486
ssI305
(dp1179
g10
I305
sg11
g769
ssI306
(dp1180
g10
I306
sg11
g488
ssI307
(dp1181
g10
I307
sg11
g304
ssI308
(dp1182
g10
I308
sg11
g306
ssI309
(dp1183
g10
I309
sg11
g308
ssI310
(dp1184
g10
I310
sg11
g403
ssI311
(dp1185
g10
I311
sg11
g690
ssI312
(dp1186
g10
I312
sg11
g310
ssI313
(dp1187
g10
I313
sg11
g201
ssI314
(dp1188
g10
I314
sg11
g567
ssI315
(dp1189
g10
I315
sg11
g490
ssI316
(dp1190
g10
I316
sg11
g492
ssI317
(dp1191
g10
I317
sg11
g405
ssI318
(dp1192
g10
I318
sg11
g868
ssI319
(dp1193
g10
I319
sg11
g203
ssI320
(dp1194
g10
I320
sg11
g205
ssI321
(dp1195
g10
I321
sg11
g494
ssI322
(dp1196
g10
I322
sg11
g496
ssI323
(dp1197
g10
I323
sg11
g84
ssI324
(dp1198
g10
I324
sg11
g825
ssI325
(dp1199
g10
I325
sg11
g498
ssI326
(dp1200
g10
I326
sg11
g500
ssI327
(dp1201
g10
I327
sg11
g312
ssI328
(dp1202
g10
I328
sg11
g86
ssI329
(dp1203
g10
I329
sg11
g207
ssI330
(dp1204
g10
I330
sg11
g569
ssI331
(dp1205
g10
I331
sg11
g827
ssI332
(dp1206
g10
I332
sg11
g314
ssI333
(dp1207
g10
I333
sg11
g88
ssI334
(dp1208
g10
I334
sg11
g571
ssI335
(dp1209
g10
I335
sg11
g692
ssI336
(dp1210
g10
I336
sg11
g573
ssI337
(dp1211
g10
I337
sg11
g90
ssI338
(dp1212
g10
I338
sg11
g829
ssI339
(dp1213
g10
I339
sg11
g209
ssI340
(dp1214
g10
I340
sg11
g694
ssI341
(dp1215
g10
I341
sg11
g696
ssI342
(dp1216
g10
I342
sg11
g211
ssI343
(dp1217
g10
I343
sg11
g502
ssI344
(dp1218
g10
I344
sg11
g213
ssI345
(dp1219
g10
I345
sg11
g575
ssI346
(dp1220
g10
I346
sg11
g92
ssI347
(dp1221
g10
I347
sg11
g94
ssI348
(dp1222
g10
I348
sg11
g316
ssI349
(dp1223
g10
I349
sg11
g831
ssI350
(dp1224
g10
I350
sg11
g215
ssI351
(dp1225
g10
I351
sg11
g504
ssI352
(dp1226
g10
I352
sg11
g698
ssI353
(dp1227
g10
I353
sg11
g318
ssI354
(dp1228
g10
I354
sg11
g320
ssI355
(dp1229
g10
I355
sg11
g322
ssI356
(dp1230
g10
I356
sg11
g771
ssI357
(dp1231
g10
I357
sg11
g833
ssI358
(dp1232
g10
I358
sg11
g217
ssI359
(dp1233
g10
I359
sg11
g407
ssI360
(dp1234
g10
I360
sg11
g409
ssI361
(dp1235
g10
I361
sg11
g411
ssI362
(dp1236
g10
I362
sg11
g413
ssI363
(dp1237
g10
I363
sg11
g624
ssI364
(dp1238
g10
I364
sg11
g577
ssI365
(dp1239
g10
I365
sg11
g835
ssI366
(dp1240
g10
I366
sg11
g324
ssI367
(dp1241
g10
I367
sg11
g415
ssI368
(dp1242
g10
I368
sg11
g700
ssI369
(dp1243
g10
I369
sg11
g326
ssI370
(dp1244
g10
I370
sg11
g579
ssI371
(dp1245
g10
I371
sg11
g219
ssI372
(dp1246
g10
I372
sg11
g221
ssI373
(dp1247
g10
I373
sg11
g328
ssI374
(dp1248
g10
I374
sg11
g581
ssI375
(dp1249
g10
I375
sg11
g702
ssI376
(dp1250
g10
I376
sg11
g773
ssI377
(dp1251
g10
I377
sg11
g775
ssI378
(dp1252
g10
I378
sg11
g223
ssI379
(dp1253
g10
I379
sg11
g330
ssI380
(dp1254
g10
I380
sg11
g332
ssI381
(dp1255
g10
I381
sg11
g225
ssI382
(dp1256
g10
I382
sg11
g96
ssI383
(dp1257
g10
I383
sg11
g837
ssI384
(dp1258
g10
I384
sg11
g704
ssI385
(dp1259
g10
I385
sg11
g706
ssI386
(dp1260
g10
I386
sg11
g334
ssI387
(dp1261
g10
I387
sg11
g839
ssI388
(dp1262
g10
I388
sg11
g506
ssI389
(dp1263
g10
I389
sg11
g583
ssI390
(dp1264
g10
I390
sg11
g585
ssI391
(dp1265
g10
I391
sg11
g708
ssI392
(dp1266
g10
I392
sg11
g508
ssI393
(dp1267
g10
I393
sg11
g777
ssI394
(dp1268
g10
I394
sg11
g587
ssI395
(dp1269
g10
I395
sg11
g589
ssI396
(dp1270
g10
I396
sg11
g98
ssI397
(dp1271
g10
I397
sg11
g779
ssI398
(dp1272
g10
I398
sg11
g227
ssI399
(dp1273
g10
I399
sg11
g100
ssI400
(dp1274
g10
I400
sg11
g336
ssI401
(dp1275
g10
I401
sg11
g338
ssI402
(dp1276
g10
I402
sg11
g229
ssI403
(dp1277
g10
I403
sg11
g340
ssI404
(dp1278
g10
I404
sg11
g591
ssI405
(dp1279
g10
I405
sg11
g710
ssI406
(dp1280
g10
I406
sg11
g593
ssI407
(dp1281
g10
I407
sg11
g841
ssI408
(dp1282
g1
(lp1283
(dp1284
g10
I0
sg11
g12
sa(dp1285
g10
I4
sg11
g14
sa(dp1286
g10
I16
sg11
g16
sa(dp1287
g10
I26
sg11
g18
sa(dp1288
g10
I32
sg11
g20
sa(dp1289
g10
I51
sg11
g22
sa(dp1290
g10
I63
sg11
g24
sa(dp1291
g10
I68
sg11
g26
sa(dp1292
g10
I69
sg11
g28
sa(dp1293
g10
I70
sg11
g30
sa(dp1294
g10
I85
sg11
g32
sa(dp1295
g10
I125
sg11
g34
sa(dp1296
g10
I129
sg11
g36
sa(dp1297
g10
I130
sg11
g38
sa(dp1298
g10
I131
sg11
g40
sa(dp1299
g10
I149
sg11
g42
sa(dp1300
g10
I151
sg11
g44
sa(dp1301
g10
I159
sg11
g46
sa(dp1302
g10
I161
sg11
g48
sa(dp1303
g10
I162
sg11
g50
sa(dp1304
g10
I191
sg11
g52
sa(dp1305
g10
I195
sg11
g54
sa(dp1306
g10
I205
sg11
g56
sa(dp1307
g10
I206
sg11
g58
sa(dp1308
g10
I211
sg11
g60
sa(dp1309
g10
I216
sg11
g62
sa(dp1310
g10
I217
sg11
g64
sa(dp1311
g10
I224
sg11
g66
sa(dp1312
g10
I226
sg11
g68
sa(dp1313
g10
I230
sg11
g70
sa(dp1314
g10
I234
sg11
g72
sa(dp1315
g10
I247
sg11
g74
sa(dp1316
g10
I260
sg11
g76
sa(dp1317
g10
I267
sg11
g78
sa(dp1318
g10
I271
sg11
g80
sa(dp1319
g10
I272
sg11
g82
sa(dp1320
g10
I323
sg11
g84
sa(dp1321
g10
I328
sg11
g86
sa(dp1322
g10
I333
sg11
g88
sa(dp1323
g10
I337
sg11
g90
sa(dp1324
g10
I346
sg11
g92
sa(dp1325
g10
I347
sg11
g94
sa(dp1326
g10
I382
sg11
g96
sa(dp1327
g10
I396
sg11
g98
sa(dp1328
g10
I399
sg11
g100
sasg10
I408
sg11
g101
ssI409
(dp1329
g1
(lp1330
(dp1331
g10
I1
sg11
g105
sa(dp1332
g10
I20
sg11
g107
sa(dp1333
g10
I21
sg11
g109
sa(dp1334
g10
I27
sg11
g111
sa(dp1335
g10
I29
sg11
g113
sa(dp1336
g10
I34
sg11
g115
sa(dp1337
g10
I37
sg11
g117
sa(dp1338
g10
I38
sg11
g119
sa(dp1339
g10
I46
sg11
g121
sa(dp1340
g10
I64
sg11
g123
sa(dp1341
g10
I67
sg11
g125
sa(dp1342
g10
I73
sg11
g127
sa(dp1343
g10
I83
sg11
g129
sa(dp1344
g10
I99
sg11
g131
sa(dp1345
g10
I105
sg11
g133
sa(dp1346
g10
I107
sg11
g135
sa(dp1347
g10
I109
sg11
g137
sa(dp1348
g10
I110
sg11
g139
sa(dp1349
g10
I111
sg11
g141
sa(dp1350
g10
I132
sg11
g143
sa(dp1351
g10
I133
sg11
g145
sa(dp1352
g10
I153
sg11
g147
sa(dp1353
g10
I158
sg11
g149
sa(dp1354
g10
I165
sg11
g151
sa(dp1355
g10
I169
sg11
g153
sa(dp1356
g10
I174
sg11
g155
sa(dp1357
g10
I196
sg11
g157
sa(dp1358
g10
I197
sg11
g159
sa(dp1359
g10
I201
sg11
g161
sa(dp1360
g10
I202
sg11
g163
sa(dp1361
g10
I203
sg11
g165
sa(dp1362
g10
I208
sg11
g167
sa(dp1363
g10
I212
sg11
g169
sa(dp1364
g10
I213
sg11
g171
sa(dp1365
g10
I219
sg11
g173
sa(dp1366
g10
I220
sg11
g175
sa(dp1367
g10
I221
sg11
g177
sa(dp1368
g10
I240
sg11
g179
sa(dp1369
g10
I255
sg11
g181
sa(dp1370
g10
I257
sg11
g183
sa(dp1371
g10
I259
sg11
g185
sa(dp1372
g10
I263
sg11
g187
sa(dp1373
g10
I270
sg11
g189
sa(dp1374
g10
I273
sg11
g191
sa(dp1375
g10
I279
sg11
g193
sa(dp1376
g10
I288
sg11
g195
sa(dp1377
g10
I298
sg11
g197
sa(dp1378
g10
I299
sg11
g199
sa(dp1379
g10
I313
sg11
g201
sa(dp1380
g10
I319
sg11
g203
sa(dp1381
g10
I320
sg11
g205
sa(dp1382
g10
I329
sg11
g207
sa(dp1383
g10
I339
sg11
g209
sa(dp1384
g10
I342
sg11
g211
sa(dp1385
g10
I344
sg11
g213
sa(dp1386
g10
I350
sg11
g215
sa(dp1387
g10
I358
sg11
g217
sa(dp1388
g10
I371
sg11
g219
sa(dp1389
g10
I372
sg11
g221
sa(dp1390
g10
I378
sg11
g223
sa(dp1391
g10
I381
sg11
g225
sa(dp1392
g10
I398
sg11
g227
sa(dp1393
g10
I402
sg11
g229
sasg10
I409
sg11
g230
ssI410
(dp1394
g1
(lp1395
(dp1396
g10
I2
sg11
g351
sa(dp1397
g10
I42
sg11
g353
sa(dp1398
g10
I54
sg11
g355
sa(dp1399
g10
I62
sg11
g357
sa(dp1400
g10
I75
sg11
g359
sa(dp1401
g10
I80
sg11
g361
sa(dp1402
g10
I93
sg11
g363
sa(dp1403
g10
I96
sg11
g365
sa(dp1404
g10
I97
sg11
g367
sa(dp1405
g10
I127
sg11
g369
sa(dp1406
g10
I137
sg11
g371
sa(dp1407
g10
I157
sg11
g373
sa(dp1408
g10
I160
sg11
g375
sa(dp1409
g10
I177
sg11
g377
sa(dp1410
g10
I181
sg11
g379
sa(dp1411
g10
I187
sg11
g381
sa(dp1412
g10
I207
sg11
g383
sa(dp1413
g10
I232
sg11
g385
sa(dp1414
g10
I233
sg11
g387
sa(dp1415
g10
I241
sg11
g389
sa(dp1416
g10
I242
sg11
g391
sa(dp1417
g10
I243
sg11
g393
sa(dp1418
g10
I252
sg11
g395
sa(dp1419
g10
I268
sg11
g397
sa(dp1420
g10
I287
sg11
g399
sa(dp1421
g10
I303
sg11
g401
sa(dp1422
g10
I310
sg11
g403
sa(dp1423
g10
I317
sg11
g405
sa(dp1424
g10
I359
sg11
g407
sa(dp1425
g10
I360
sg11
g409
sa(dp1426
g10
I361
sg11
g411
sa(dp1427
g10
I362
sg11
g413
sa(dp1428
g10
I367
sg11
g415
sasg10
I410
sg11
g416
ssI411
(dp1429
g1
(lp1430
(dp1431
g10
I3
sg11
g234
sa(dp1432
g10
I9
sg11
g236
sa(dp1433
g10
I11
sg11
g238
sa(dp1434
g10
I13
sg11
g240
sa(dp1435
g10
I33
sg11
g242
sa(dp1436
g10
I36
sg11
g244
sa(dp1437
g10
I41
sg11
g246
sa(dp1438
g10
I52
sg11
g248
sa(dp1439
g10
I59
sg11
g250
sa(dp1440
g10
I95
sg11
g252
sa(dp1441
g10
I98
sg11
g254
sa(dp1442
g10
I103
sg11
g256
sa(dp1443
g10
I108
sg11
g258
sa(dp1444
g10
I114
sg11
g260
sa(dp1445
g10
I123
sg11
g262
sa(dp1446
g10
I128
sg11
g264
sa(dp1447
g10
I134
sg11
g266
sa(dp1448
g10
I143
sg11
g268
sa(dp1449
g10
I156
sg11
g270
sa(dp1450
g10
I164
sg11
g272
sa(dp1451
g10
I182
sg11
g274
sa(dp1452
g10
I188
sg11
g276
sa(dp1453
g10
I192
sg11
g278
sa(dp1454
g10
I194
sg11
g280
sa(dp1455
g10
I198
sg11
g282
sa(dp1456
g10
I199
sg11
g284
sa(dp1457
g10
I209
sg11
g286
sa(dp1458
g10
I214
sg11
g288
sa(dp1459
g10
I245
sg11
g290
sa(dp1460
g10
I249
sg11
g292
sa(dp1461
g10
I250
sg11
g294
sa(dp1462
g10
I258
sg11
g296
sa(dp1463
g10
I275
sg11
g298
sa(dp1464
g10
I278
sg11
g300
sa(dp1465
g10
I291
sg11
g302
sa(dp1466
g10
I307
sg11
g304
sa(dp1467
g10
I308
sg11
g306
sa(dp1468
g10
I309
sg11
g308
sa(dp1469
g10
I312
sg11
g310
sa(dp1470
g10
I327
sg11
g312
sa(dp1471
g10
I332
sg11
g314
sa(dp1472
g10
I348
sg11
g316
sa(dp1473
g10
I353
sg11
g318
sa(dp1474
g10
I354
sg11
g320
sa(dp1475
g10
I355
sg11
g322
sa(dp1476
g10
I366
sg11
g324
sa(dp1477
g10
I369
sg11
g326
sa(dp1478
g10
I373
sg11
g328
sa(dp1479
g10
I379
sg11
g330
sa(dp1480
g10
I380
sg11
g332
sa(dp1481
g10
I386
sg11
g334
sa(dp1482
g10
I400
sg11
g336
sa(dp1483
g10
I401
sg11
g338
sa(dp1484
g10
I403
sg11
g340
sasg10
I411
sg11
g341
ssI412
(dp1485
g1
(lp1486
(dp1487
g10
I5
sg11
g632
sa(dp1488
g10
I12
sg11
g634
sa(dp1489
g10
I14
sg11
g636
sa(dp1490
g10
I15
sg11
g638
sa(dp1491
g10
I18
sg11
g640
sa(dp1492
g10
I22
sg11
g642
sa(dp1493
g10
I28
sg11
g644
sa(dp1494
g10
I39
sg11
g646
sa(dp1495
g10
I43
sg11
g648
sa(dp1496
g10
I53
sg11
g650
sa(dp1497
g10
I72
sg11
g652
sa(dp1498
g10
I76
sg11
g654
sa(dp1499
g10
I77
sg11
g656
sa(dp1500
g10
I106
sg11
g658
sa(dp1501
g10
I120
sg11
g660
sa(dp1502
g10
I148
sg11
g662
sa(dp1503
g10
I154
sg11
g664
sa(dp1504
g10
I170
sg11
g666
sa(dp1505
g10
I178
sg11
g668
sa(dp1506
g10
I185
sg11
g670
sa(dp1507
g10
I190
sg11
g672
sa(dp1508
g10
I215
sg11
g674
sa(dp1509
g10
I238
sg11
g676
sa(dp1510
g10
I264
sg11
g678
sa(dp1511
g10
I282
sg11
g680
sa(dp1512
g10
I283
sg11
g682
sa(dp1513
g10
I285
sg11
g684
sa(dp1514
g10
I292
sg11
g686
sa(dp1515
g10
I295
sg11
g688
sa(dp1516
g10
I311
sg11
g690
sa(dp1517
g10
I335
sg11
g692
sa(dp1518
g10
I340
sg11
g694
sa(dp1519
g10
I341
sg11
g696
sa(dp1520
g10
I352
sg11
g698
sa(dp1521
g10
I368
sg11
g700
sa(dp1522
g10
I375
sg11
g702
sa(dp1523
g10
I384
sg11
g704
sa(dp1524
g10
I385
sg11
g706
sa(dp1525
g10
I391
sg11
g708
sa(dp1526
g10
I405
sg11
g710
sasg10
I412
sg11
g711
ssI413
(dp1527
g1
(lp1528
(dp1529
g10
I6
sg11
g420
sa(dp1530
g10
I23
sg11
g422
sa(dp1531
g10
I25
sg11
g424
sa(dp1532
g10
I44
sg11
g426
sa(dp1533
g10
I56
sg11
g428
sa(dp1534
g10
I58
sg11
g430
sa(dp1535
g10
I81
sg11
g432
sa(dp1536
g10
I82
sg11
g434
sa(dp1537
g10
I88
sg11
g436
sa(dp1538
g10
I89
sg11
g438
sa(dp1539
g10
I91
sg11
g440
sa(dp1540
g10
I112
sg11
g442
sa(dp1541
g10
I113
sg11
g444
sa(dp1542
g10
I124
sg11
g446
sa(dp1543
g10
I139
sg11
g448
sa(dp1544
g10
I140
sg11
g450
sa(dp1545
g10
I147
sg11
g452
sa(dp1546
g10
I166
sg11
g454
sa(dp1547
g10
I176
sg11
g456
sa(dp1548
g10
I180
sg11
g458
sa(dp1549
g10
I183
sg11
g460
sa(dp1550
g10
I186
sg11
g462
sa(dp1551
g10
I218
sg11
g464
sa(dp1552
g10
I222
sg11
g466
sa(dp1553
g10
I235
sg11
g468
sa(dp1554
g10
I246
sg11
g470
sa(dp1555
g10
I248
sg11
g472
sa(dp1556
g10
I253
sg11
g474
sa(dp1557
g10
I256
sg11
g476
sa(dp1558
g10
I265
sg11
g478
sa(dp1559
g10
I269
sg11
g480
sa(dp1560
g10
I274
sg11
g482
sa(dp1561
g10
I301
sg11
g484
sa(dp1562
g10
I304
sg11
g486
sa(dp1563
g10
I306
sg11
g488
sa(dp1564
g10
I315
sg11
g490
sa(dp1565
g10
I316
sg11
g492
sa(dp1566
g10
I321
sg11
g494
sa(dp1567
g10
I322
sg11
g496
sa(dp1568
g10
I325
sg11
g498
sa(dp1569
g10
I326
sg11
g500
sa(dp1570
g10
I343
sg11
g502
sa(dp1571
g10
I351
sg11
g504
sa(dp1572
g10
I388
sg11
g506
sa(dp1573
g10
I392
sg11
g508
sasg10
I413
sg11
g509
ssI414
(dp1574
g1
(lp1575
(dp1576
g10
I7
sg11
g513
sa(dp1577
g10
I19
sg11
g515
sa(dp1578
g10
I35
sg11
g517
sa(dp1579
g10
I40
sg11
g519
sa(dp1580
g10
I55
sg11
g521
sa(dp1581
g10
I78
sg11
g523
sa(dp1582
g10
I90
sg11
g525
sa(dp1583
g10
I126
sg11
g527
sa(dp1584
g10
I135
sg11
g529
sa(dp1585
g10
I136
sg11
g531
sa(dp1586
g10
I144
sg11
g533
sa(dp1587
g10
I145
sg11
g535
sa(dp1588
g10
I146
sg11
g537
sa(dp1589
g10
I163
sg11
g539
sa(dp1590
g10
I184
sg11
g541
sa(dp1591
g10
I189
sg11
g543
sa(dp1592
g10
I223
sg11
g545
sa(dp1593
g10
I231
sg11
g547
sa(dp1594
g10
I236
sg11
g549
sa(dp1595
g10
I237
sg11
g551
sa(dp1596
g10
I244
sg11
g553
sa(dp1597
g10
I251
sg11
g555
sa(dp1598
g10
I254
sg11
g557
sa(dp1599
g10
I280
sg11
g559
sa(dp1600
g10
I284
sg11
g561
sa(dp1601
g10
I290
sg11
g563
sa(dp1602
g10
I300
sg11
g565
sa(dp1603
g10
I314
sg11
g567
sa(dp1604
g10
I330
sg11
g569
sa(dp1605
g10
I334
sg11
g571
sa(dp1606
g10
I336
sg11
g573
sa(dp1607
g10
I345
sg11
g575
sa(dp1608
g10
I364
sg11
g577
sa(dp1609
g10
I370
sg11
g579
sa(dp1610
g10
I374
sg11
g581
sa(dp1611
g10
I389
sg11
g583
sa(dp1612
g10
I390
sg11
g585
sa(dp1613
g10
I394
sg11
g587
sa(dp1614
g10
I395
sg11
g589
sa(dp1615
g10
I404
sg11
g591
sa(dp1616
g10
I406
sg11
g593
sasg10
I414
sg11
g594
ssI415
(dp1617
g1
(lp1618
(dp1619
g10
I8
sg11
g787
sa(dp1620
g10
I50
sg11
g789
sa(dp1621
g10
I86
sg11
g791
sa(dp1622
g10
I101
sg11
g793
sa(dp1623
g10
I115
sg11
g795
sa(dp1624
g10
I116
sg11
g797
sa(dp1625
g10
I117
sg11
g799
sa(dp1626
g10
I118
sg11
g801
sa(dp1627
g10
I142
sg11
g803
sa(dp1628
g10
I167
sg11
g805
sa(dp1629
g10
I168
sg11
g807
sa(dp1630
g10
I175
sg11
g809
sa(dp1631
g10
I227
sg11
g811
sa(dp1632
g10
I266
sg11
g813
sa(dp1633
g10
I286
sg11
g815
sa(dp1634
g10
I289
sg11
g817
sa(dp1635
g10
I293
sg11
g819
sa(dp1636
g10
I297
sg11
g821
sa(dp1637
g10
I302
sg11
g823
sa(dp1638
g10
I324
sg11
g825
sa(dp1639
g10
I331
sg11
g827
sa(dp1640
g10
I338
sg11
g829
sa(dp1641
g10
I349
sg11
g831
sa(dp1642
g10
I357
sg11
g833
sa(dp1643
g10
I365
sg11
g835
sa(dp1644
g10
I383
sg11
g837
sa(dp1645
g10
I387
sg11
g839
sa(dp1646
g10
I407
sg11
g841
sasg10
I415
sg11
g842
ssI416
(dp1647
g1
(lp1648
(dp1649
g10
I10
sg11
g846
sa(dp1650
g10
I17
sg11
g848
sa(dp1651
g10
I49
sg11
g850
sa(dp1652
g10
I60
sg11
g852
sa(dp1653
g10
I61
sg11
g854
sa(dp1654
g10
I66
sg11
g856
sa(dp1655
g10
I87
sg11
g858
sa(dp1656
g10
I104
sg11
g860
sa(dp1657
g10
I173
sg11
g862
sa(dp1658
g10
I179
sg11
g864
sa(dp1659
g10
I276
sg11
g866
sa(dp1660
g10
I318
sg11
g868
sasg10
I416
sg11
g869
ssI417
(dp1661
g1
(lp1662
(dp1663
g10
I24
sg11
g715
sa(dp1664
g10
I30
sg11
g717
sa(dp1665
g10
I31
sg11
g719
sa(dp1666
g10
I45
sg11
g721
sa(dp1667
g10
I47
sg11
g723
sa(dp1668
g10
I48
sg11
g725
sa(dp1669
g10
I57
sg11
g727
sa(dp1670
g10
I71
sg11
g729
sa(dp1671
g10
I79
sg11
g731
sa(dp1672
g10
I84
sg11
g733
sa(dp1673
g10
I92
sg11
g735
sa(dp1674
g10
I94
sg11
g737
sa(dp1675
g10
I100
sg11
g739
sa(dp1676
g10
I119
sg11
g741
sa(dp1677
g10
I121
sg11
g743
sa(dp1678
g10
I122
sg11
g745
sa(dp1679
g10
I138
sg11
g747
sa(dp1680
g10
I152
sg11
g749
sa(dp1681
g10
I171
sg11
g751
sa(dp1682
g10
I172
sg11
g753
sa(dp1683
g10
I200
sg11
g755
sa(dp1684
g10
I228
sg11
g757
sa(dp1685
g10
I262
sg11
g759
sa(dp1686
g10
I277
sg11
g761
sa(dp1687
g10
I281
sg11
g763
sa(dp1688
g10
I294
sg11
g765
sa(dp1689
g10
I296
sg11
g767
sa(dp1690
g10
I305
sg11
g769
sa(dp1691
g10
I356
sg11
g771
sa(dp1692
g10
I376
sg11
g773
sa(dp1693
g10
I377
sg11
g775
sa(dp1694
g10
I393
sg11
g777
sa(dp1695
g10
I397
sg11
g779
sasg10
I417
sg11
g780
ssI418
(dp1696
g1
(lp1697
(dp1698
g10
I65
sg11
g598
sa(dp1699
g10
I74
sg11
g600
sa(dp1700
g10
I102
sg11
g602
sa(dp1701
g10
I141
sg11
g604
sa(dp1702
g10
I150
sg11
g606
sa(dp1703
g10
I155
sg11
g608
sa(dp1704
g10
I193
sg11
g610
sa(dp1705
g10
I204
sg11
g612
sa(dp1706
g10
I210
sg11
g614
sa(dp1707
g10
I225
sg11
g616
sa(dp1708
g10
I229
sg11
g618
sa(dp1709
g10
I239
sg11
g620
sa(dp1710
g10
I261
sg11
g622
sa(dp1711
g10
I363
sg11
g624
sasg10
I418
sg11
g625
ssI419
(dp1712
g1
(lp1713
(dp1714
g1
(lp1715
(dp1716
g10
I0
sg11
g12
sa(dp1717
g10
I4
sg11
g14
sa(dp1718
g10
I16
sg11
g16
sa(dp1719
g10
I26
sg11
g18
sa(dp1720
g10
I32
sg11
g20
sa(dp1721
g10
I51
sg11
g22
sa(dp1722
g10
I63
sg11
g24
sa(dp1723
g10
I68
sg11
g26
sa(dp1724
g10
I69
sg11
g28
sa(dp1725
g10
I70
sg11
g30
sa(dp1726
g10
I85
sg11
g32
sa(dp1727
g10
I125
sg11
g34
sa(dp1728
g10
I129
sg11
g36
sa(dp1729
g10
I130
sg11
g38
sa(dp1730
g10
I131
sg11
g40
sa(dp1731
g10
I149
sg11
g42
sa(dp1732
g10
I151
sg11
g44
sa(dp1733
g10
I159
sg11
g46
sa(dp1734
g10
I161
sg11
g48
sa(dp1735
g10
I162
sg11
g50
sa(dp1736
g10
I191
sg11
g52
sa(dp1737
g10
I195
sg11
g54
sa(dp1738
g10
I205
sg11
g56
sa(dp1739
g10
I206
sg11
g58
sa(dp1740
g10
I211
sg11
g60
sa(dp1741
g10
I216
sg11
g62
sa(dp1742
g10
I217
sg11
g64
sa(dp1743
g10
I224
sg11
g66
sa(dp1744
g10
I226
sg11
g68
sa(dp1745
g10
I230
sg11
g70
sa(dp1746
g10
I234
sg11
g72
sa(dp1747
g10
I247
sg11
g74
sa(dp1748
g10
I260
sg11
g76
sa(dp1749
g10
I267
sg11
g78
sa(dp1750
g10
I271
sg11
g80
sa(dp1751
g10
I272
sg11
g82
sa(dp1752
g10
I323
sg11
g84
sa(dp1753
g10
I328
sg11
g86
sa(dp1754
g10
I333
sg11
g88
sa(dp1755
g10
I337
sg11
g90
sa(dp1756
g10
I346
sg11
g92
sa(dp1757
g10
I347
sg11
g94
sa(dp1758
g10
I382
sg11
g96
sa(dp1759
g10
I396
sg11
g98
sa(dp1760
g10
I399
sg11
g100
sasg10
I408
sg11
g101
sa(dp1761
g1
(lp1762
(dp1763
g10
I1
sg11
g105
sa(dp1764
g10
I20
sg11
g107
sa(dp1765
g10
I21
sg11
g109
sa(dp1766
g10
I27
sg11
g111
sa(dp1767
g10
I29
sg11
g113
sa(dp1768
g10
I34
sg11
g115
sa(dp1769
g10
I37
sg11
g117
sa(dp1770
g10
I38
sg11
g119
sa(dp1771
g10
I46
sg11
g121
sa(dp1772
g10
I64
sg11
g123
sa(dp1773
g10
I67
sg11
g125
sa(dp1774
g10
I73
sg11
g127
sa(dp1775
g10
I83
sg11
g129
sa(dp1776
g10
I99
sg11
g131
sa(dp1777
g10
I105
sg11
g133
sa(dp1778
g10
I107
sg11
g135
sa(dp1779
g10
I109
sg11
g137
sa(dp1780
g10
I110
sg11
g139
sa(dp1781
g10
I111
sg11
g141
sa(dp1782
g10
I132
sg11
g143
sa(dp1783
g10
I133
sg11
g145
sa(dp1784
g10
I153
sg11
g147
sa(dp1785
g10
I158
sg11
g149
sa(dp1786
g10
I165
sg11
g151
sa(dp1787
g10
I169
sg11
g153
sa(dp1788
g10
I174
sg11
g155
sa(dp1789
g10
I196
sg11
g157
sa(dp1790
g10
I197
sg11
g159
sa(dp1791
g10
I201
sg11
g161
sa(dp1792
g10
I202
sg11
g163
sa(dp1793
g10
I203
sg11
g165
sa(dp1794
g10
I208
sg11
g167
sa(dp1795
g10
I212
sg11
g169
sa(dp1796
g10
I213
sg11
g171
sa(dp1797
g10
I219
sg11
g173
sa(dp1798
g10
I220
sg11
g175
sa(dp1799
g10
I221
sg11
g177
sa(dp1800
g10
I240
sg11
g179
sa(dp1801
g10
I255
sg11
g181
sa(dp1802
g10
I257
sg11
g183
sa(dp1803
g10
I259
sg11
g185
sa(dp1804
g10
I263
sg11
g187
sa(dp1805
g10
I270
sg11
g189
sa(dp1806
g10
I273
sg11
g191
sa(dp1807
g10
I279
sg11
g193
sa(dp1808
g10
I288
sg11
g195
sa(dp1809
g10
I298
sg11
g197
sa(dp1810
g10
I299
sg11
g199
sa(dp1811
g10
I313
sg11
g201
sa(dp1812
g10
I319
sg11
g203
sa(dp1813
g10
I320
sg11
g205
sa(dp1814
g10
I329
sg11
g207
sa(dp1815
g10
I339
sg11
g209
sa(dp1816
g10
I342
sg11
g211
sa(dp1817
g10
I344
sg11
g213
sa(dp1818
g10
I350
sg11
g215
sa(dp1819
g10
I358
sg11
g217
sa(dp1820
g10
I371
sg11
g219
sa(dp1821
g10
I372
sg11
g221
sa(dp1822
g10
I378
sg11
g223
sa(dp1823
g10
I381
sg11
g225
sa(dp1824
g10
I398
sg11
g227
sa(dp1825
g10
I402
sg11
g229
sasg10
I409
sg11
g230
sa(dp1826
g1
(lp1827
(dp1828
g10
I3
sg11
g234
sa(dp1829
g10
I9
sg11
g236
sa(dp1830
g10
I11
sg11
g238
sa(dp1831
g10
I13
sg11
g240
sa(dp1832
g10
I33
sg11
g242
sa(dp1833
g10
I36
sg11
g244
sa(dp1834
g10
I41
sg11
g246
sa(dp1835
g10
I52
sg11
g248
sa(dp1836
g10
I59
sg11
g250
sa(dp1837
g10
I95
sg11
g252
sa(dp1838
g10
I98
sg11
g254
sa(dp1839
g10
I103
sg11
g256
sa(dp1840
g10
I108
sg11
g258
sa(dp1841
g10
I114
sg11
g260
sa(dp1842
g10
I123
sg11
g262
sa(dp1843
g10
I128
sg11
g264
sa(dp1844
g10
I134
sg11
g266
sa(dp1845
g10
I143
sg11
g268
sa(dp1846
g10
I156
sg11
g270
sa(dp1847
g10
I164
sg11
g272
sa(dp1848
g10
I182
sg11
g274
sa(dp1849
g10
I188
sg11
g276
sa(dp1850
g10
I192
sg11
g278
sa(dp1851
g10
I194
sg11
g280
sa(dp1852
g10
I198
sg11
g282
sa(dp1853
g10
I199
sg11
g284
sa(dp1854
g10
I209
sg11
g286
sa(dp1855
g10
I214
sg11
g288
sa(dp1856
g10
I245
sg11
g290
sa(dp1857
g10
I249
sg11
g292
sa(dp1858
g10
I250
sg11
g294
sa(dp1859
g10
I258
sg11
g296
sa(dp1860
g10
I275
sg11
g298
sa(dp1861
g10
I278
sg11
g300
sa(dp1862
g10
I291
sg11
g302
sa(dp1863
g10
I307
sg11
g304
sa(dp1864
g10
I308
sg11
g306
sa(dp1865
g10
I309
sg11
g308
sa(dp1866
g10
I312
sg11
g310
sa(dp1867
g10
I327
sg11
g312
sa(dp1868
g10
I332
sg11
g314
sa(dp1869
g10
I348
sg11
g316
sa(dp1870
g10
I353
sg11
g318
sa(dp1871
g10
I354
sg11
g320
sa(dp1872
g10
I355
sg11
g322
sa(dp1873
g10
I366
sg11
g324
sa(dp1874
g10
I369
sg11
g326
sa(dp1875
g10
I373
sg11
g328
sa(dp1876
g10
I379
sg11
g330
sa(dp1877
g10
I380
sg11
g332
sa(dp1878
g10
I386
sg11
g334
sa(dp1879
g10
I400
sg11
g336
sa(dp1880
g10
I401
sg11
g338
sa(dp1881
g10
I403
sg11
g340
sasg10
I411
sg11
g341
sasg10
I419
sg11
g342
ssI420
(dp1882
g1
(lp1883
(dp1884
g1
(lp1885
(dp1886
g10
I2
sg11
g351
sa(dp1887
g10
I42
sg11
g353
sa(dp1888
g10
I54
sg11
g355
sa(dp1889
g10
I62
sg11
g357
sa(dp1890
g10
I75
sg11
g359
sa(dp1891
g10
I80
sg11
g361
sa(dp1892
g10
I93
sg11
g363
sa(dp1893
g10
I96
sg11
g365
sa(dp1894
g10
I97
sg11
g367
sa(dp1895
g10
I127
sg11
g369
sa(dp1896
g10
I137
sg11
g371
sa(dp1897
g10
I157
sg11
g373
sa(dp1898
g10
I160
sg11
g375
sa(dp1899
g10
I177
sg11
g377
sa(dp1900
g10
I181
sg11
g379
sa(dp1901
g10
I187
sg11
g381
sa(dp1902
g10
I207
sg11
g383
sa(dp1903
g10
I232
sg11
g385
sa(dp1904
g10
I233
sg11
g387
sa(dp1905
g10
I241
sg11
g389
sa(dp1906
g10
I242
sg11
g391
sa(dp1907
g10
I243
sg11
g393
sa(dp1908
g10
I252
sg11
g395
sa(dp1909
g10
I268
sg11
g397
sa(dp1910
g10
I287
sg11
g399
sa(dp1911
g10
I303
sg11
g401
sa(dp1912
g10
I310
sg11
g403
sa(dp1913
g10
I317
sg11
g405
sa(dp1914
g10
I359
sg11
g407
sa(dp1915
g10
I360
sg11
g409
sa(dp1916
g10
I361
sg11
g411
sa(dp1917
g10
I362
sg11
g413
sa(dp1918
g10
I367
sg11
g415
sasg10
I410
sg11
g416
sa(dp1919
g1
(lp1920
(dp1921
g10
I6
sg11
g420
sa(dp1922
g10
I23
sg11
g422
sa(dp1923
g10
I25
sg11
g424
sa(dp1924
g10
I44
sg11
g426
sa(dp1925
g10
I56
sg11
g428
sa(dp1926
g10
I58
sg11
g430
sa(dp1927
g10
I81
sg11
g432
sa(dp1928
g10
I82
sg11
g434
sa(dp1929
g10
I88
sg11
g436
sa(dp1930
g10
I89
sg11
g438
sa(dp1931
g10
I91
sg11
g440
sa(dp1932
g10
I112
sg11
g442
sa(dp1933
g10
I113
sg11
g444
sa(dp1934
g10
I124
sg11
g446
sa(dp1935
g10
I139
sg11
g448
sa(dp1936
g10
I140
sg11
g450
sa(dp1937
g10
I147
sg11
g452
sa(dp1938
g10
I166
sg11
g454
sa(dp1939
g10
I176
sg11
g456
sa(dp1940
g10
I180
sg11
g458
sa(dp1941
g10
I183
sg11
g460
sa(dp1942
g10
I186
sg11
g462
sa(dp1943
g10
I218
sg11
g464
sa(dp1944
g10
I222
sg11
g466
sa(dp1945
g10
I235
sg11
g468
sa(dp1946
g10
I246
sg11
g470
sa(dp1947
g10
I248
sg11
g472
sa(dp1948
g10
I253
sg11
g474
sa(dp1949
g10
I256
sg11
g476
sa(dp1950
g10
I265
sg11
g478
sa(dp1951
g10
I269
sg11
g480
sa(dp1952
g10
I274
sg11
g482
sa(dp1953
g10
I301
sg11
g484
sa(dp1954
g10
I304
sg11
g486
sa(dp1955
g10
I306
sg11
g488
sa(dp1956
g10
I315
sg11
g490
sa(dp1957
g10
I316
sg11
g492
sa(dp1958
g10
I321
sg11
g494
sa(dp1959
g10
I322
sg11
g496
sa(dp1960
g10
I325
sg11
g498
sa(dp1961
g10
I326
sg11
g500
sa(dp1962
g10
I343
sg11
g502
sa(dp1963
g10
I351
sg11
g504
sa(dp1964
g10
I388
sg11
g506
sa(dp1965
g10
I392
sg11
g508
sasg10
I413
sg11
g509
sa(dp1966
g1
(lp1967
(dp1968
g10
I7
sg11
g513
sa(dp1969
g10
I19
sg11
g515
sa(dp1970
g10
I35
sg11
g517
sa(dp1971
g10
I40
sg11
g519
sa(dp1972
g10
I55
sg11
g521
sa(dp1973
g10
I78
sg11
g523
sa(dp1974
g10
I90
sg11
g525
sa(dp1975
g10
I126
sg11
g527
sa(dp1976
g10
I135
sg11
g529
sa(dp1977
g10
I136
sg11
g531
sa(dp1978
g10
I144
sg11
g533
sa(dp1979
g10
I145
sg11
g535
sa(dp1980
g10
I146
sg11
g537
sa(dp1981
g10
I163
sg11
g539
sa(dp1982
g10
I184
sg11
g541
sa(dp1983
g10
I189
sg11
g543
sa(dp1984
g10
I223
sg11
g545
sa(dp1985
g10
I231
sg11
g547
sa(dp1986
g10
I236
sg11
g549
sa(dp1987
g10
I237
sg11
g551
sa(dp1988
g10
I244
sg11
g553
sa(dp1989
g10
I251
sg11
g555
sa(dp1990
g10
I254
sg11
g557
sa(dp1991
g10
I280
sg11
g559
sa(dp1992
g10
I284
sg11
g561
sa(dp1993
g10
I290
sg11
g563
sa(dp1994
g10
I300
sg11
g565
sa(dp1995
g10
I314
sg11
g567
sa(dp1996
g10
I330
sg11
g569
sa(dp1997
g10
I334
sg11
g571
sa(dp1998
g10
I336
sg11
g573
sa(dp1999
g10
I345
sg11
g575
sa(dp2000
g10
I364
sg11
g577
sa(dp2001
g10
I370
sg11
g579
sa(dp2002
g10
I374
sg11
g581
sa(dp2003
g10
I389
sg11
g583
sa(dp2004
g10
I390
sg11
g585
sa(dp2005
g10
I394
sg11
g587
sa(dp2006
g10
I395
sg11
g589
sa(dp2007
g10
I404
sg11
g591
sa(dp2008
g10
I406
sg11
g593
sasg10
I414
sg11
g594
sa(dp2009
g1
(lp2010
(dp2011
g10
I65
sg11
g598
sa(dp2012
g10
I74
sg11
g600
sa(dp2013
g10
I102
sg11
g602
sa(dp2014
g10
I141
sg11
g604
sa(dp2015
g10
I150
sg11
g606
sa(dp2016
g10
I155
sg11
g608
sa(dp2017
g10
I193
sg11
g610
sa(dp2018
g10
I204
sg11
g612
sa(dp2019
g10
I210
sg11
g614
sa(dp2020
g10
I225
sg11
g616
sa(dp2021
g10
I229
sg11
g618
sa(dp2022
g10
I239
sg11
g620
sa(dp2023
g10
I261
sg11
g622
sa(dp2024
g10
I363
sg11
g624
sasg10
I418
sg11
g625
sasg10
I420
sg11
g626
ssI421
(dp2025
g1
(lp2026
(dp2027
g1
(lp2028
(dp2029
g10
I5
sg11
g632
sa(dp2030
g10
I12
sg11
g634
sa(dp2031
g10
I14
sg11
g636
sa(dp2032
g10
I15
sg11
g638
sa(dp2033
g10
I18
sg11
g640
sa(dp2034
g10
I22
sg11
g642
sa(dp2035
g10
I28
sg11
g644
sa(dp2036
g10
I39
sg11
g646
sa(dp2037
g10
I43
sg11
g648
sa(dp2038
g10
I53
sg11
g650
sa(dp2039
g10
I72
sg11
g652
sa(dp2040
g10
I76
sg11
g654
sa(dp2041
g10
I77
sg11
g656
sa(dp2042
g10
I106
sg11
g658
sa(dp2043
g10
I120
sg11
g660
sa(dp2044
g10
I148
sg11
g662
sa(dp2045
g10
I154
sg11
g664
sa(dp2046
g10
I170
sg11
g666
sa(dp2047
g10
I178
sg11
g668
sa(dp2048
g10
I185
sg11
g670
sa(dp2049
g10
I190
sg11
g672
sa(dp2050
g10
I215
sg11
g674
sa(dp2051
g10
I238
sg11
g676
sa(dp2052
g10
I264
sg11
g678
sa(dp2053
g10
I282
sg11
g680
sa(dp2054
g10
I283
sg11
g682
sa(dp2055
g10
I285
sg11
g684
sa(dp2056
g10
I292
sg11
g686
sa(dp2057
g10
I295
sg11
g688
sa(dp2058
g10
I311
sg11
g690
sa(dp2059
g10
I335
sg11
g692
sa(dp2060
g10
I340
sg11
g694
sa(dp2061
g10
I341
sg11
g696
sa(dp2062
g10
I352
sg11
g698
sa(dp2063
g10
I368
sg11
g700
sa(dp2064
g10
I375
sg11
g702
sa(dp2065
g10
I384
sg11
g704
sa(dp2066
g10
I385
sg11
g706
sa(dp2067
g10
I391
sg11
g708
sa(dp2068
g10
I405
sg11
g710
sasg10
I412
sg11
g711
sa(dp2069
g1
(lp2070
(dp2071
g10
I24
sg11
g715
sa(dp2072
g10
I30
sg11
g717
sa(dp2073
g10
I31
sg11
g719
sa(dp2074
g10
I45
sg11
g721
sa(dp2075
g10
I47
sg11
g723
sa(dp2076
g10
I48
sg11
g725
sa(dp2077
g10
I57
sg11
g727
sa(dp2078
g10
I71
sg11
g729
sa(dp2079
g10
I79
sg11
g731
sa(dp2080
g10
I84
sg11
g733
sa(dp2081
g10
I92
sg11
g735
sa(dp2082
g10
I94
sg11
g737
sa(dp2083
g10
I100
sg11
g739
sa(dp2084
g10
I119
sg11
g741
sa(dp2085
g10
I121
sg11
g743
sa(dp2086
g10
I122
sg11
g745
sa(dp2087
g10
I138
sg11
g747
sa(dp2088
g10
I152
sg11
g749
sa(dp2089
g10
I171
sg11
g751
sa(dp2090
g10
I172
sg11
g753
sa(dp2091
g10
I200
sg11
g755
sa(dp2092
g10
I228
sg11
g757
sa(dp2093
g10
I262
sg11
g759
sa(dp2094
g10
I277
sg11
g761
sa(dp2095
g10
I281
sg11
g763
sa(dp2096
g10
I294
sg11
g765
sa(dp2097
g10
I296
sg11
g767
sa(dp2098
g10
I305
sg11
g769
sa(dp2099
g10
I356
sg11
g771
sa(dp2100
g10
I376
sg11
g773
sa(dp2101
g10
I377
sg11
g775
sa(dp2102
g10
I393
sg11
g777
sa(dp2103
g10
I397
sg11
g779
sasg10
I417
sg11
g780
sasg10
I421
sg11
g781
ssI422
(dp2104
g1
(lp2105
(dp2106
g1
(lp2107
(dp2108
g10
I8
sg11
g787
sa(dp2109
g10
I50
sg11
g789
sa(dp2110
g10
I86
sg11
g791
sa(dp2111
g10
I101
sg11
g793
sa(dp2112
g10
I115
sg11
g795
sa(dp2113
g10
I116
sg11
g797
sa(dp2114
g10
I117
sg11
g799
sa(dp2115
g10
I118
sg11
g801
sa(dp2116
g10
I142
sg11
g803
sa(dp2117
g10
I167
sg11
g805
sa(dp2118
g10
I168
sg11
g807
sa(dp2119
g10
I175
sg11
g809
sa(dp2120
g10
I227
sg11
g811
sa(dp2121
g10
I266
sg11
g813
sa(dp2122
g10
I286
sg11
g815
sa(dp2123
g10
I289
sg11
g817
sa(dp2124
g10
I293
sg11
g819
sa(dp2125
g10
I297
sg11
g821
sa(dp2126
g10
I302
sg11
g823
sa(dp2127
g10
I324
sg11
g825
sa(dp2128
g10
I331
sg11
g827
sa(dp2129
g10
I338
sg11
g829
sa(dp2130
g10
I349
sg11
g831
sa(dp2131
g10
I357
sg11
g833
sa(dp2132
g10
I365
sg11
g835
sa(dp2133
g10
I383
sg11
g837
sa(dp2134
g10
I387
sg11
g839
sa(dp2135
g10
I407
sg11
g841
sasg10
I415
sg11
g842
sa(dp2136
g1
(lp2137
(dp2138
g10
I10
sg11
g846
sa(dp2139
g10
I17
sg11
g848
sa(dp2140
g10
I49
sg11
g850
sa(dp2141
g10
I60
sg11
g852
sa(dp2142
g10
I61
sg11
g854
sa(dp2143
g10
I66
sg11
g856
sa(dp2144
g10
I87
sg11
g858
sa(dp2145
g10
I104
sg11
g860
sa(dp2146
g10
I173
sg11
g862
sa(dp2147
g10
I179
sg11
g864
sa(dp2148
g10
I276
sg11
g866
sa(dp2149
g10
I318
sg11
g868
sasg10
I416
sg11
g869
sasg10
I422
sg11
g870
ssI423
(dp2150
g1
(lp2151
(dp2152
g1
(lp2153
(dp2154
g10
I408
sg11
g101
sa(dp2155
g10
I409
sg11
g230
sa(dp2156
g10
I411
sg11
g341
sasg10
I419
sg11
g342
sasg10
I423
sg11
g343
ssI424
(dp2157
g1
(lp2158
(dp2159
g1
(lp2160
(dp2161
g10
I410
sg11
g416
sa(dp2162
g10
I413
sg11
g509
sa(dp2163
g10
I414
sg11
g594
sa(dp2164
g10
I418
sg11
g625
sasg10
I420
sg11
g626
sa(dp2165
g1
(lp2166
(dp2167
g10
I412
sg11
g711
sa(dp2168
g10
I417
sg11
g780
sasg10
I421
sg11
g781
sa(dp2169
g1
(lp2170
(dp2171
g10
I415
sg11
g842
sa(dp2172
g10
I416
sg11
g869
sasg10
I422
sg11
g870
sasg10
I424
sg11
g871
ssI425
(dp2173
g1
(lp2174
(dp2175
g1
(lp2176
(dp2177
g10
I419
sg11
g342
sasg10
I423
sg11
g343
sa(dp2178
g1
(lp2179
(dp2180
g10
I420
sg11
g626
sa(dp2181
g10
I421
sg11
g781
sa(dp2182
g10
I422
sg11
g870
sasg10
I424
sg11
g871
sasg10
I425
sg11
g872
sstp2183
.