((dp0
S'children'
p1
(lp2
(dp3
g1
(lp4
(dp5
g1
(lp6
(dp7
g1
(lp8
(dp9
g1
(lp10
(dp11
S'id'
p12
I13676
sS'name'
p13
S'Science_technology_and_society'
p14
sa(dp15
g12
I13940
sg13
S'Fisheries_science'
p16
sasg12
I14153
sg13
S'Technology'
p17
sa(dp18
g1
(lp19
(dp20
g12
I13741
sg13
S'Linear_algebra'
p21
sa(dp22
g12
I13822
sg13
S'Set_(mathematics)'
p23
sa(dp24
g12
I13914
sg13
S'0_(number)'
p25
sa(dp26
g12
I13961
sg13
S'Sphere'
p27
sa(dp28
g12
I13977
sg13
S'Graph_theory'
p29
sa(dp30
g12
I14058
sg13
S'Chaos_theory'
p31
sasg12
I14205
sg13
S'Geometry'
p32
sa(dp33
g1
(lp34
(dp35
g12
I13866
sg13
S'Universal_Transverse_Mercator_coordinate_system'
p36
sa(dp37
g12
I13952
sg13
S'Satellite_navigation'
p38
sa(dp39
g12
I13983
sg13
S'Cartography'
p40
sa(dp41
g12
I14040
sg13
S'Variance'
p42
sa(dp43
g12
I14128
sg13
S'Experiment'
p44
sasg12
I14253
sg13
S'Geodetic_datum'
p45
sa(dp46
g1
(lp47
(dp48
g12
I13934
sg13
S'Artificial_intelligence'
p49
sa(dp50
g12
I13981
sg13
S'Neuroscience'
p51
sasg12
I14267
sg13
S'Bioinformatics'
p52
sasg12
I14298
sg13
S'Mathematics'
p53
sa(dp54
g1
(lp55
(dp56
g1
(lp57
(dp58
g12
I13714
sg13
S'Electron'
p59
sa(dp60
g12
I13836
sg13
S'Solar_System'
p61
sa(dp62
g12
I13960
sg13
S'Conversion_of_units'
p63
sasg12
I14187
sg13
S'International_System_of_Units'
p64
sa(dp65
g1
(lp66
(dp67
g12
I13736
sg13
S'Force'
p68
sa(dp69
g12
I13759
sg13
S'Royal_Society'
p70
sa(dp71
g12
I13794
sg13
S'Alternating_current'
p72
sa(dp73
g12
I13874
sg13
S'Low_Earth_orbit'
p74
sa(dp75
g12
I13877
sg13
S'General_relativity'
p76
sa(dp77
g12
I13922
sg13
S'Mathematician'
p78
sa(dp79
g12
I14077
sg13
S'Light-emitting_diode'
p80
sa(dp81
g12
I14088
sg13
S'List_of_minor_planets'
p82
sasg12
I14202
sg13
S'Physics'
p83
sasg12
I14325
sg13
S'Sun'
p84
sa(dp85
g1
(lp86
(dp87
g1
(lp88
(dp89
g12
I13763
sg13
S'Sex_organ'
p90
sa(dp91
g12
I13766
sg13
S'Alcoholic_beverage'
p92
sasg12
I14215
sg13
S'Breast'
p93
sa(dp94
g1
(lp95
(dp96
g12
I13773
sg13
S'Evolution'
p97
sa(dp98
g12
I14054
sg13
S'Georges_Cuvier'
p99
sasg12
I14220
sg13
S'Charles_Darwin'
p100
sa(dp101
g1
(lp102
(dp103
g12
I13774
sg13
S'Pharmacy'
p104
sa(dp105
g12
I13900
sg13
S'Surgery'
p106
sa(dp107
g12
I14111
sg13
S'Mental_health'
p108
sasg12
I14221
sg13
S'Medicine'
p109
sa(dp110
g1
(lp111
(dp112
g12
I13793
sg13
S'Infection'
p113
sa(dp114
g12
I13840
sg13
S'Terminologia_Anatomica'
p115
sasg12
I14229
sg13
S'Endocrine_system'
p116
sasg12
I14338
sg13
S'Immune_system'
p117
sasg12
I14352
sg13
S'Bibcode'
p118
sa(dp119
g1
(lp120
(dp121
g1
(lp122
(dp123
g1
(lp124
(dp125
g1
(lp126
(dp127
g12
I13686
sg13
S'ISO/IEC_27000-series'
p128
sa(dp129
g12
I13718
sg13
S'MPEG-21'
p130
sasg12
I14162
sg13
S'International_Standard_Musical_Work_Code'
p131
sa(dp132
g12
I13824
sg13
S'ISO/IEC_2022'
p133
sasg12
I14306
sg13
S'International_Organization_for_Standardization'
p134
sa(dp135
g1
(lp136
(dp137
g1
(lp138
(dp139
g12
I13784
sg13
S'Charles_Barbier'
p140
sa(dp141
g12
I13945
sg13
S'Lateral_consonant'
p142
sa(dp143
g12
I14023
sg13
S'Segment_(linguistics)'
p144
sasg12
I14225
sg13
S'Stop_consonant'
p145
sa(dp146
g1
(lp147
(dp148
g12
I13884
sg13
S'Health_Insurance_Portability_and_Accountability_Act'
p149
sa(dp150
g12
I13946
sg13
S'Decision_aids'
p151
sasg12
I14257
sg13
S'Telehealth'
p152
sasg12
I14342
sg13
S'Consonant'
p153
sasg12
I14357
sg13
S'IPA_Braille'
p154
sa(dp155
g1
(lp156
(dp157
g12
I13726
sg13
S'Amazon_SimpleDB'
p158
sa(dp159
g1
(lp160
(dp161
g12
I13732
sg13
S'National_Library_of_the_Netherlands'
p162
sa(dp163
g1
(lp164
(dp165
g12
I14043
sg13
S'Amazon_Standard_Identification_Number'
p166
sa(dp167
g12
I14046
sg13
S'Amazon_Kindle'
p168
sasg12
I14281
sg13
S'Jeff_Bezos'
p169
sa(dp170
g12
I14051
sg13
S'Amazon_Digital_Game_Store'
p171
sa(dp172
g12
I14094
sg13
S'Legal_deposit'
p173
sasg12
I14332
sg13
S'German_National_Library'
p174
sasg12
I14367
sg13
S'National_Library_of_Norway'
p175
sa(dp176
g1
(lp177
(dp178
g1
(lp179
(dp180
g12
I13734
sg13
S'UTC+06:00'
p181
sa(dp182
g12
I13820
sg13
S'UTC\xe2\x88\x9203:00'
p183
sa(dp184
g12
I13935
sg13
S'UTC+03:00'
p185
sa(dp186
g12
I13999
sg13
S'Coordinated_Universal_Time'
p187
sa(dp188
g12
I14056
sg13
S'Time_zone'
p189
sasg12
I14200
sg13
S'Daylight_saving_time'
p190
sa(dp191
g1
(lp192
(dp193
g12
I13919
sg13
S'35th_parallel_north'
p194
sa(dp195
g12
I14009
sg13
S'20th_meridian_west'
p196
sasg12
I14348
sg13
S'160th_meridian_east'
p197
sasg12
I14368
sg13
S'UTC+04:30'
p198
sasg12
I14377
sg13
S'180th_meridian'
p199
sa(dp200
g1
(lp201
(dp202
g1
(lp203
(dp204
g1
(lp205
(dp206
g1
(lp207
(dp208
g12
I13805
sg13
S'International_Music_Score_Library_Project'
p209
sa(dp210
g12
I14122
sg13
S'__PRUNEME__'
p211
sasg12
I14169
sg13
S'Internet_Archive'
p212
sa(dp213
g12
I14045
sg13
S'Keyhole_Markup_Language'
p214
sa(dp215
g1
(lp216
(dp217
g12
I14106
sg13
S'Osaka_Prefecture'
p218
sa(dp219
g12
I14141
sg13
S'Districts_of_Japan'
p220
sasg12
I14290
sg13
S'Prefectures_of_Japan'
p221
sa(dp222
g12
I14146
sg13
S'LibriVox'
p223
sasg12
I14313
sg13
S'Equator'
p224
sa(dp225
g1
(lp226
(dp227
g12
I13706
sg13
S'Astronomical_chronology'
p228
sa(dp229
g1
(lp230
(dp231
g12
I13813
sg13
S'Clock'
p232
sa(dp233
g12
I13849
sg13
S'Futures_studies'
p234
sa(dp235
g12
I13932
sg13
S'Geologic_time_scale'
p236
sa(dp237
g12
I14032
sg13
S'Gregorian_calendar'
p238
sa(dp239
g12
I14038
sg13
S'Radiocarbon_dating'
p240
sa(dp241
g12
I14066
sg13
S'Islamic_calendar'
p242
sa(dp243
g12
I14134
sg13
S'Time_travel'
p244
sasg12
I14235
sg13
S'History'
p245
sasg12
I14323
sg13
S'Julian_calendar'
p246
sa(dp247
g1
(lp248
(dp249
g12
I14071
sg13
S'International_Bank_Account_Number'
p250
sa(dp251
g12
I14145
sg13
S'ISO_3166-2'
p252
sasg12
I14350
sg13
S'ISO_3166-1_alpha-2'
p253
sasg12
I14361
sg13
S'Prime_meridian'
p254
sa(dp255
g1
(lp256
(dp257
g1
(lp258
(dp259
g1
(lp260
(dp261
g12
I13724
sg13
S'Yue_Chinese'
p262
sa(dp263
g12
I13851
sg13
S'Sanskrit'
p264
sa(dp265
g12
I13910
sg13
S'Languages_of_India'
p266
sa(dp267
g12
I13995
sg13
S'Turkic_languages'
p268
sa(dp269
g12
I14019
sg13
S'Hebrew_language'
p270
sa(dp271
g12
I14084
sg13
S'Chinese_name'
p272
sa(dp273
g12
I14144
sg13
S'Armenian_language'
p274
sasg12
I14192
sg13
S'Arabic_language'
p275
sa(dp276
g1
(lp277
(dp278
g12
I13742
sg13
S'Russian_language'
p279
sa(dp280
g12
I13743
sg13
S'Celtic_languages'
p281
sa(dp282
g12
I13768
sg13
S'Ethnologue'
p283
sa(dp284
g12
I13821
sg13
S'French_language'
p285
sa(dp286
g12
I13907
sg13
S'Noun'
p287
sasg12
I14206
sg13
S'Indo-European_languages'
p288
sasg12
I14328
sg13
S'Language_family'
p289
sa(dp290
g1
(lp291
(dp292
g1
(lp293
(dp294
g12
I13857
sg13
S'W'
p295
sa(dp296
g12
I13936
sg13
S'ASCII'
p297
sa(dp298
g12
I13991
sg13
S'Linguistics'
p299
sa(dp300
g12
I14001
sg13
S'Latin_alphabet'
p301
sa(dp302
g12
I14005
sg13
S'ISO_639:zho'
p303
sasg12
I14250
sg13
S'Diacritic'
p304
sa(dp305
g12
I13954
sg13
S'Hanja'
p306
sasg12
I14347
sg13
S'Dictionary'
p307
sasg12
I14366
sg13
S'Unicode'
p308
sa(dp309
g1
(lp310
(dp311
g1
(lp312
(dp313
g12
I13745
sg13
S'Oxford_University_Press'
p314
sa(dp315
g12
I13860
sg13
S'OCLC'
p316
sa(dp317
g12
I13892
sg13
S'Wikimedia_project'
p318
sa(dp319
g12
I13898
sg13
S'Jimmy_Wales'
p320
sa(dp321
g12
I13990
sg13
S'Nature_(journal)'
p322
sa(dp323
g12
I14073
sg13
S'PDF'
p324
sa(dp325
g12
I14126
sg13
S'International_Standard_Serial_Number'
p326
sasg12
I14208
sg13
S'Wikisource'
p327
sa(dp328
g1
(lp329
(dp330
g1
(lp331
(dp332
g12
I13693
sg13
S'Library_catalog'
p333
sa(dp334
g12
I13780
sg13
S'Publishing'
p335
sa(dp336
g12
I13806
sg13
S'Acronym'
p337
sa(dp338
g12
I13998
sg13
S'Typeface'
p339
sa(dp340
g12
I14002
sg13
S'Typography'
p341
sa(dp342
g12
I14027
sg13
S'Librarian'
p343
sa(dp344
g12
I14039
sg13
S'Barcode'
p345
sa(dp346
g12
I14124
sg13
S'British_Library'
p347
sasg12
I14224
sg13
S'Library'
p348
sa(dp349
g1
(lp350
(dp351
g12
I14017
sg13
S'Authority_control'
p352
sa(dp353
g12
I14115
sg13
S'National_Library_of_Australia'
p354
sasg12
I14278
sg13
S'National_Diet_Library'
p355
sasg12
I14341
sg13
S'Virtual_International_Authority_File'
p356
sasg12
I14370
sg13
S'Book'
p357
sasg12
I14381
sg13
S'English_language'
p358
sasg12
I14383
sg13
S'Digital_object_identifier'
p359
sa(dp360
g1
(lp361
(dp362
g1
(lp363
(dp364
g1
(lp365
(dp366
g1
(lp367
(dp368
g1
(lp369
(dp370
g12
I13677
sg13
S'AllMusic'
p371
sa(dp372
g12
I13755
sg13
S'Punk_rock'
p373
sa(dp374
g12
I13843
sg13
S'Productores_de_M\xc3\xbasica_de_Espa\xc3\xb1a'
p375
sasg12
I14154
sg13
S'Rock_music'
p376
sa(dp377
g1
(lp378
(dp379
g12
I13683
sg13
S'The_Washington_Post'
p380
sa(dp381
g12
I13701
sg13
S'HBO'
p382
sa(dp383
g12
I13748
sg13
S'JPMorgan_Chase'
p384
sasg12
I14159
sg13
S'The_Wall_Street_Journal'
p385
sasg12
I14299
sg13
S'MTV'
p386
sa(dp387
g1
(lp388
(dp389
g1
(lp390
(dp391
g12
I13680
sg13
S'Manga'
p392
sa(dp393
g12
I13681
sg13
S'Academy_Award_for_Best_Foreign_Language_Film'
p394
sa(dp395
g12
I13811
sg13
S'Animation'
p396
sasg12
I14157
sg13
S'Independent_film'
p397
sa(dp398
g1
(lp399
(dp400
g12
I13709
sg13
S'Johann_Wolfgang_von_Goethe'
p401
sa(dp402
g12
I13749
sg13
S'Literature'
p403
sasg12
I14183
sg13
S'Novel'
p404
sa(dp405
g1
(lp406
(dp407
g12
I13710
sg13
S'Edo_period'
p408
sa(dp409
g12
I13752
sg13
S'Modern_art'
p410
sa(dp411
g12
I13838
sg13
S"Mus\xc3\xa9e_d'Orsay"
p412
sa(dp413
g12
I13853
sg13
S'Ludwig_van_Beethoven'
p414
sa(dp415
g12
I13970
sg13
S'Theatre'
p416
sa(dp417
g12
I14118
sg13
S'Neoclassical_architecture'
p418
sasg12
I14184
sg13
S'Louvre'
p419
sa(dp420
g1
(lp421
(dp422
g12
I13812
sg13
S'Folk_music'
p423
sa(dp424
g12
I13815
sg13
S'Music_of_Spain'
p425
sa(dp426
g12
I13918
sg13
S'Orchestra'
p427
sa(dp428
g12
I13950
sg13
S'Pitch_(music)'
p429
sa(dp430
g12
I13993
sg13
S'Glossary_of_musical_terminology'
p431
sa(dp432
g12
I14052
sg13
S'Music_of_India'
p433
sasg12
I14234
sg13
S'Musical_instrument'
p434
sa(dp435
g1
(lp436
(dp437
g12
I13848
sg13
S'High-definition_television'
p438
sa(dp439
g12
I13883
sg13
S'Newspaper'
p440
sa(dp441
g12
I13889
sg13
S'Protest'
p442
sa(dp443
g12
I14075
sg13
S'The_Nation'
p444
sasg12
I14247
sg13
S'News_broadcasting'
p445
sasg12
I14302
sg13
S'Film'
p446
sa(dp447
g1
(lp448
(dp449
g1
(lp450
(dp451
g12
I13694
sg13
S'Heidelberg_University'
p452
sa(dp453
g12
I13756
sg13
S"Bachelor's_degree"
p454
sa(dp455
g12
I13833
sg13
S'Kindergarten'
p456
sa(dp457
g12
I13951
sg13
S'University_of_Edinburgh'
p458
sa(dp459
g12
I14050
sg13
S'College'
p460
sasg12
I14170
sg13
S'University'
p461
sa(dp462
g1
(lp463
(dp464
g12
I13721
sg13
S'Boston_College'
p465
sa(dp466
g12
I13992
sg13
S'National_Autonomous_University_of_Mexico'
p467
sa(dp468
g12
I14037
sg13
S'Princeton_University'
p469
sa(dp470
g12
I14057
sg13
S'University_of_Auckland'
p471
sa(dp472
g12
I14085
sg13
S'University_of_California_Los_Angeles'
p473
sa(dp474
g12
I14092
sg13
S'University_of_California_Berkeley'
p475
sa(dp476
g12
I14135
sg13
S'Nobel_Prize'
p477
sasg12
I14191
sg13
S'Massachusetts_Institute_of_Technology'
p478
sa(dp479
g12
I13913
sg13
S'University_of_Maryland_College_Park'
p480
sasg12
I14314
sg13
S'University_College_London'
p481
sasg12
I14353
sg13
S'Music'
p482
sa(dp483
g1
(lp484
(dp485
g1
(lp486
(dp487
g1
(lp488
(dp489
g12
I13682
sg13
S'Mahabharata'
p490
sa(dp491
g12
I13982
sg13
S'Mantra'
p492
sa(dp493
g12
I13997
sg13
S'Hindu'
p494
sasg12
I14158
sg13
S'Satya'
p495
sa(dp496
g12
I13929
sg13
S'Second_World_War'
p497
sasg12
I14303
sg13
S'Hinduism'
p498
sa(dp499
g1
(lp500
(dp501
g12
I13685
sg13
S'Karl_Marx'
p502
sa(dp503
g12
I13723
sg13
S'Metaphysics'
p504
sa(dp505
g12
I13789
sg13
S'Psychology'
p506
sa(dp507
g12
I13835
sg13
S'David_Hume'
p508
sa(dp509
g12
I13905
sg13
S'Philosophy'
p510
sasg12
I14161
sg13
S'Aristotle'
p511
sa(dp512
g1
(lp513
(dp514
g12
I13688
sg13
S'Estuary'
p515
sa(dp516
g1
(lp517
(dp518
g12
I13949
sg13
S'Social_stratification'
p519
sa(dp520
g12
I14011
sg13
S'Anthropology'
p521
sa(dp522
g12
I14028
sg13
S'Mahatma_Gandhi'
p523
sasg12
I14269
sg13
S'Demography'
p524
sa(dp525
g1
(lp526
(dp527
g12
I14029
sg13
S'Jewellery'
p528
sa(dp529
g12
I14061
sg13
S'Neolithic'
p530
sasg12
I14280
sg13
S'Outline_of_prehistoric_technology'
p531
sasg12
I14308
sg13
S'Sociology'
p532
sasg12
I14355
sg13
S'Immanuel_Kant'
p533
sa(dp534
g1
(lp535
(dp536
g1
(lp537
(dp538
g1
(lp539
(dp540
g12
I13696
sg13
S'New_Testament'
p541
sa(dp542
g12
I13715
sg13
S'Patriarch'
p543
sa(dp544
g12
I13722
sg13
S'Paul_the_Apostle'
p545
sa(dp546
g12
I13764
sg13
S'God'
p547
sa(dp548
g12
I13882
sg13
S'Philosophy_of_religion'
p549
sasg12
I14172
sg13
S'East\xe2\x80\x93West_Schism'
p550
sa(dp551
g1
(lp552
(dp553
g12
I13730
sg13
S'Russian_Orthodox_Church'
p554
sa(dp555
g12
I13776
sg13
S'Pope'
p556
sa(dp557
g12
I13782
sg13
S'Protestantism'
p558
sa(dp559
g12
I13837
sg13
S'Bishop'
p560
sa(dp561
g12
I13869
sg13
S'Jesus'
p562
sa(dp563
g12
I13881
sg13
S'United_Methodist_Church'
p564
sa(dp565
g12
I13985
sg13
S'Buddhism'
p566
sa(dp567
g12
I14105
sg13
S'Secularism'
p568
sasg12
I14196
sg13
S'Eastern_Orthodox_Church'
p569
sasg12
I14316
sg13
S'Catholic_Church'
p570
sa(dp571
g1
(lp572
(dp573
g1
(lp574
(dp575
g12
I13704
sg13
S'Contract'
p576
sa(dp577
g12
I13758
sg13
S'Judiciary'
p578
sa(dp579
g12
I13792
sg13
S'Civil_procedure'
p580
sa(dp581
g12
I13797
sg13
S'Common_law'
p582
sa(dp583
g12
I14034
sg13
S'Halakha'
p584
sa(dp585
g12
I14099
sg13
S'Crime'
p586
sasg12
I14179
sg13
S'Law'
p587
sa(dp588
g1
(lp589
(dp590
g12
I13767
sg13
S'National_accounts'
p591
sa(dp592
g12
I13803
sg13
S'Unemployment'
p593
sa(dp594
g12
I13825
sg13
S'Privatization'
p595
sa(dp596
g12
I13880
sg13
S'Democracy'
p597
sa(dp598
g12
I13897
sg13
S'Stock'
p599
sasg12
I14216
sg13
S'Economics'
p600
sasg12
I14322
sg13
S'Intellectual_property'
p601
sasg12
I14362
sg13
S'Christianity'
p602
sasg12
I14374
sg13
S'The_New_York_Times'
p603
sa(dp604
g1
(lp605
(dp606
g1
(lp607
(dp608
g12
I13678
sg13
S'Armenia'
p609
sa(dp610
g12
I13804
sg13
S'Human_Development_Index'
p611
sa(dp612
g1
(lp613
(dp614
g12
I13831
sg13
S'World_Trade_Organization'
p615
sa(dp616
g12
I13862
sg13
S'Council_of_Europe'
p617
sa(dp618
g12
I13885
sg13
S'Food_and_Agriculture_Organization'
p619
sa(dp620
g12
I14068
sg13
S'United_Nations_High_Commissioner_for_Refugees'
p621
sa(dp622
g12
I14101
sg13
S'Eurozone'
p623
sasg12
I14242
sg13
S'International_Monetary_Fund'
p624
sa(dp625
g1
(lp626
(dp627
g12
I13855
sg13
S'List_of_sovereign_states'
p628
sa(dp629
g12
I13972
sg13
S'Interpol'
p630
sa(dp631
g12
I14082
sg13
S'List_of_civil_aviation_authorities'
p632
sasg12
I14248
sg13
S'Aircraft_registration'
p633
sa(dp634
g1
(lp635
(dp636
g12
I13872
sg13
S'Elizabeth_II'
p637
sa(dp638
g12
I13937
sg13
S'Union_of_South_Africa'
p639
sa(dp640
g12
I14062
sg13
S'Royal_Air_Force'
p641
sasg12
I14254
sg13
S'Commonwealth_realm'
p642
sa(dp643
g1
(lp644
(dp645
g12
I13958
sg13
S'Economy_of_Germany'
p646
sa(dp647
g12
I13969
sg13
S'Economy_of_Greece'
p648
sa(dp649
g12
I14003
sg13
S'Economy_of_Egypt'
p650
sa(dp651
g12
I14086
sg13
S'Economy_of_Brazil'
p652
sasg12
I14272
sg13
S'Economy_of_Turkey'
p653
sasg12
I14300
sg13
S'Cyprus'
p654
sa(dp655
g1
(lp656
(dp657
g1
(lp658
(dp659
g12
I13738
sg13
S'Tower_of_London'
p660
sa(dp661
g12
I13886
sg13
S'Newlyn'
p662
sa(dp663
g12
I13902
sg13
S'The_Blitz'
p664
sa(dp665
g12
I14008
sg13
S'David_Lloyd_George'
p666
sasg12
I14156
sg13
S'Greater_London'
p667
sa(dp668
g1
(lp669
(dp670
g12
I13679
sg13
S'HM_Treasury'
p671
sa(dp672
g12
I13705
sg13
S'Order_of_the_Garter'
p673
sa(dp674
g12
I13713
sg13
S'Henry_VIII_of_England'
p675
sa(dp676
g12
I13747
sg13
S'Parliament_of_the_United_Kingdom'
p677
sa(dp678
g12
I13799
sg13
S'Acts_of_Union_1707'
p679
sasg12
I14180
sg13
S'Monarchy_of_the_United_Kingdom'
p680
sa(dp681
g1
(lp682
(dp683
g12
I13777
sg13
S'Kingston_upon_Hull'
p684
sa(dp685
g12
I14033
sg13
S'Surrey'
p686
sasg12
I14222
sg13
S'Bristol'
p687
sa(dp688
g1
(lp689
(dp690
g12
I14024
sg13
S'Ireland'
p691
sa(dp692
g12
I14035
sg13
S'Belfast'
p693
sa(dp694
g12
I14136
sg13
S'Wales'
p695
sasg12
I14279
sg13
S'Northern_Ireland'
p696
sasg12
I14301
sg13
S'England'
p697
sa(dp698
g1
(lp699
(dp700
g1
(lp701
(dp702
g12
I13689
sg13
S'Air_Navigation_and_Transport_Act'
p703
sa(dp704
g12
I13867
sg13
S'Aviation'
p705
sa(dp706
g12
I13920
sg13
S'Patrol_boat'
p707
sa(dp708
g12
I13928
sg13
S'Major_general'
p709
sasg12
I14165
sg13
S'Military_rank'
p710
sa(dp711
g1
(lp712
(dp713
g12
I13703
sg13
S'Primorsky_Krai'
p714
sa(dp715
g12
I13847
sg13
S'Regions_of_France'
p716
sa(dp717
g12
I14016
sg13
S'Russian_Soviet_Federative_Socialist_Republic'
p718
sa(dp719
g12
I14078
sg13
S'Municipalities_of_Slovenia'
p720
sasg12
I14178
sg13
S'Administrative_divisions_of_Armenia'
p721
sa(dp722
g1
(lp723
(dp724
g12
I13712
sg13
S'Mayor'
p725
sa(dp726
g12
I13927
sg13
S'Humid_subtropical_climate'
p727
sa(dp728
g12
I14137
sg13
S'Google_Earth'
p729
sa(dp730
g12
I14147
sg13
S'Continental_climate'
p731
sasg12
I14186
sg13
S'Mediterranean_climate'
p732
sa(dp733
g1
(lp734
(dp735
g12
I13802
sg13
S'Henan'
p736
sa(dp737
g12
I13984
sg13
S'Rajasthan'
p738
sasg12
I14231
sg13
S'Sichuan'
p739
sa(dp740
g1
(lp741
(dp742
g12
I13845
sg13
S'British_Raj'
p743
sa(dp744
g12
I13988
sg13
S'Wuhan'
p745
sa(dp746
g12
I14041
sg13
S'President_of_India'
p747
sa(dp748
g12
I14080
sg13
S'Time_in_China'
p749
sasg12
I14246
sg13
S'Indian_National_Congress'
p750
sa(dp751
g1
(lp752
(dp753
g12
I13917
sg13
S'Federated_States_of_Micronesia'
p754
sa(dp755
g12
I13923
sg13
S'Power_station'
p756
sa(dp757
g12
I13941
sg13
S'Internal_combustion_engine'
p758
sa(dp759
g12
I14012
sg13
S'Four-stroke_engine'
p760
sa(dp761
g12
I14031
sg13
S'Manual_transmission'
p762
sa(dp763
g12
I14059
sg13
S'Nuclear_weapon'
p764
sa(dp765
g12
I14093
sg13
S'Petroleum'
p766
sasg12
I14264
sg13
S'Diesel_engine'
p767
sa(dp768
g1
(lp769
(dp770
g12
I13962
sg13
S'Guam'
p771
sa(dp772
g12
I14018
sg13
S'Midway_Atoll'
p773
sa(dp774
g12
I14132
sg13
S'KwaZulu-Natal'
p775
sasg12
I14273
sg13
S'Puerto_Rico'
p776
sasg12
I14309
sg13
S'Federal_subjects_of_Russia'
p777
sa(dp778
g1
(lp779
(dp780
g1
(lp781
(dp782
g12
I13698
sg13
S'Regina_Saskatchewan'
p783
sa(dp784
g12
I13729
sg13
S'Politics_of_Canada'
p785
sa(dp786
g12
I13765
sg13
S'Great_Lakes'
p787
sa(dp788
g12
I13964
sg13
S'British_Columbia'
p789
sa(dp790
g12
I13976
sg13
S'Parliament_of_Canada'
p791
sa(dp792
g12
I14044
sg13
S'Vancouver'
p793
sasg12
I14174
sg13
S'Quebec'
p794
sa(dp795
g1
(lp796
(dp797
g12
I13754
sg13
S'French_Guiana'
p798
sa(dp799
g12
I13844
sg13
S'Madeira'
p800
sa(dp801
g12
I13854
sg13
S'Economic_Social_and_Cultural_Council'
p802
sa(dp803
g12
I13956
sg13
S'Australian_English'
p804
sasg12
I14211
sg13
S'Jersey'
p805
sa(dp806
g1
(lp807
(dp808
g12
I13841
sg13
S'Norfolk_Island'
p809
sa(dp810
g12
I13859
sg13
S'Turks_and_Caicos_Islands'
p811
sa(dp812
g12
I13955
sg13
S'The_Bahamas'
p813
sasg12
I14245
sg13
S'Anguilla'
p814
sa(dp815
g12
I13989
sg13
S'Brazil'
p816
sasg12
I14318
sg13
S'Ontario'
p817
sa(dp818
g1
(lp819
(dp820
g1
(lp821
(dp822
g12
I13728
sg13
S'Magdeburg'
p823
sa(dp824
g12
I13873
sg13
S'Hamburg'
p825
sa(dp826
g12
I13986
sg13
S'Bangkok'
p827
sa(dp828
g12
I14072
sg13
S'Caracas'
p829
sa(dp830
g12
I14100
sg13
S'Kinshasa'
p831
sasg12
I14195
sg13
S'Tehran'
p832
sa(dp833
g1
(lp834
(dp835
g12
I13814
sg13
S'Parliament_of_Australia'
p836
sa(dp837
g12
I13901
sg13
S'Indigenous_Australians'
p838
sa(dp839
g12
I13921
sg13
S'Perth'
p840
sa(dp841
g12
I13939
sg13
S'House'
p842
sa(dp843
g12
I13979
sg13
S'Airport'
p844
sa(dp845
g12
I13980
sg13
S'Highway'
p846
sa(dp847
g12
I14021
sg13
S'Rail_transport'
p848
sa(dp849
g12
I14079
sg13
S'Infrastructure'
p850
sasg12
I14236
sg13
S'Tram'
p851
sasg12
I14331
sg13
S'Tokyo'
p852
sa(dp853
g1
(lp854
(dp855
g12
I13826
sg13
S'African_Union'
p856
sa(dp857
g12
I13965
sg13
S'Indonesia'
p858
sasg12
I14239
sg13
S'Malaysia'
p859
sasg12
I14354
sg13
S'India'
p860
sa(dp861
g1
(lp862
(dp863
g1
(lp864
(dp865
g1
(lp866
(dp867
g12
I13691
sg13
S'Enzyme'
p868
sa(dp869
g12
I13737
sg13
S'Titanium'
p870
sa(dp871
g12
I13795
sg13
S'International_Union_of_Pure_and_Applied_Chemistry'
p872
sa(dp873
g12
I13894
sg13
S'Copper'
p874
sa(dp875
g12
I13978
sg13
S'Iron'
p876
sa(dp877
g12
I14015
sg13
S'Hydrogen'
p878
sasg12
I14167
sg13
S'Oxygen'
p879
sa(dp880
g1
(lp881
(dp882
g12
I13708
sg13
S'Sedimentary_rock'
p883
sa(dp884
g12
I13817
sg13
S'Current_sea_level_rise'
p885
sa(dp886
g12
I13973
sg13
S'Meteorology'
p887
sa(dp888
g12
I13975
sg13
S'Tropics'
p889
sa(dp890
g12
I14095
sg13
S'Biogeography'
p891
sasg12
I14182
sg13
S'Earth'
p892
sa(dp893
g1
(lp894
(dp895
g12
I13731
sg13
S'IUCN_Red_List'
p896
sa(dp897
g12
I13828
sg13
S'Chestnut'
p898
sa(dp899
g12
I13942
sg13
S'Olive_oil'
p900
sasg12
I14197
sg13
S'Meat'
p901
sa(dp902
g1
(lp903
(dp904
g12
I13830
sg13
S'Sustainability'
p905
sa(dp906
g12
I13868
sg13
S'Flood'
p907
sa(dp908
g12
I13911
sg13
S'Tidal_power'
p909
sa(dp910
g12
I14010
sg13
S'Granite'
p911
sa(dp912
g12
I14042
sg13
S'Agriculture'
p913
sa(dp914
g12
I14049
sg13
S'Land_use'
p915
sa(dp916
g12
I14121
sg13
S'Tragedy_of_the_commons'
p917
sasg12
I14241
sg13
S'Soil'
p918
sasg12
I14311
sg13
S'Water'
p919
sa(dp920
g1
(lp921
(dp922
g1
(lp923
(dp924
g12
I13739
sg13
S'New_Zealand_national_rugby_union_team'
p925
sa(dp926
g12
I13834
sg13
S'Cricket'
p927
sa(dp928
g12
I13863
sg13
S'Fencing'
p929
sa(dp930
g12
I13896
sg13
S'100_metres'
p931
sa(dp932
g12
I13909
sg13
S'Summer_Olympic_Games'
p933
sasg12
I14203
sg13
S'Olympic_Games'
p934
sa(dp935
g1
(lp936
(dp937
g1
(lp938
(dp939
g12
I13787
sg13
S'The_Guardian'
p940
sa(dp941
g12
I13876
sg13
S'List_of_magazines_by_circulation'
p942
sasg12
I14227
sg13
S'The_Independent'
p943
sa(dp944
g1
(lp945
(dp946
g12
I13856
sg13
S'FC_Bayern_Munich'
p947
sa(dp948
g12
I13904
sg13
S'The_Football_League'
p949
sa(dp950
g12
I14047
sg13
S'Glossary_of_association_football_terms'
p951
sasg12
I14249
sg13
S'Premier_League'
p952
sa(dp953
g12
I13879
sg13
S'FIFA_World_Cup'
p954
sa(dp955
g1
(lp956
(dp957
g12
I13925
sg13
S'Conservative_Party_(UK)'
p958
sa(dp959
g12
I14063
sg13
S'Raidi\xc3\xb3_Teilif\xc3\xads_\xc3\x89ireann'
p960
sa(dp961
g12
I14076
sg13
S'Department_for_Culture_Media_and_Sport'
p962
sasg12
I14265
sg13
S'Labour_Party_(UK)'
p963
sasg12
I14343
sg13
S'The_Times'
p964
sasg12
I14369
sg13
S'Association_football'
p965
sa(dp966
g1
(lp967
(dp968
g1
(lp969
(dp970
g1
(lp971
(dp972
g12
I13753
sg13
S'Protein'
p973
sa(dp974
g12
I13809
sg13
S'Bacteria'
p975
sa(dp976
g12
I13974
sg13
S'Evolutionary_biology'
p977
sasg12
I14210
sg13
S'Genetics'
p978
sa(dp979
g1
(lp980
(dp981
g12
I13785
sg13
S'Botany'
p982
sa(dp983
g12
I13823
sg13
S'Plant_stem'
p984
sa(dp985
g12
I14006
sg13
S'APG_III_system'
p986
sa(dp987
g12
I14108
sg13
S'Ethnobotany'
p988
sasg12
I14226
sg13
S'Flowering_plant'
p989
sa(dp990
g12
I13903
sg13
S'Bryophyte'
p991
sasg12
I14336
sg13
S'Plant'
p992
sa(dp993
g1
(lp994
(dp995
g12
I13757
sg13
S'Cnidaria'
p996
sa(dp997
g12
I13810
sg13
S'Arthropod'
p998
sa(dp999
g12
I13819
sg13
S'Genus'
p1000
sa(dp1001
g12
I14020
sg13
S'Jurassic'
p1002
sasg12
I14212
sg13
S'Species'
p1003
sasg12
I14371
sg13
S'Animal'
p1004
sasg12
I14380
sg13
S'Biological_classification'
p1005
sa(dp1006
g1
(lp1007
(dp1008
g1
(lp1009
(dp1010
g1
(lp1011
(dp1012
g1
(lp1013
(dp1014
g12
I13697
sg13
S'Helsinki'
p1015
sa(dp1016
g12
I13786
sg13
S'Veneto'
p1017
sa(dp1018
g12
I13924
sg13
S'Genoa'
p1019
sa(dp1020
g12
I14004
sg13
S'Andalusia'
p1021
sa(dp1022
g12
I14104
sg13
S'Vienna'
p1023
sa(dp1024
g12
I14129
sg13
S'Baku'
p1025
sa(dp1026
g12
I14139
sg13
S'Riga'
p1027
sasg12
I14173
sg13
S'Paris'
p1028
sa(dp1029
g1
(lp1030
(dp1031
g12
I13750
sg13
S'First_Indochina_War'
p1032
sa(dp1033
g12
I13775
sg13
S'Eastern_Front_(World_War_II)'
p1034
sa(dp1035
g12
I13801
sg13
S'Artillery'
p1036
sa(dp1037
g12
I13875
sg13
S'Joseph_Stalin'
p1038
sa(dp1039
g12
I13947
sg13
S'Empire_of_Japan'
p1040
sasg12
I14209
sg13
S'NATO'
p1041
sasg12
I14317
sg13
S'Soviet_Union'
p1042
sa(dp1043
g1
(lp1044
(dp1045
g1
(lp1046
(dp1047
g12
I13779
sg13
S'China'
p1048
sa(dp1049
g12
I13798
sg13
S'London'
p1050
sa(dp1051
g12
I14109
sg13
S'South_Africa'
p1052
sa(dp1053
g12
I14110
sg13
S'Liechtenstein'
p1054
sasg12
I14223
sg13
S'Australia'
p1055
sa(dp1056
g1
(lp1057
(dp1058
g12
I13818
sg13
S'Montenegro'
p1059
sa(dp1060
g12
I13890
sg13
S'Switzerland'
p1061
sasg12
I14237
sg13
S'Germany'
p1062
sasg12
I14340
sg13
S'United_Kingdom'
p1063
sasg12
I14363
sg13
S'World_War_II'
p1064
sa(dp1065
g1
(lp1066
(dp1067
g1
(lp1068
(dp1069
g1
(lp1070
(dp1071
g12
I13711
sg13
S'Monarch'
p1072
sa(dp1073
g12
I13720
sg13
S'British_Empire'
p1074
sa(dp1075
g12
I13861
sg13
S'Proportional_representation'
p1076
sa(dp1077
g12
I13926
sg13
S'Voting_system'
p1078
sasg12
I14185
sg13
S'Head_of_state'
p1079
sa(dp1080
g1
(lp1081
(dp1082
g12
I13733
sg13
S'Torture'
p1083
sa(dp1084
g12
I13788
sg13
S'Marriage'
p1085
sa(dp1086
g12
I13800
sg13
S'Cultural_assimilation'
p1087
sa(dp1088
g12
I13808
sg13
S'White_people'
p1089
sa(dp1090
g12
I14014
sg13
S'Ethnic_groups_in_Europe'
p1091
sa(dp1092
g12
I14065
sg13
S'Homosexuality'
p1093
sasg12
I14199
sg13
S'Human_rights'
p1094
sa(dp1095
g1
(lp1096
(dp1097
g12
I13968
sg13
S'Caspian_Sea'
p1098
sa(dp1099
g12
I14025
sg13
S'South_America'
p1100
sa(dp1101
g12
I14055
sg13
S'Southern_Ocean'
p1102
sa(dp1103
g12
I14074
sg13
S'Australasia'
p1104
sasg12
I14275
sg13
S'Pacific_Ocean'
p1105
sasg12
I14324
sg13
S'Slavery'
p1106
sa(dp1107
g1
(lp1108
(dp1109
g1
(lp1110
(dp1111
g12
I13716
sg13
S'Jerusalem'
p1112
sa(dp1113
g12
I13938
sg13
S'East_Asia'
p1114
sa(dp1115
g12
I14013
sg13
S'Scientific_journal'
p1116
sa(dp1117
g12
I14022
sg13
S'Alps'
p1118
sa(dp1119
g12
I14048
sg13
S'Mediterranean_Sea'
p1120
sa(dp1121
g12
I14069
sg13
S'Arabian_Peninsula'
p1122
sa(dp1123
g12
I14097
sg13
S'Eastern_Europe'
p1124
sa(dp1125
g12
I14127
sg13
S'__PRUNEME__'
p1126
sa(dp1127
g12
I14131
sg13
S'Asia'
p1128
sasg12
I14188
sg13
S'Middle_East'
p1129
sa(dp1130
g1
(lp1131
(dp1132
g12
I13719
sg13
S'Napoleon'
p1133
sa(dp1134
g12
I13791
sg13
S'Holy_Roman_Empire'
p1135
sa(dp1136
g12
I13912
sg13
S'Poles'
p1137
sasg12
I14190
sg13
S'Russian_Empire'
p1138
sa(dp1139
g1
(lp1140
(dp1141
g12
I13740
sg13
S'Babylonia'
p1142
sa(dp1143
g12
I13850
sg13
S'Jews'
p1144
sa(dp1145
g12
I13852
sg13
S'Turkish_people'
p1146
sa(dp1147
g12
I13888
sg13
S'Muhammad'
p1148
sa(dp1149
g12
I13895
sg13
S'Arabs'
p1150
sa(dp1151
g12
I13996
sg13
S'Torah'
p1152
sa(dp1153
g12
I14030
sg13
S'Quran'
p1154
sa(dp1155
g12
I14070
sg13
S'Iranian_peoples'
p1156
sasg12
I14204
sg13
S'Assyria'
p1157
sa(dp1158
g1
(lp1159
(dp1160
g12
I13760
sg13
S'Roman_emperor'
p1161
sa(dp1162
g12
I13771
sg13
S'Franks'
p1163
sa(dp1164
g12
I14000
sg13
S'Byzantine_Empire'
p1165
sasg12
I14213
sg13
S'Middle_Ages'
p1166
sa(dp1167
g1
(lp1168
(dp1169
g12
I13762
sg13
S'Pythagoras'
p1170
sa(dp1171
g12
I13783
sg13
S'Ancient_Greek'
p1172
sa(dp1173
g12
I13893
sg13
S'Renaissance'
p1174
sa(dp1175
g12
I13948
sg13
S'Greek_mythology'
p1176
sa(dp1177
g12
I13967
sg13
S'Crete'
p1178
sasg12
I14214
sg13
S'Ancient_Greece'
p1179
sa(dp1180
g1
(lp1181
(dp1182
g12
I13769
sg13
S'Medes'
p1183
sa(dp1184
g12
I14036
sg13
S'History_of_India'
p1185
sa(dp1186
g12
I14064
sg13
S'Mongol_Empire'
p1187
sa(dp1188
g12
I14081
sg13
S'Phoenicia'
p1189
sasg12
I14217
sg13
S'Yuan_dynasty'
p1190
sasg12
I14326
sg13
S'Roman_Empire'
p1191
sasg12
I14364
sg13
S'Ottoman_Empire'
p1192
sasg12
I14382
sg13
S'France'
p1193
sasg12
I14384
sg13
S'United_States'
p1194
sa(dp1195
g1
(lp1196
(dp1197
g1
(lp1198
(dp1199
g1
(lp1200
(dp1201
g1
(lp1202
(dp1203
g12
I13684
sg13
S'Mass_media'
p1204
sa(dp1205
g12
I13858
sg13
S'Radio'
p1206
sasg12
I14160
sg13
S'Computer_network'
p1207
sa(dp1208
g12
I13770
sg13
S'Communications_satellite'
p1209
sasg12
I14304
sg13
S'History_of_the_Internet'
p1210
sa(dp1211
g1
(lp1212
(dp1213
g1
(lp1214
(dp1215
g12
I13699
sg13
S'Hypertext_Transfer_Protocol'
p1216
sa(dp1217
g12
I13707
sg13
S'Computer'
p1218
sa(dp1219
g12
I13829
sg13
S'Software_design'
p1220
sasg12
I14175
sg13
S'XML'
p1221
sa(dp1222
g1
(lp1223
(dp1224
g12
I13827
sg13
S'Free_Software_Foundation'
p1225
sa(dp1226
g12
I13931
sg13
S'Android_(operating_system)'
p1227
sasg12
I14240
sg13
S'Microsoft_Windows'
p1228
sa(dp1229
g1
(lp1230
(dp1231
g12
I14053
sg13
S'Tagged_Image_File_Format'
p1232
sa(dp1233
g12
I14114
sg13
S'Camera'
p1234
sasg12
I14284
sg13
S'JPEG'
p1235
sasg12
I14319
sg13
S'Operating_system'
p1236
sa(dp1237
g1
(lp1238
(dp1239
g12
I13702
sg13
S'Video_game_console'
p1240
sa(dp1241
g12
I13725
sg13
S'Compact_disc'
p1242
sa(dp1243
g12
I13751
sg13
S'Fujitsu'
p1244
sa(dp1245
g12
I13778
sg13
S'Amazon.com'
p1246
sasg12
I14177
sg13
S'Sony'
p1247
sasg12
I14356
sg13
S'Linux'
p1248
sa(dp1249
g1
(lp1250
(dp1251
g1
(lp1252
(dp1253
g1
(lp1254
(dp1255
g1
(lp1256
(dp1257
g12
I13687
sg13
S'Gmina'
p1258
sa(dp1259
g12
I13870
sg13
S'Baladiyah'
p1260
sasg12
I14163
sg13
S'Voivodeship'
p1261
sa(dp1262
g1
(lp1263
(dp1264
g12
I13908
sg13
S'Autonomous_communities_of_Spain'
p1265
sa(dp1266
g12
I13930
sg13
S'Exarch'
p1267
sa(dp1268
g12
I14083
sg13
S'Independent_city'
p1269
sa(dp1270
g12
I14112
sg13
S'Region'
p1271
sasg12
I14260
sg13
S'Autonomous_administrative_division'
p1272
sasg12
I14307
sg13
S'Administrative_division'
p1273
sa(dp1274
g1
(lp1275
(dp1276
g1
(lp1277
(dp1278
g12
I13695
sg13
S'Governor-General'
p1279
sa(dp1280
g12
I13957
sg13
S'Katepano'
p1281
sa(dp1282
g12
I14143
sg13
S'Municipalities_and_communities_of_Greece'
p1283
sasg12
I14171
sg13
S'Exclusive_economic_zone'
p1284
sa(dp1285
g12
I13864
sg13
S'Merindad'
p1286
sa(dp1287
g1
(lp1288
(dp1289
g12
I13953
sg13
S'Hemiptera'
p1290
sa(dp1291
g12
I14142
sg13
S'Geometer_moth'
p1292
sasg12
I14270
sg13
S'Endopterygota'
p1293
sa(dp1294
g1
(lp1295
(dp1296
g12
I14090
sg13
S'Jalisco'
p1297
sa(dp1298
g12
I14150
sg13
S'Copyright_status_of_work_by_the_U.S._government'
p1299
sasg12
I14287
sg13
S'Baja_California'
p1300
sa(dp1301
g1
(lp1302
(dp1303
g12
I14116
sg13
S'Capital_city'
p1304
sa(dp1305
g12
I14130
sg13
S'Town'
p1306
sasg12
I14291
sg13
S'Village'
p1307
sa(dp1308
g12
I14138
sg13
S'Dependent_territory'
p1309
sasg12
I14315
sg13
S'Pterygota'
p1310
sasg12
I14358
sg13
S'Butterfly'
p1311
sa(dp1312
g1
(lp1313
(dp1314
g1
(lp1315
(dp1316
g1
(lp1317
(dp1318
g12
I13717
sg13
S'Augustine_of_Hippo'
p1319
sa(dp1320
g12
I13746
sg13
S'Historic_districts_in_the_United_States'
p1321
sa(dp1322
g12
I14091
sg13
S'Anselm_of_Canterbury'
p1323
sasg12
I14189
sg13
S'National_Register_of_Historic_Places_listings_in_Alabama'
p1324
sa(dp1325
g12
I13744
sg13
S'National_Register_of_Historic_Places_listings_in_Kansas'
p1326
sasg12
I14327
sg13
S'National_Register_of_Historic_Places_listings_in_Tennessee'
p1327
sa(dp1328
g1
(lp1329
(dp1330
g12
I13727
sg13
S'Timeline_of_United_States_discoveries'
p1331
sa(dp1332
g1
(lp1333
(dp1334
g12
I13735
sg13
S'Economic_history_of_the_United_States'
p1335
sa(dp1336
g12
I13906
sg13
S'Taxation_in_the_United_States'
p1337
sasg12
I14201
sg13
S'Independent_agencies_of_the_United_States_government'
p1338
sa(dp1339
g1
(lp1340
(dp1341
g12
I14125
sg13
S'__PRUNEME__'
p1342
sa(dp1343
g12
I14151
sg13
S'__PRUNEME__'
p1344
sasg12
I14293
sg13
S'Doctrine'
p1345
sasg12
I14330
sg13
S'Federal_Reserve_System'
p1346
sa(dp1347
g1
(lp1348
(dp1349
g1
(lp1350
(dp1351
g12
I14089
sg13
S'Rock_and_roll'
p1352
sa(dp1353
g12
I14107
sg13
S'__PRUNEME__'
p1354
sasg12
I14286
sg13
S'Jazz'
p1355
sa(dp1356
g12
I14096
sg13
S'Radio_in_the_United_States'
p1357
sasg12
I14351
sg13
S'Music_of_the_United_States'
p1358
sasg12
I14365
sg13
S'Separation_of_powers_under_the_United_States_Constitution'
p1359
sa(dp1360
g1
(lp1361
(dp1362
g1
(lp1363
(dp1364
g1
(lp1365
(dp1366
g12
I13772
sg13
S'Voice_of_America'
p1367
sa(dp1368
g12
I14113
sg13
S'Australian_Broadcasting_Corporation'
p1369
sa(dp1370
g12
I14120
sg13
S'Vodafone'
p1371
sasg12
I14219
sg13
S'Comcast'
p1372
sa(dp1373
g1
(lp1374
(dp1375
g12
I14117
sg13
S'Television_in_the_United_Kingdom'
p1376
sa(dp1377
g12
I14140
sg13
S'Telephone_numbering_plan'
p1378
sa(dp1379
g12
I14152
sg13
S'__PRUNEME__'
p1380
sasg12
I14292
sg13
S'Virgin_Media'
p1381
sasg12
I14339
sg13
S'Cable_television'
p1382
sa(dp1383
g1
(lp1384
(dp1385
g1
(lp1386
(dp1387
g12
I13832
sg13
S'Telecommunications_in_Fiji'
p1388
sa(dp1389
g12
I13842
sg13
S'Telecommunications_in_Bosnia_and_Herzegovina'
p1390
sasg12
I14243
sg13
S'Telecommunications_in_Iraq'
p1391
sa(dp1392
g12
I13839
sg13
S'Telecommunications_in_Egypt'
p1393
sasg12
I14346
sg13
S'Telecommunications_in_Turkey'
p1394
sa(dp1395
g1
(lp1396
(dp1397
g12
I13966
sg13
S'Communications_in_Liberia'
p1398
sa(dp1399
g12
I14149
sg13
S'__PRUNEME__'
p1400
sasg12
I14349
sg13
S'Communications_in_Burundi'
p1401
sasg12
I14372
sg13
S'Telecommunications_in_Kenya'
p1402
sasg12
I14378
sg13
S'Lepidoptera'
p1403
sa(dp1404
g1
(lp1405
(dp1406
g1
(lp1407
(dp1408
g1
(lp1409
(dp1410
g12
I13690
sg13
S'United_States_Armed_Forces'
p1411
sa(dp1412
g12
I13891
sg13
S'Republican_Party_(United_States)'
p1413
sa(dp1414
g12
I13959
sg13
S'Religion_in_the_United_States'
p1415
sa(dp1416
g12
I14102
sg13
S'American_English'
p1417
sasg12
I14166
sg13
S'Supreme_Court_of_the_United_States'
p1418
sa(dp1419
g1
(lp1420
(dp1421
g12
I13865
sg13
S'Maine'
p1422
sa(dp1423
g12
I14007
sg13
S'Hawaii'
p1424
sa(dp1425
g12
I14067
sg13
S'Mississippi'
p1426
sasg12
I14252
sg13
S'Michigan'
p1427
sasg12
I14310
sg13
S'Federal_government_of_the_United_States'
p1428
sa(dp1429
g1
(lp1430
(dp1431
g1
(lp1432
(dp1433
g12
I13692
sg13
S'St._Louis'
p1434
sa(dp1435
g12
I13761
sg13
S'New_Haven_Connecticut'
p1436
sasg12
I14168
sg13
S'Philadelphia'
p1437
sa(dp1438
g1
(lp1439
(dp1440
g12
I13807
sg13
S'Fox_Broadcasting_Company'
p1441
sa(dp1442
g12
I13846
sg13
S'San_Diego'
p1443
sa(dp1444
g12
I13915
sg13
S'Manhattan'
p1445
sa(dp1446
g12
I13944
sg13
S'San_Francisco'
p1447
sa(dp1448
g12
I13994
sg13
S'National_Hockey_League'
p1449
sa(dp1450
g12
I14026
sg13
S'St._Louis_Cardinals'
p1451
sasg12
I14233
sg13
S'National_Football_League'
p1452
sasg12
I14312
sg13
S'New_York_City'
p1453
sa(dp1454
g1
(lp1455
(dp1456
g1
(lp1457
(dp1458
g12
I13700
sg13
S'Hispanic_and_Latino_Americans'
p1459
sa(dp1460
g12
I13781
sg13
S'Pacific_Islands_American'
p1461
sa(dp1462
g12
I13816
sg13
S'United_States_presidential_election_2012'
p1463
sa(dp1464
g12
I13987
sg13
S'French_American'
p1465
sa(dp1466
g12
I14103
sg13
S'Slavery_in_the_United_States'
p1467
sa(dp1468
g12
I14148
sg13
S'Washington_(U.S._state)'
p1469
sasg12
I14176
sg13
S'Texas'
p1470
sa(dp1471
g1
(lp1472
(dp1473
g12
I13790
sg13
S'William_Howard_Taft'
p1474
sa(dp1475
g12
I13871
sg13
S'Barack_Obama'
p1476
sasg12
I14228
sg13
S'George_W._Bush'
p1477
sa(dp1478
g1
(lp1479
(dp1480
g12
I13878
sg13
S'United_States_Department_of_Defense'
p1481
sa(dp1482
g12
I13899
sg13
S'National_Oceanic_and_Atmospheric_Administration'
p1483
sa(dp1484
g12
I13933
sg13
S'United_States_Forest_Service'
p1485
sa(dp1486
g12
I14060
sg13
S'United_States_Department_of_Labor'
p1487
sa(dp1488
g12
I14087
sg13
S'United_States_National_Library_of_Medicine'
p1489
sa(dp1490
g12
I14098
sg13
S'White_House'
p1491
sasg12
I14255
sg13
S'National_Park_Service'
p1492
sa(dp1493
g1
(lp1494
(dp1495
g12
I13887
sg13
S'United_States_Census'
p1496
sa(dp1497
g12
I13963
sg13
S'2010_United_States_Census'
p1498
sasg12
I14258
sg13
S'United_States_Census_Bureau'
p1499
sa(dp1500
g12
I13943
sg13
S'Richmond_Virginia'
p1501
sasg12
I14320
sg13
S'California'
p1502
sa(dp1503
g1
(lp1504
(dp1505
g1
(lp1506
(dp1507
g12
I13796
sg13
S'Southern_United_States'
p1508
sa(dp1509
g12
I13971
sg13
S'Northeastern_United_States'
p1510
sa(dp1511
g12
I14119
sg13
S'Great_Depression'
p1512
sa(dp1513
g12
I14123
sg13
S'Spanish_language_in_the_United_States'
p1514
sa(dp1515
g12
I14133
sg13
S'Mississippi_River'
p1516
sasg12
I14230
sg13
S'U.S._state'
p1517
sa(dp1518
g12
I13916
sg13
S'Outline_of_the_United_States'
p1519
sasg12
I14344
sg13
S'New_England'
p1520
sasg12
I14359
sg13
S'Washington_D.C.'
p1521
sasg12
I14385
sg13
S'Internet'
p1522
sasg12
I14386
sg13
S'International_Standard_Book_Number'
p1523
s(dp1524
I14336
(dp1525
g1
(lp1526
(dp1527
g1
(lp1528
(dp1529
g12
I13753
sg13
g973
sa(dp1530
g12
I13809
sg13
g975
sa(dp1531
g12
I13974
sg13
g977
sasg12
I14210
sg13
g978
sa(dp1532
g1
(lp1533
(dp1534
g12
I13785
sg13
g982
sa(dp1535
g12
I13823
sg13
g984
sa(dp1536
g12
I14006
sg13
g986
sa(dp1537
g12
I14108
sg13
g988
sasg12
I14226
sg13
g989
sa(dp1538
g12
I13903
sg13
g991
sasg12
I14336
sg13
g992
ssI14338
(dp1539
g1
(lp1540
(dp1541
g1
(lp1542
(dp1543
g12
I13763
sg13
g90
sa(dp1544
g12
I13766
sg13
g92
sasg12
I14215
sg13
g93
sa(dp1545
g1
(lp1546
(dp1547
g12
I13773
sg13
g97
sa(dp1548
g12
I14054
sg13
g99
sasg12
I14220
sg13
g100
sa(dp1549
g1
(lp1550
(dp1551
g12
I13774
sg13
g104
sa(dp1552
g12
I13900
sg13
g106
sa(dp1553
g12
I14111
sg13
g108
sasg12
I14221
sg13
g109
sa(dp1554
g1
(lp1555
(dp1556
g12
I13793
sg13
g113
sa(dp1557
g12
I13840
sg13
g115
sasg12
I14229
sg13
g116
sasg12
I14338
sg13
g117
ssI14339
(dp1558
g1
(lp1559
(dp1560
g1
(lp1561
(dp1562
g12
I13772
sg13
g1367
sa(dp1563
g12
I14113
sg13
g1369
sa(dp1564
g12
I14120
sg13
g1371
sasg12
I14219
sg13
g1372
sa(dp1565
g1
(lp1566
(dp1567
g12
I14117
sg13
g1376
sa(dp1568
g12
I14140
sg13
g1378
sa(dp1569
g12
I14152
sg13
g1380
sasg12
I14292
sg13
g1381
sasg12
I14339
sg13
g1382
ssI14340
(dp1570
g1
(lp1571
(dp1572
g1
(lp1573
(dp1574
g12
I13779
sg13
g1048
sa(dp1575
g12
I13798
sg13
g1050
sa(dp1576
g12
I14109
sg13
g1052
sa(dp1577
g12
I14110
sg13
g1054
sasg12
I14223
sg13
g1055
sa(dp1578
g1
(lp1579
(dp1580
g12
I13818
sg13
g1059
sa(dp1581
g12
I13890
sg13
g1061
sasg12
I14237
sg13
g1062
sasg12
I14340
sg13
g1063
ssI14341
(dp1582
g1
(lp1583
(dp1584
g1
(lp1585
(dp1586
g12
I13693
sg13
g333
sa(dp1587
g12
I13780
sg13
g335
sa(dp1588
g12
I13806
sg13
g337
sa(dp1589
g12
I13998
sg13
g339
sa(dp1590
g12
I14002
sg13
g341
sa(dp1591
g12
I14027
sg13
g343
sa(dp1592
g12
I14039
sg13
g345
sa(dp1593
g12
I14124
sg13
g347
sasg12
I14224
sg13
g348
sa(dp1594
g1
(lp1595
(dp1596
g12
I14017
sg13
g352
sa(dp1597
g12
I14115
sg13
g354
sasg12
I14278
sg13
g355
sasg12
I14341
sg13
g356
ssI14342
(dp1598
g1
(lp1599
(dp1600
g1
(lp1601
(dp1602
g12
I13784
sg13
g140
sa(dp1603
g12
I13945
sg13
g142
sa(dp1604
g12
I14023
sg13
g144
sasg12
I14225
sg13
g145
sa(dp1605
g1
(lp1606
(dp1607
g12
I13884
sg13
g149
sa(dp1608
g12
I13946
sg13
g151
sasg12
I14257
sg13
g152
sasg12
I14342
sg13
g153
ssI14343
(dp1609
g1
(lp1610
(dp1611
g1
(lp1612
(dp1613
g12
I13787
sg13
g940
sa(dp1614
g12
I13876
sg13
g942
sasg12
I14227
sg13
g943
sa(dp1615
g1
(lp1616
(dp1617
g12
I13856
sg13
g947
sa(dp1618
g12
I13904
sg13
g949
sa(dp1619
g12
I14047
sg13
g951
sasg12
I14249
sg13
g952
sa(dp1620
g12
I13879
sg13
g954
sa(dp1621
g1
(lp1622
(dp1623
g12
I13925
sg13
g958
sa(dp1624
g12
I14063
sg13
g960
sa(dp1625
g12
I14076
sg13
g962
sasg12
I14265
sg13
g963
sasg12
I14343
sg13
g964
ssI14344
(dp1626
g1
(lp1627
(dp1628
g1
(lp1629
(dp1630
g12
I13796
sg13
g1508
sa(dp1631
g12
I13971
sg13
g1510
sa(dp1632
g12
I14119
sg13
g1512
sa(dp1633
g12
I14123
sg13
g1514
sa(dp1634
g12
I14133
sg13
g1516
sasg12
I14230
sg13
g1517
sa(dp1635
g12
I13916
sg13
g1519
sasg12
I14344
sg13
g1520
ssI14346
(dp1636
g1
(lp1637
(dp1638
g1
(lp1639
(dp1640
g12
I13832
sg13
g1388
sa(dp1641
g12
I13842
sg13
g1390
sasg12
I14243
sg13
g1391
sa(dp1642
g12
I13839
sg13
g1393
sasg12
I14346
sg13
g1394
ssI14347
(dp1643
g1
(lp1644
(dp1645
g1
(lp1646
(dp1647
g12
I13857
sg13
g295
sa(dp1648
g12
I13936
sg13
g297
sa(dp1649
g12
I13991
sg13
g299
sa(dp1650
g12
I14001
sg13
g301
sa(dp1651
g12
I14005
sg13
g303
sasg12
I14250
sg13
g304
sa(dp1652
g12
I13954
sg13
g306
sasg12
I14347
sg13
g307
ssI14348
(dp1653
g1
(lp1654
(dp1655
g12
I13919
sg13
g194
sa(dp1656
g12
I14009
sg13
g196
sasg12
I14348
sg13
g197
ssI14349
(dp1657
g1
(lp1658
(dp1659
g12
I13966
sg13
g1398
sa(dp1660
g12
I14149
sg13
g1400
sasg12
I14349
sg13
g1401
ssI14350
(dp1661
g1
(lp1662
(dp1663
g12
I14071
sg13
g250
sa(dp1664
g12
I14145
sg13
g252
sasg12
I14350
sg13
g253
ssI14351
(dp1665
g1
(lp1666
(dp1667
g1
(lp1668
(dp1669
g12
I14089
sg13
g1352
sa(dp1670
g12
I14107
sg13
g1354
sasg12
I14286
sg13
g1355
sa(dp1671
g12
I14096
sg13
g1357
sasg12
I14351
sg13
g1358
ssI14352
(dp1672
g1
(lp1673
(dp1674
g1
(lp1675
(dp1676
g12
I14153
sg13
g17
sa(dp1677
g12
I14205
sg13
g32
sa(dp1678
g12
I14253
sg13
g45
sa(dp1679
g12
I14267
sg13
g52
sasg12
I14298
sg13
g53
sa(dp1680
g1
(lp1681
(dp1682
g12
I14187
sg13
g64
sa(dp1683
g12
I14202
sg13
g83
sasg12
I14325
sg13
g84
sa(dp1684
g1
(lp1685
(dp1686
g12
I14215
sg13
g93
sa(dp1687
g12
I14220
sg13
g100
sa(dp1688
g12
I14221
sg13
g109
sa(dp1689
g12
I14229
sg13
g116
sasg12
I14338
sg13
g117
sasg12
I14352
sg13
g118
ssI14353
(dp1690
g1
(lp1691
(dp1692
g1
(lp1693
(dp1694
g12
I14154
sg13
g376
sa(dp1695
g12
I14159
sg13
g385
sasg12
I14299
sg13
g386
sa(dp1696
g1
(lp1697
(dp1698
g12
I14157
sg13
g397
sa(dp1699
g12
I14183
sg13
g404
sa(dp1700
g12
I14184
sg13
g419
sa(dp1701
g12
I14234
sg13
g434
sa(dp1702
g12
I14247
sg13
g445
sasg12
I14302
sg13
g446
sa(dp1703
g1
(lp1704
(dp1705
g12
I14170
sg13
g461
sa(dp1706
g12
I14191
sg13
g478
sa(dp1707
g12
I13913
sg13
g480
sasg12
I14314
sg13
g481
sasg12
I14353
sg13
g482
ssI14354
(dp1708
g1
(lp1709
(dp1710
g1
(lp1711
(dp1712
g12
I13678
sg13
g609
sa(dp1713
g12
I13804
sg13
g611
sa(dp1714
g12
I14242
sg13
g624
sa(dp1715
g12
I14248
sg13
g633
sa(dp1716
g12
I14254
sg13
g642
sa(dp1717
g12
I14272
sg13
g653
sasg12
I14300
sg13
g654
sa(dp1718
g1
(lp1719
(dp1720
g12
I14156
sg13
g667
sa(dp1721
g12
I14180
sg13
g680
sa(dp1722
g12
I14222
sg13
g687
sa(dp1723
g12
I14279
sg13
g696
sasg12
I14301
sg13
g697
sa(dp1724
g1
(lp1725
(dp1726
g12
I14165
sg13
g710
sa(dp1727
g12
I14178
sg13
g721
sa(dp1728
g12
I14186
sg13
g732
sa(dp1729
g12
I14231
sg13
g739
sa(dp1730
g12
I14246
sg13
g750
sa(dp1731
g12
I14264
sg13
g767
sa(dp1732
g12
I14273
sg13
g776
sasg12
I14309
sg13
g777
sa(dp1733
g1
(lp1734
(dp1735
g12
I14174
sg13
g794
sa(dp1736
g12
I14211
sg13
g805
sa(dp1737
g12
I14245
sg13
g814
sa(dp1738
g12
I13989
sg13
g816
sasg12
I14318
sg13
g817
sa(dp1739
g1
(lp1740
(dp1741
g12
I14195
sg13
g832
sa(dp1742
g12
I14236
sg13
g851
sasg12
I14331
sg13
g852
sa(dp1743
g1
(lp1744
(dp1745
g12
I13826
sg13
g856
sa(dp1746
g12
I13965
sg13
g858
sasg12
I14239
sg13
g859
sasg12
I14354
sg13
g860
ssI14355
(dp1747
g1
(lp1748
(dp1749
g1
(lp1750
(dp1751
g12
I14158
sg13
g495
sa(dp1752
g12
I13929
sg13
g497
sasg12
I14303
sg13
g498
sa(dp1753
g1
(lp1754
(dp1755
g12
I13685
sg13
g502
sa(dp1756
g12
I13723
sg13
g504
sa(dp1757
g12
I13789
sg13
g506
sa(dp1758
g12
I13835
sg13
g508
sa(dp1759
g12
I13905
sg13
g510
sasg12
I14161
sg13
g511
sa(dp1760
g1
(lp1761
(dp1762
g12
I13688
sg13
g515
sa(dp1763
g12
I14269
sg13
g524
sa(dp1764
g12
I14280
sg13
g531
sasg12
I14308
sg13
g532
sasg12
I14355
sg13
g533
ssI14356
(dp1765
g1
(lp1766
(dp1767
g1
(lp1768
(dp1769
g12
I14160
sg13
g1207
sa(dp1770
g12
I13770
sg13
g1209
sasg12
I14304
sg13
g1210
sa(dp1771
g1
(lp1772
(dp1773
g12
I14175
sg13
g1221
sa(dp1774
g12
I14240
sg13
g1228
sa(dp1775
g12
I14284
sg13
g1235
sasg12
I14319
sg13
g1236
sa(dp1776
g1
(lp1777
(dp1778
g12
I13702
sg13
g1240
sa(dp1779
g12
I13725
sg13
g1242
sa(dp1780
g12
I13751
sg13
g1244
sa(dp1781
g12
I13778
sg13
g1246
sasg12
I14177
sg13
g1247
sasg12
I14356
sg13
g1248
ssI14357
(dp1782
g1
(lp1783
(dp1784
g1
(lp1785
(dp1786
g12
I14162
sg13
g131
sa(dp1787
g12
I13824
sg13
g133
sasg12
I14306
sg13
g134
sa(dp1788
g1
(lp1789
(dp1790
g12
I14225
sg13
g145
sa(dp1791
g12
I14257
sg13
g152
sasg12
I14342
sg13
g153
sasg12
I14357
sg13
g154
ssI14358
(dp1792
g1
(lp1793
(dp1794
g1
(lp1795
(dp1796
g12
I14163
sg13
g1261
sa(dp1797
g12
I14260
sg13
g1272
sasg12
I14307
sg13
g1273
sa(dp1798
g1
(lp1799
(dp1800
g12
I14171
sg13
g1284
sa(dp1801
g12
I13864
sg13
g1286
sa(dp1802
g12
I14270
sg13
g1293
sa(dp1803
g12
I14287
sg13
g1300
sa(dp1804
g12
I14291
sg13
g1307
sa(dp1805
g12
I14138
sg13
g1309
sasg12
I14315
sg13
g1310
sasg12
I14358
sg13
g1311
ssI14359
(dp1806
g1
(lp1807
(dp1808
g1
(lp1809
(dp1810
g12
I14166
sg13
g1418
sa(dp1811
g12
I14252
sg13
g1427
sasg12
I14310
sg13
g1428
sa(dp1812
g1
(lp1813
(dp1814
g12
I14168
sg13
g1437
sa(dp1815
g12
I14233
sg13
g1452
sasg12
I14312
sg13
g1453
sa(dp1816
g1
(lp1817
(dp1818
g12
I14176
sg13
g1470
sa(dp1819
g12
I14228
sg13
g1477
sa(dp1820
g12
I14255
sg13
g1492
sa(dp1821
g12
I14258
sg13
g1499
sa(dp1822
g12
I13943
sg13
g1501
sasg12
I14320
sg13
g1502
sa(dp1823
g1
(lp1824
(dp1825
g12
I14230
sg13
g1517
sa(dp1826
g12
I13916
sg13
g1519
sasg12
I14344
sg13
g1520
sasg12
I14359
sg13
g1521
ssI14361
(dp1827
g1
(lp1828
(dp1829
g1
(lp1830
(dp1831
g12
I14169
sg13
g212
sa(dp1832
g12
I14045
sg13
g214
sa(dp1833
g12
I14290
sg13
g221
sa(dp1834
g12
I14146
sg13
g223
sasg12
I14313
sg13
g224
sa(dp1835
g1
(lp1836
(dp1837
g12
I13706
sg13
g228
sa(dp1838
g12
I14235
sg13
g245
sasg12
I14323
sg13
g246
sa(dp1839
g1
(lp1840
(dp1841
g12
I14071
sg13
g250
sa(dp1842
g12
I14145
sg13
g252
sasg12
I14350
sg13
g253
sasg12
I14361
sg13
g254
ssI14362
(dp1843
g1
(lp1844
(dp1845
g1
(lp1846
(dp1847
g12
I14172
sg13
g550
sa(dp1848
g12
I14196
sg13
g569
sasg12
I14316
sg13
g570
sa(dp1849
g1
(lp1850
(dp1851
g12
I14179
sg13
g587
sa(dp1852
g12
I14216
sg13
g600
sasg12
I14322
sg13
g601
sasg12
I14362
sg13
g602
ssI14363
(dp1853
g1
(lp1854
(dp1855
g1
(lp1856
(dp1857
g12
I14173
sg13
g1028
sa(dp1858
g12
I14209
sg13
g1041
sasg12
I14317
sg13
g1042
sa(dp1859
g1
(lp1860
(dp1861
g12
I14223
sg13
g1055
sa(dp1862
g12
I14237
sg13
g1062
sasg12
I14340
sg13
g1063
sasg12
I14363
sg13
g1064
ssI14364
(dp1863
g1
(lp1864
(dp1865
g1
(lp1866
(dp1867
g12
I14185
sg13
g1079
sa(dp1868
g12
I14199
sg13
g1094
sa(dp1869
g12
I14275
sg13
g1105
sasg12
I14324
sg13
g1106
sa(dp1870
g1
(lp1871
(dp1872
g12
I14188
sg13
g1129
sa(dp1873
g12
I14190
sg13
g1138
sa(dp1874
g12
I14204
sg13
g1157
sa(dp1875
g12
I14213
sg13
g1166
sa(dp1876
g12
I14214
sg13
g1179
sa(dp1877
g12
I14217
sg13
g1190
sasg12
I14326
sg13
g1191
sasg12
I14364
sg13
g1192
ssI14365
(dp1878
g1
(lp1879
(dp1880
g1
(lp1881
(dp1882
g12
I14189
sg13
g1324
sa(dp1883
g12
I13744
sg13
g1326
sasg12
I14327
sg13
g1327
sa(dp1884
g1
(lp1885
(dp1886
g12
I13727
sg13
g1331
sa(dp1887
g12
I14201
sg13
g1338
sa(dp1888
g12
I14293
sg13
g1345
sasg12
I14330
sg13
g1346
sa(dp1889
g1
(lp1890
(dp1891
g12
I14286
sg13
g1355
sa(dp1892
g12
I14096
sg13
g1357
sasg12
I14351
sg13
g1358
sasg12
I14365
sg13
g1359
ssI14366
(dp1893
g1
(lp1894
(dp1895
g1
(lp1896
(dp1897
g12
I14192
sg13
g275
sa(dp1898
g12
I14206
sg13
g288
sasg12
I14328
sg13
g289
sa(dp1899
g1
(lp1900
(dp1901
g12
I14250
sg13
g304
sa(dp1902
g12
I13954
sg13
g306
sasg12
I14347
sg13
g307
sasg12
I14366
sg13
g308
ssI14367
(dp1903
g1
(lp1904
(dp1905
g12
I13726
sg13
g158
sa(dp1906
g1
(lp1907
(dp1908
g12
I13732
sg13
g162
sa(dp1909
g12
I14281
sg13
g169
sa(dp1910
g12
I14051
sg13
g171
sa(dp1911
g12
I14094
sg13
g173
sasg12
I14332
sg13
g174
sasg12
I14367
sg13
g175
ssI14368
(dp1912
g1
(lp1913
(dp1914
g1
(lp1915
(dp1916
g12
I13734
sg13
g181
sa(dp1917
g12
I13820
sg13
g183
sa(dp1918
g12
I13935
sg13
g185
sa(dp1919
g12
I13999
sg13
g187
sa(dp1920
g12
I14056
sg13
g189
sasg12
I14200
sg13
g190
sa(dp1921
g1
(lp1922
(dp1923
g12
I13919
sg13
g194
sa(dp1924
g12
I14009
sg13
g196
sasg12
I14348
sg13
g197
sasg12
I14368
sg13
g198
ssI14369
(dp1925
g1
(lp1926
(dp1927
g1
(lp1928
(dp1929
g12
I13739
sg13
g925
sa(dp1930
g12
I13834
sg13
g927
sa(dp1931
g12
I13863
sg13
g929
sa(dp1932
g12
I13896
sg13
g931
sa(dp1933
g12
I13909
sg13
g933
sasg12
I14203
sg13
g934
sa(dp1934
g1
(lp1935
(dp1936
g12
I14227
sg13
g943
sa(dp1937
g12
I14249
sg13
g952
sa(dp1938
g12
I13879
sg13
g954
sa(dp1939
g12
I14265
sg13
g963
sasg12
I14343
sg13
g964
sasg12
I14369
sg13
g965
ssI14370
(dp1940
g1
(lp1941
(dp1942
g1
(lp1943
(dp1944
g12
I13745
sg13
g314
sa(dp1945
g12
I13860
sg13
g316
sa(dp1946
g12
I13892
sg13
g318
sa(dp1947
g12
I13898
sg13
g320
sa(dp1948
g12
I13990
sg13
g322
sa(dp1949
g12
I14073
sg13
g324
sa(dp1950
g12
I14126
sg13
g326
sasg12
I14208
sg13
g327
sa(dp1951
g1
(lp1952
(dp1953
g12
I14224
sg13
g348
sa(dp1954
g12
I14278
sg13
g355
sasg12
I14341
sg13
g356
sasg12
I14370
sg13
g357
ssI14371
(dp1955
g1
(lp1956
(dp1957
g1
(lp1958
(dp1959
g12
I14210
sg13
g978
sa(dp1960
g12
I14226
sg13
g989
sa(dp1961
g12
I13903
sg13
g991
sasg12
I14336
sg13
g992
sa(dp1962
g1
(lp1963
(dp1964
g12
I13757
sg13
g996
sa(dp1965
g12
I13810
sg13
g998
sa(dp1966
g12
I13819
sg13
g1000
sa(dp1967
g12
I14020
sg13
g1002
sasg12
I14212
sg13
g1003
sasg12
I14371
sg13
g1004
ssI14372
(dp1968
g1
(lp1969
(dp1970
g1
(lp1971
(dp1972
g12
I14219
sg13
g1372
sa(dp1973
g12
I14292
sg13
g1381
sasg12
I14339
sg13
g1382
sa(dp1974
g1
(lp1975
(dp1976
g12
I14243
sg13
g1391
sa(dp1977
g12
I13839
sg13
g1393
sasg12
I14346
sg13
g1394
sa(dp1978
g1
(lp1979
(dp1980
g12
I13966
sg13
g1398
sa(dp1981
g12
I14149
sg13
g1400
sasg12
I14349
sg13
g1401
sasg12
I14372
sg13
g1402
ssI14374
(dp1982
g1
(lp1983
(dp1984
g1
(lp1985
(dp1986
g12
I14299
sg13
g386
sa(dp1987
g12
I14302
sg13
g446
sa(dp1988
g12
I14314
sg13
g481
sasg12
I14353
sg13
g482
sa(dp1989
g1
(lp1990
(dp1991
g12
I14303
sg13
g498
sa(dp1992
g12
I14161
sg13
g511
sa(dp1993
g12
I14308
sg13
g532
sasg12
I14355
sg13
g533
sa(dp1994
g1
(lp1995
(dp1996
g12
I14316
sg13
g570
sa(dp1997
g12
I14322
sg13
g601
sasg12
I14362
sg13
g602
sasg12
I14374
sg13
g603
ssI14377
(dp1998
g1
(lp1999
(dp2000
g1
(lp2001
(dp2002
g12
I14306
sg13
g134
sa(dp2003
g12
I14342
sg13
g153
sasg12
I14357
sg13
g154
sa(dp2004
g1
(lp2005
(dp2006
g12
I13726
sg13
g158
sa(dp2007
g12
I14332
sg13
g174
sasg12
I14367
sg13
g175
sa(dp2008
g1
(lp2009
(dp2010
g12
I14200
sg13
g190
sa(dp2011
g12
I14348
sg13
g197
sasg12
I14368
sg13
g198
sasg12
I14377
sg13
g199
ssI14378
(dp2012
g1
(lp2013
(dp2014
g1
(lp2015
(dp2016
g12
I14307
sg13
g1273
sa(dp2017
g12
I14315
sg13
g1310
sasg12
I14358
sg13
g1311
sa(dp2018
g1
(lp2019
(dp2020
g12
I14327
sg13
g1327
sa(dp2021
g12
I14330
sg13
g1346
sa(dp2022
g12
I14351
sg13
g1358
sasg12
I14365
sg13
g1359
sa(dp2023
g1
(lp2024
(dp2025
g12
I14339
sg13
g1382
sa(dp2026
g12
I14346
sg13
g1394
sa(dp2027
g12
I14349
sg13
g1401
sasg12
I14372
sg13
g1402
sasg12
I14378
sg13
g1403
ssI14380
(dp2028
g1
(lp2029
(dp2030
g1
(lp2031
(dp2032
g12
I14167
sg13
g879
sa(dp2033
g12
I14182
sg13
g892
sa(dp2034
g12
I14197
sg13
g901
sa(dp2035
g12
I14241
sg13
g918
sasg12
I14311
sg13
g919
sa(dp2036
g1
(lp2037
(dp2038
g12
I14203
sg13
g934
sa(dp2039
g12
I14343
sg13
g964
sasg12
I14369
sg13
g965
sa(dp2040
g1
(lp2041
(dp2042
g12
I14336
sg13
g992
sa(dp2043
g12
I14212
sg13
g1003
sasg12
I14371
sg13
g1004
sasg12
I14380
sg13
g1005
ssI14381
(dp2044
g1
(lp2045
(dp2046
g1
(lp2047
(dp2048
g12
I14313
sg13
g224
sa(dp2049
g12
I14323
sg13
g246
sa(dp2050
g12
I14350
sg13
g253
sasg12
I14361
sg13
g254
sa(dp2051
g1
(lp2052
(dp2053
g12
I14328
sg13
g289
sa(dp2054
g12
I14347
sg13
g307
sasg12
I14366
sg13
g308
sa(dp2055
g1
(lp2056
(dp2057
g12
I14208
sg13
g327
sa(dp2058
g12
I14341
sg13
g356
sasg12
I14370
sg13
g357
sasg12
I14381
sg13
g358
ssI14382
(dp2059
g1
(lp2060
(dp2061
g1
(lp2062
(dp2063
g12
I14317
sg13
g1042
sa(dp2064
g12
I14340
sg13
g1063
sasg12
I14363
sg13
g1064
sa(dp2065
g1
(lp2066
(dp2067
g12
I14324
sg13
g1106
sa(dp2068
g12
I14326
sg13
g1191
sasg12
I14364
sg13
g1192
sasg12
I14382
sg13
g1193
ssI14383
(dp2069
g1
(lp2070
(dp2071
g1
(lp2072
(dp2073
g12
I14298
sg13
g53
sa(dp2074
g12
I14325
sg13
g84
sa(dp2075
g12
I14338
sg13
g117
sasg12
I14352
sg13
g118
sa(dp2076
g1
(lp2077
(dp2078
g12
I14357
sg13
g154
sa(dp2079
g12
I14367
sg13
g175
sa(dp2080
g12
I14368
sg13
g198
sasg12
I14377
sg13
g199
sa(dp2081
g1
(lp2082
(dp2083
g12
I14361
sg13
g254
sa(dp2084
g12
I14366
sg13
g308
sa(dp2085
g12
I14370
sg13
g357
sasg12
I14381
sg13
g358
sasg12
I14383
sg13
g359
ssI14384
(dp2086
g1
(lp2087
(dp2088
g1
(lp2089
(dp2090
g12
I14353
sg13
g482
sa(dp2091
g12
I14355
sg13
g533
sa(dp2092
g12
I14362
sg13
g602
sasg12
I14374
sg13
g603
sa(dp2093
g1
(lp2094
(dp2095
g12
I14300
sg13
g654
sa(dp2096
g12
I14301
sg13
g697
sa(dp2097
g12
I14309
sg13
g777
sa(dp2098
g12
I14318
sg13
g817
sa(dp2099
g12
I14331
sg13
g852
sa(dp2100
g12
I14239
sg13
g859
sasg12
I14354
sg13
g860
sa(dp2101
g1
(lp2102
(dp2103
g12
I14311
sg13
g919
sa(dp2104
g12
I14369
sg13
g965
sa(dp2105
g12
I14371
sg13
g1004
sasg12
I14380
sg13
g1005
sa(dp2106
g1
(lp2107
(dp2108
g12
I14363
sg13
g1064
sa(dp2109
g12
I14364
sg13
g1192
sasg12
I14382
sg13
g1193
sasg12
I14384
sg13
g1194
ssI14385
(dp2110
g1
(lp2111
(dp2112
g1
(lp2113
(dp2114
g12
I14304
sg13
g1210
sa(dp2115
g12
I14319
sg13
g1236
sa(dp2116
g12
I14177
sg13
g1247
sasg12
I14356
sg13
g1248
sa(dp2117
g1
(lp2118
(dp2119
g12
I14358
sg13
g1311
sa(dp2120
g12
I14365
sg13
g1359
sa(dp2121
g12
I14372
sg13
g1402
sasg12
I14378
sg13
g1403
sa(dp2122
g1
(lp2123
(dp2124
g12
I14310
sg13
g1428
sa(dp2125
g12
I14312
sg13
g1453
sa(dp2126
g12
I14320
sg13
g1502
sa(dp2127
g12
I14344
sg13
g1520
sasg12
I14359
sg13
g1521
sasg12
I14385
sg13
g1522
ssI14386
(dp2128
g1
(lp2129
(dp2130
g1
(lp2131
(dp2132
g12
I14352
sg13
g118
sa(dp2133
g12
I14377
sg13
g199
sa(dp2134
g12
I14381
sg13
g358
sasg12
I14383
sg13
g359
sa(dp2135
g1
(lp2136
(dp2137
g12
I14374
sg13
g603
sa(dp2138
g12
I14354
sg13
g860
sa(dp2139
g12
I14380
sg13
g1005
sa(dp2140
g12
I14382
sg13
g1193
sasg12
I14384
sg13
g1194
sa(dp2141
g1
(lp2142
(dp2143
g12
I14356
sg13
g1248
sa(dp2144
g12
I14378
sg13
g1403
sa(dp2145
g12
I14359
sg13
g1521
sasg12
I14385
sg13
g1522
sasg12
I14386
sg13
g1523
ssI13676
(dp2146
g12
I13676
sg13
g14
ssI13677
(dp2147
g12
I13677
sg13
g371
ssI13678
(dp2148
g12
I13678
sg13
g609
ssI13679
(dp2149
g12
I13679
sg13
g671
ssI13680
(dp2150
g12
I13680
sg13
g392
ssI13681
(dp2151
g12
I13681
sg13
g394
ssI13682
(dp2152
g12
I13682
sg13
g490
ssI13683
(dp2153
g12
I13683
sg13
g380
ssI13684
(dp2154
g12
I13684
sg13
g1204
ssI13685
(dp2155
g12
I13685
sg13
g502
ssI13686
(dp2156
g12
I13686
sg13
g128
ssI13687
(dp2157
g12
I13687
sg13
g1258
ssI13688
(dp2158
g12
I13688
sg13
g515
ssI13689
(dp2159
g12
I13689
sg13
g703
ssI13690
(dp2160
g12
I13690
sg13
g1411
ssI13691
(dp2161
g12
I13691
sg13
g868
ssI13692
(dp2162
g12
I13692
sg13
g1434
ssI13693
(dp2163
g12
I13693
sg13
g333
ssI13694
(dp2164
g12
I13694
sg13
g452
ssI13695
(dp2165
g12
I13695
sg13
g1279
ssI13696
(dp2166
g12
I13696
sg13
g541
ssI13697
(dp2167
g12
I13697
sg13
g1015
ssI13698
(dp2168
g12
I13698
sg13
g783
ssI13699
(dp2169
g12
I13699
sg13
g1216
ssI13700
(dp2170
g12
I13700
sg13
g1459
ssI13701
(dp2171
g12
I13701
sg13
g382
ssI13702
(dp2172
g12
I13702
sg13
g1240
ssI13703
(dp2173
g12
I13703
sg13
g714
ssI13704
(dp2174
g12
I13704
sg13
g576
ssI13705
(dp2175
g12
I13705
sg13
g673
ssI13706
(dp2176
g12
I13706
sg13
g228
ssI13707
(dp2177
g12
I13707
sg13
g1218
ssI13708
(dp2178
g12
I13708
sg13
g883
ssI13709
(dp2179
g12
I13709
sg13
g401
ssI13710
(dp2180
g12
I13710
sg13
g408
ssI13711
(dp2181
g12
I13711
sg13
g1072
ssI13712
(dp2182
g12
I13712
sg13
g725
ssI13713
(dp2183
g12
I13713
sg13
g675
ssI13714
(dp2184
g12
I13714
sg13
g59
ssI13715
(dp2185
g12
I13715
sg13
g543
ssI13716
(dp2186
g12
I13716
sg13
g1112
ssI13717
(dp2187
g12
I13717
sg13
g1319
ssI13718
(dp2188
g12
I13718
sg13
g130
ssI13719
(dp2189
g12
I13719
sg13
g1133
ssI13720
(dp2190
g12
I13720
sg13
g1074
ssI13721
(dp2191
g12
I13721
sg13
g465
ssI13722
(dp2192
g12
I13722
sg13
g545
ssI13723
(dp2193
g12
I13723
sg13
g504
ssI13724
(dp2194
g12
I13724
sg13
g262
ssI13725
(dp2195
g12
I13725
sg13
g1242
ssI13726
(dp2196
g12
I13726
sg13
g158
ssI13727
(dp2197
g12
I13727
sg13
g1331
ssI13728
(dp2198
g12
I13728
sg13
g823
ssI13729
(dp2199
g12
I13729
sg13
g785
ssI13730
(dp2200
g12
I13730
sg13
g554
ssI13731
(dp2201
g12
I13731
sg13
g896
ssI13732
(dp2202
g12
I13732
sg13
g162
ssI13733
(dp2203
g12
I13733
sg13
g1083
ssI13734
(dp2204
g12
I13734
sg13
g181
ssI13735
(dp2205
g12
I13735
sg13
g1335
ssI13736
(dp2206
g12
I13736
sg13
g68
ssI13737
(dp2207
g12
I13737
sg13
g870
ssI13738
(dp2208
g12
I13738
sg13
g660
ssI13739
(dp2209
g12
I13739
sg13
g925
ssI13740
(dp2210
g12
I13740
sg13
g1142
ssI13741
(dp2211
g12
I13741
sg13
g21
ssI13742
(dp2212
g12
I13742
sg13
g279
ssI13743
(dp2213
g12
I13743
sg13
g281
ssI13744
(dp2214
g12
I13744
sg13
g1326
ssI13745
(dp2215
g12
I13745
sg13
g314
ssI13746
(dp2216
g12
I13746
sg13
g1321
ssI13747
(dp2217
g12
I13747
sg13
g677
ssI13748
(dp2218
g12
I13748
sg13
g384
ssI13749
(dp2219
g12
I13749
sg13
g403
ssI13750
(dp2220
g12
I13750
sg13
g1032
ssI13751
(dp2221
g12
I13751
sg13
g1244
ssI13752
(dp2222
g12
I13752
sg13
g410
ssI13753
(dp2223
g12
I13753
sg13
g973
ssI13754
(dp2224
g12
I13754
sg13
g798
ssI13755
(dp2225
g12
I13755
sg13
g373
ssI13756
(dp2226
g12
I13756
sg13
g454
ssI13757
(dp2227
g12
I13757
sg13
g996
ssI13758
(dp2228
g12
I13758
sg13
g578
ssI13759
(dp2229
g12
I13759
sg13
g70
ssI13760
(dp2230
g12
I13760
sg13
g1161
ssI13761
(dp2231
g12
I13761
sg13
g1436
ssI13762
(dp2232
g12
I13762
sg13
g1170
ssI13763
(dp2233
g12
I13763
sg13
g90
ssI13764
(dp2234
g12
I13764
sg13
g547
ssI13765
(dp2235
g12
I13765
sg13
g787
ssI13766
(dp2236
g12
I13766
sg13
g92
ssI13767
(dp2237
g12
I13767
sg13
g591
ssI13768
(dp2238
g12
I13768
sg13
g283
ssI13769
(dp2239
g12
I13769
sg13
g1183
ssI13770
(dp2240
g12
I13770
sg13
g1209
ssI13771
(dp2241
g12
I13771
sg13
g1163
ssI13772
(dp2242
g12
I13772
sg13
g1367
ssI13773
(dp2243
g12
I13773
sg13
g97
ssI13774
(dp2244
g12
I13774
sg13
g104
ssI13775
(dp2245
g12
I13775
sg13
g1034
ssI13776
(dp2246
g12
I13776
sg13
g556
ssI13777
(dp2247
g12
I13777
sg13
g684
ssI13778
(dp2248
g12
I13778
sg13
g1246
ssI13779
(dp2249
g12
I13779
sg13
g1048
ssI13780
(dp2250
g12
I13780
sg13
g335
ssI13781
(dp2251
g12
I13781
sg13
g1461
ssI13782
(dp2252
g12
I13782
sg13
g558
ssI13783
(dp2253
g12
I13783
sg13
g1172
ssI13784
(dp2254
g12
I13784
sg13
g140
ssI13785
(dp2255
g12
I13785
sg13
g982
ssI13786
(dp2256
g12
I13786
sg13
g1017
ssI13787
(dp2257
g12
I13787
sg13
g940
ssI13788
(dp2258
g12
I13788
sg13
g1085
ssI13789
(dp2259
g12
I13789
sg13
g506
ssI13790
(dp2260
g12
I13790
sg13
g1474
ssI13791
(dp2261
g12
I13791
sg13
g1135
ssI13792
(dp2262
g12
I13792
sg13
g580
ssI13793
(dp2263
g12
I13793
sg13
g113
ssI13794
(dp2264
g12
I13794
sg13
g72
ssI13795
(dp2265
g12
I13795
sg13
g872
ssI13796
(dp2266
g12
I13796
sg13
g1508
ssI13797
(dp2267
g12
I13797
sg13
g582
ssI13798
(dp2268
g12
I13798
sg13
g1050
ssI13799
(dp2269
g12
I13799
sg13
g679
ssI13800
(dp2270
g12
I13800
sg13
g1087
ssI13801
(dp2271
g12
I13801
sg13
g1036
ssI13802
(dp2272
g12
I13802
sg13
g736
ssI13803
(dp2273
g12
I13803
sg13
g593
ssI13804
(dp2274
g12
I13804
sg13
g611
ssI13805
(dp2275
g12
I13805
sg13
g209
ssI13806
(dp2276
g12
I13806
sg13
g337
ssI13807
(dp2277
g12
I13807
sg13
g1441
ssI13808
(dp2278
g12
I13808
sg13
g1089
ssI13809
(dp2279
g12
I13809
sg13
g975
ssI13810
(dp2280
g12
I13810
sg13
g998
ssI13811
(dp2281
g12
I13811
sg13
g396
ssI13812
(dp2282
g12
I13812
sg13
g423
ssI13813
(dp2283
g12
I13813
sg13
g232
ssI13814
(dp2284
g12
I13814
sg13
g836
ssI13815
(dp2285
g12
I13815
sg13
g425
ssI13816
(dp2286
g12
I13816
sg13
g1463
ssI13817
(dp2287
g12
I13817
sg13
g885
ssI13818
(dp2288
g12
I13818
sg13
g1059
ssI13819
(dp2289
g12
I13819
sg13
g1000
ssI13820
(dp2290
g12
I13820
sg13
g183
ssI13821
(dp2291
g12
I13821
sg13
g285
ssI13822
(dp2292
g12
I13822
sg13
g23
ssI13823
(dp2293
g12
I13823
sg13
g984
ssI13824
(dp2294
g12
I13824
sg13
g133
ssI13825
(dp2295
g12
I13825
sg13
g595
ssI13826
(dp2296
g12
I13826
sg13
g856
ssI13827
(dp2297
g12
I13827
sg13
g1225
ssI13828
(dp2298
g12
I13828
sg13
g898
ssI13829
(dp2299
g12
I13829
sg13
g1220
ssI13830
(dp2300
g12
I13830
sg13
g905
ssI13831
(dp2301
g12
I13831
sg13
g615
ssI13832
(dp2302
g12
I13832
sg13
g1388
ssI13833
(dp2303
g12
I13833
sg13
g456
ssI13834
(dp2304
g12
I13834
sg13
g927
ssI13835
(dp2305
g12
I13835
sg13
g508
ssI13836
(dp2306
g12
I13836
sg13
g61
ssI13837
(dp2307
g12
I13837
sg13
g560
ssI13838
(dp2308
g12
I13838
sg13
g412
ssI13839
(dp2309
g12
I13839
sg13
g1393
ssI13840
(dp2310
g12
I13840
sg13
g115
ssI13841
(dp2311
g12
I13841
sg13
g809
ssI13842
(dp2312
g12
I13842
sg13
g1390
ssI13843
(dp2313
g12
I13843
sg13
g375
ssI13844
(dp2314
g12
I13844
sg13
g800
ssI13845
(dp2315
g12
I13845
sg13
g743
ssI13846
(dp2316
g12
I13846
sg13
g1443
ssI13847
(dp2317
g12
I13847
sg13
g716
ssI13848
(dp2318
g12
I13848
sg13
g438
ssI13849
(dp2319
g12
I13849
sg13
g234
ssI13850
(dp2320
g12
I13850
sg13
g1144
ssI13851
(dp2321
g12
I13851
sg13
g264
ssI13852
(dp2322
g12
I13852
sg13
g1146
ssI13853
(dp2323
g12
I13853
sg13
g414
ssI13854
(dp2324
g12
I13854
sg13
g802
ssI13855
(dp2325
g12
I13855
sg13
g628
ssI13856
(dp2326
g12
I13856
sg13
g947
ssI13857
(dp2327
g12
I13857
sg13
g295
ssI13858
(dp2328
g12
I13858
sg13
g1206
ssI13859
(dp2329
g12
I13859
sg13
g811
ssI13860
(dp2330
g12
I13860
sg13
g316
ssI13861
(dp2331
g12
I13861
sg13
g1076
ssI13862
(dp2332
g12
I13862
sg13
g617
ssI13863
(dp2333
g12
I13863
sg13
g929
ssI13864
(dp2334
g12
I13864
sg13
g1286
ssI13865
(dp2335
g12
I13865
sg13
g1422
ssI13866
(dp2336
g12
I13866
sg13
g36
ssI13867
(dp2337
g12
I13867
sg13
g705
ssI13868
(dp2338
g12
I13868
sg13
g907
ssI13869
(dp2339
g12
I13869
sg13
g562
ssI13870
(dp2340
g12
I13870
sg13
g1260
ssI13871
(dp2341
g12
I13871
sg13
g1476
ssI13872
(dp2342
g12
I13872
sg13
g637
ssI13873
(dp2343
g12
I13873
sg13
g825
ssI13874
(dp2344
g12
I13874
sg13
g74
ssI13875
(dp2345
g12
I13875
sg13
g1038
ssI13876
(dp2346
g12
I13876
sg13
g942
ssI13877
(dp2347
g12
I13877
sg13
g76
ssI13878
(dp2348
g12
I13878
sg13
g1481
ssI13879
(dp2349
g12
I13879
sg13
g954
ssI13880
(dp2350
g12
I13880
sg13
g597
ssI13881
(dp2351
g12
I13881
sg13
g564
ssI13882
(dp2352
g12
I13882
sg13
g549
ssI13883
(dp2353
g12
I13883
sg13
g440
ssI13884
(dp2354
g12
I13884
sg13
g149
ssI13885
(dp2355
g12
I13885
sg13
g619
ssI13886
(dp2356
g12
I13886
sg13
g662
ssI13887
(dp2357
g12
I13887
sg13
g1496
ssI13888
(dp2358
g12
I13888
sg13
g1148
ssI13889
(dp2359
g12
I13889
sg13
g442
ssI13890
(dp2360
g12
I13890
sg13
g1061
ssI13891
(dp2361
g12
I13891
sg13
g1413
ssI13892
(dp2362
g12
I13892
sg13
g318
ssI13893
(dp2363
g12
I13893
sg13
g1174
ssI13894
(dp2364
g12
I13894
sg13
g874
ssI13895
(dp2365
g12
I13895
sg13
g1150
ssI13896
(dp2366
g12
I13896
sg13
g931
ssI13897
(dp2367
g12
I13897
sg13
g599
ssI13898
(dp2368
g12
I13898
sg13
g320
ssI13899
(dp2369
g12
I13899
sg13
g1483
ssI13900
(dp2370
g12
I13900
sg13
g106
ssI13901
(dp2371
g12
I13901
sg13
g838
ssI13902
(dp2372
g12
I13902
sg13
g664
ssI13903
(dp2373
g12
I13903
sg13
g991
ssI13904
(dp2374
g12
I13904
sg13
g949
ssI13905
(dp2375
g12
I13905
sg13
g510
ssI13906
(dp2376
g12
I13906
sg13
g1337
ssI13907
(dp2377
g12
I13907
sg13
g287
ssI13908
(dp2378
g12
I13908
sg13
g1265
ssI13909
(dp2379
g12
I13909
sg13
g933
ssI13910
(dp2380
g12
I13910
sg13
g266
ssI13911
(dp2381
g12
I13911
sg13
g909
ssI13912
(dp2382
g12
I13912
sg13
g1137
ssI13913
(dp2383
g12
I13913
sg13
g480
ssI13914
(dp2384
g12
I13914
sg13
g25
ssI13915
(dp2385
g12
I13915
sg13
g1445
ssI13916
(dp2386
g12
I13916
sg13
g1519
ssI13917
(dp2387
g12
I13917
sg13
g754
ssI13918
(dp2388
g12
I13918
sg13
g427
ssI13919
(dp2389
g12
I13919
sg13
g194
ssI13920
(dp2390
g12
I13920
sg13
g707
ssI13921
(dp2391
g12
I13921
sg13
g840
ssI13922
(dp2392
g12
I13922
sg13
g78
ssI13923
(dp2393
g12
I13923
sg13
g756
ssI13924
(dp2394
g12
I13924
sg13
g1019
ssI13925
(dp2395
g12
I13925
sg13
g958
ssI13926
(dp2396
g12
I13926
sg13
g1078
ssI13927
(dp2397
g12
I13927
sg13
g727
ssI13928
(dp2398
g12
I13928
sg13
g709
ssI13929
(dp2399
g12
I13929
sg13
g497
ssI13930
(dp2400
g12
I13930
sg13
g1267
ssI13931
(dp2401
g12
I13931
sg13
g1227
ssI13932
(dp2402
g12
I13932
sg13
g236
ssI13933
(dp2403
g12
I13933
sg13
g1485
ssI13934
(dp2404
g12
I13934
sg13
g49
ssI13935
(dp2405
g12
I13935
sg13
g185
ssI13936
(dp2406
g12
I13936
sg13
g297
ssI13937
(dp2407
g12
I13937
sg13
g639
ssI13938
(dp2408
g12
I13938
sg13
g1114
ssI13939
(dp2409
g12
I13939
sg13
g842
ssI13940
(dp2410
g12
I13940
sg13
g16
ssI13941
(dp2411
g12
I13941
sg13
g758
ssI13942
(dp2412
g12
I13942
sg13
g900
ssI13943
(dp2413
g12
I13943
sg13
g1501
ssI13944
(dp2414
g12
I13944
sg13
g1447
ssI13945
(dp2415
g12
I13945
sg13
g142
ssI13946
(dp2416
g12
I13946
sg13
g151
ssI13947
(dp2417
g12
I13947
sg13
g1040
ssI13948
(dp2418
g12
I13948
sg13
g1176
ssI13949
(dp2419
g12
I13949
sg13
g519
ssI13950
(dp2420
g12
I13950
sg13
g429
ssI13951
(dp2421
g12
I13951
sg13
g458
ssI13952
(dp2422
g12
I13952
sg13
g38
ssI13953
(dp2423
g12
I13953
sg13
g1290
ssI13954
(dp2424
g12
I13954
sg13
g306
ssI13955
(dp2425
g12
I13955
sg13
g813
ssI13956
(dp2426
g12
I13956
sg13
g804
ssI13957
(dp2427
g12
I13957
sg13
g1281
ssI13958
(dp2428
g12
I13958
sg13
g646
ssI13959
(dp2429
g12
I13959
sg13
g1415
ssI13960
(dp2430
g12
I13960
sg13
g63
ssI13961
(dp2431
g12
I13961
sg13
g27
ssI13962
(dp2432
g12
I13962
sg13
g771
ssI13963
(dp2433
g12
I13963
sg13
g1498
ssI13964
(dp2434
g12
I13964
sg13
g789
ssI13965
(dp2435
g12
I13965
sg13
g858
ssI13966
(dp2436
g12
I13966
sg13
g1398
ssI13967
(dp2437
g12
I13967
sg13
g1178
ssI13968
(dp2438
g12
I13968
sg13
g1098
ssI13969
(dp2439
g12
I13969
sg13
g648
ssI13970
(dp2440
g12
I13970
sg13
g416
ssI13971
(dp2441
g12
I13971
sg13
g1510
ssI13972
(dp2442
g12
I13972
sg13
g630
ssI13973
(dp2443
g12
I13973
sg13
g887
ssI13974
(dp2444
g12
I13974
sg13
g977
ssI13975
(dp2445
g12
I13975
sg13
g889
ssI13976
(dp2446
g12
I13976
sg13
g791
ssI13977
(dp2447
g12
I13977
sg13
g29
ssI13978
(dp2448
g12
I13978
sg13
g876
ssI13979
(dp2449
g12
I13979
sg13
g844
ssI13980
(dp2450
g12
I13980
sg13
g846
ssI13981
(dp2451
g12
I13981
sg13
g51
ssI13982
(dp2452
g12
I13982
sg13
g492
ssI13983
(dp2453
g12
I13983
sg13
g40
ssI13984
(dp2454
g12
I13984
sg13
g738
ssI13985
(dp2455
g12
I13985
sg13
g566
ssI13986
(dp2456
g12
I13986
sg13
g827
ssI13987
(dp2457
g12
I13987
sg13
g1465
ssI13988
(dp2458
g12
I13988
sg13
g745
ssI13989
(dp2459
g12
I13989
sg13
g816
ssI13990
(dp2460
g12
I13990
sg13
g322
ssI13991
(dp2461
g12
I13991
sg13
g299
ssI13992
(dp2462
g12
I13992
sg13
g467
ssI13993
(dp2463
g12
I13993
sg13
g431
ssI13994
(dp2464
g12
I13994
sg13
g1449
ssI13995
(dp2465
g12
I13995
sg13
g268
ssI13996
(dp2466
g12
I13996
sg13
g1152
ssI13997
(dp2467
g12
I13997
sg13
g494
ssI13998
(dp2468
g12
I13998
sg13
g339
ssI13999
(dp2469
g12
I13999
sg13
g187
ssI14000
(dp2470
g12
I14000
sg13
g1165
ssI14001
(dp2471
g12
I14001
sg13
g301
ssI14002
(dp2472
g12
I14002
sg13
g341
ssI14003
(dp2473
g12
I14003
sg13
g650
ssI14004
(dp2474
g12
I14004
sg13
g1021
ssI14005
(dp2475
g12
I14005
sg13
g303
ssI14006
(dp2476
g12
I14006
sg13
g986
ssI14007
(dp2477
g12
I14007
sg13
g1424
ssI14008
(dp2478
g12
I14008
sg13
g666
ssI14009
(dp2479
g12
I14009
sg13
g196
ssI14010
(dp2480
g12
I14010
sg13
g911
ssI14011
(dp2481
g12
I14011
sg13
g521
ssI14012
(dp2482
g12
I14012
sg13
g760
ssI14013
(dp2483
g12
I14013
sg13
g1116
ssI14014
(dp2484
g12
I14014
sg13
g1091
ssI14015
(dp2485
g12
I14015
sg13
g878
ssI14016
(dp2486
g12
I14016
sg13
g718
ssI14017
(dp2487
g12
I14017
sg13
g352
ssI14018
(dp2488
g12
I14018
sg13
g773
ssI14019
(dp2489
g12
I14019
sg13
g270
ssI14020
(dp2490
g12
I14020
sg13
g1002
ssI14021
(dp2491
g12
I14021
sg13
g848
ssI14022
(dp2492
g12
I14022
sg13
g1118
ssI14023
(dp2493
g12
I14023
sg13
g144
ssI14024
(dp2494
g12
I14024
sg13
g691
ssI14025
(dp2495
g12
I14025
sg13
g1100
ssI14026
(dp2496
g12
I14026
sg13
g1451
ssI14027
(dp2497
g12
I14027
sg13
g343
ssI14028
(dp2498
g12
I14028
sg13
g523
ssI14029
(dp2499
g12
I14029
sg13
g528
ssI14030
(dp2500
g12
I14030
sg13
g1154
ssI14031
(dp2501
g12
I14031
sg13
g762
ssI14032
(dp2502
g12
I14032
sg13
g238
ssI14033
(dp2503
g12
I14033
sg13
g686
ssI14034
(dp2504
g12
I14034
sg13
g584
ssI14035
(dp2505
g12
I14035
sg13
g693
ssI14036
(dp2506
g12
I14036
sg13
g1185
ssI14037
(dp2507
g12
I14037
sg13
g469
ssI14038
(dp2508
g12
I14038
sg13
g240
ssI14039
(dp2509
g12
I14039
sg13
g345
ssI14040
(dp2510
g12
I14040
sg13
g42
ssI14041
(dp2511
g12
I14041
sg13
g747
ssI14042
(dp2512
g12
I14042
sg13
g913
ssI14043
(dp2513
g12
I14043
sg13
g166
ssI14044
(dp2514
g12
I14044
sg13
g793
ssI14045
(dp2515
g12
I14045
sg13
g214
ssI14046
(dp2516
g12
I14046
sg13
g168
ssI14047
(dp2517
g12
I14047
sg13
g951
ssI14048
(dp2518
g12
I14048
sg13
g1120
ssI14049
(dp2519
g12
I14049
sg13
g915
ssI14050
(dp2520
g12
I14050
sg13
g460
ssI14051
(dp2521
g12
I14051
sg13
g171
ssI14052
(dp2522
g12
I14052
sg13
g433
ssI14053
(dp2523
g12
I14053
sg13
g1232
ssI14054
(dp2524
g12
I14054
sg13
g99
ssI14055
(dp2525
g12
I14055
sg13
g1102
ssI14056
(dp2526
g12
I14056
sg13
g189
ssI14057
(dp2527
g12
I14057
sg13
g471
ssI14058
(dp2528
g12
I14058
sg13
g31
ssI14059
(dp2529
g12
I14059
sg13
g764
ssI14060
(dp2530
g12
I14060
sg13
g1487
ssI14061
(dp2531
g12
I14061
sg13
g530
ssI14062
(dp2532
g12
I14062
sg13
g641
ssI14063
(dp2533
g12
I14063
sg13
g960
ssI14064
(dp2534
g12
I14064
sg13
g1187
ssI14065
(dp2535
g12
I14065
sg13
g1093
ssI14066
(dp2536
g12
I14066
sg13
g242
ssI14067
(dp2537
g12
I14067
sg13
g1426
ssI14068
(dp2538
g12
I14068
sg13
g621
ssI14069
(dp2539
g12
I14069
sg13
g1122
ssI14070
(dp2540
g12
I14070
sg13
g1156
ssI14071
(dp2541
g12
I14071
sg13
g250
ssI14072
(dp2542
g12
I14072
sg13
g829
ssI14073
(dp2543
g12
I14073
sg13
g324
ssI14074
(dp2544
g12
I14074
sg13
g1104
ssI14075
(dp2545
g12
I14075
sg13
g444
ssI14076
(dp2546
g12
I14076
sg13
g962
ssI14077
(dp2547
g12
I14077
sg13
g80
ssI14078
(dp2548
g12
I14078
sg13
g720
ssI14079
(dp2549
g12
I14079
sg13
g850
ssI14080
(dp2550
g12
I14080
sg13
g749
ssI14081
(dp2551
g12
I14081
sg13
g1189
ssI14082
(dp2552
g12
I14082
sg13
g632
ssI14083
(dp2553
g12
I14083
sg13
g1269
ssI14084
(dp2554
g12
I14084
sg13
g272
ssI14085
(dp2555
g12
I14085
sg13
g473
ssI14086
(dp2556
g12
I14086
sg13
g652
ssI14087
(dp2557
g12
I14087
sg13
g1489
ssI14088
(dp2558
g12
I14088
sg13
g82
ssI14089
(dp2559
g12
I14089
sg13
g1352
ssI14090
(dp2560
g12
I14090
sg13
g1297
ssI14091
(dp2561
g12
I14091
sg13
g1323
ssI14092
(dp2562
g12
I14092
sg13
g475
ssI14093
(dp2563
g12
I14093
sg13
g766
ssI14094
(dp2564
g12
I14094
sg13
g173
ssI14095
(dp2565
g12
I14095
sg13
g891
ssI14096
(dp2566
g12
I14096
sg13
g1357
ssI14097
(dp2567
g12
I14097
sg13
g1124
ssI14098
(dp2568
g12
I14098
sg13
g1491
ssI14099
(dp2569
g12
I14099
sg13
g586
ssI14100
(dp2570
g12
I14100
sg13
g831
ssI14101
(dp2571
g12
I14101
sg13
g623
ssI14102
(dp2572
g12
I14102
sg13
g1417
ssI14103
(dp2573
g12
I14103
sg13
g1467
ssI14104
(dp2574
g12
I14104
sg13
g1023
ssI14105
(dp2575
g12
I14105
sg13
g568
ssI14106
(dp2576
g12
I14106
sg13
g218
ssI14107
(dp2577
g12
I14107
sg13
g1354
ssI14108
(dp2578
g12
I14108
sg13
g988
ssI14109
(dp2579
g12
I14109
sg13
g1052
ssI14110
(dp2580
g12
I14110
sg13
g1054
ssI14111
(dp2581
g12
I14111
sg13
g108
ssI14112
(dp2582
g12
I14112
sg13
g1271
ssI14113
(dp2583
g12
I14113
sg13
g1369
ssI14114
(dp2584
g12
I14114
sg13
g1234
ssI14115
(dp2585
g12
I14115
sg13
g354
ssI14116
(dp2586
g12
I14116
sg13
g1304
ssI14117
(dp2587
g12
I14117
sg13
g1376
ssI14118
(dp2588
g12
I14118
sg13
g418
ssI14119
(dp2589
g12
I14119
sg13
g1512
ssI14120
(dp2590
g12
I14120
sg13
g1371
ssI14121
(dp2591
g12
I14121
sg13
g917
ssI14122
(dp2592
g12
I14122
sg13
g211
ssI14123
(dp2593
g12
I14123
sg13
g1514
ssI14124
(dp2594
g12
I14124
sg13
g347
ssI14125
(dp2595
g12
I14125
sg13
g1342
ssI14126
(dp2596
g12
I14126
sg13
g326
ssI14127
(dp2597
g12
I14127
sg13
g1126
ssI14128
(dp2598
g12
I14128
sg13
g44
ssI14129
(dp2599
g12
I14129
sg13
g1025
ssI14130
(dp2600
g12
I14130
sg13
g1306
ssI14131
(dp2601
g12
I14131
sg13
g1128
ssI14132
(dp2602
g12
I14132
sg13
g775
ssI14133
(dp2603
g12
I14133
sg13
g1516
ssI14134
(dp2604
g12
I14134
sg13
g244
ssI14135
(dp2605
g12
I14135
sg13
g477
ssI14136
(dp2606
g12
I14136
sg13
g695
ssI14137
(dp2607
g12
I14137
sg13
g729
ssI14138
(dp2608
g12
I14138
sg13
g1309
ssI14139
(dp2609
g12
I14139
sg13
g1027
ssI14140
(dp2610
g12
I14140
sg13
g1378
ssI14141
(dp2611
g12
I14141
sg13
g220
ssI14142
(dp2612
g12
I14142
sg13
g1292
ssI14143
(dp2613
g12
I14143
sg13
g1283
ssI14144
(dp2614
g12
I14144
sg13
g274
ssI14145
(dp2615
g12
I14145
sg13
g252
ssI14146
(dp2616
g12
I14146
sg13
g223
ssI14147
(dp2617
g12
I14147
sg13
g731
ssI14148
(dp2618
g12
I14148
sg13
g1469
ssI14149
(dp2619
g12
I14149
sg13
g1400
ssI14150
(dp2620
g12
I14150
sg13
g1299
ssI14151
(dp2621
g12
I14151
sg13
g1344
ssI14152
(dp2622
g12
I14152
sg13
g1380
ssI14153
(dp2623
g1
(lp2624
(dp2625
g12
I13676
sg13
g14
sa(dp2626
g12
I13940
sg13
g16
sasg12
I14153
sg13
g17
ssI14154
(dp2627
g1
(lp2628
(dp2629
g12
I13677
sg13
g371
sa(dp2630
g12
I13755
sg13
g373
sa(dp2631
g12
I13843
sg13
g375
sasg12
I14154
sg13
g376
ssI14156
(dp2632
g1
(lp2633
(dp2634
g12
I13738
sg13
g660
sa(dp2635
g12
I13886
sg13
g662
sa(dp2636
g12
I13902
sg13
g664
sa(dp2637
g12
I14008
sg13
g666
sasg12
I14156
sg13
g667
ssI14157
(dp2638
g1
(lp2639
(dp2640
g12
I13680
sg13
g392
sa(dp2641
g12
I13681
sg13
g394
sa(dp2642
g12
I13811
sg13
g396
sasg12
I14157
sg13
g397
ssI14158
(dp2643
g1
(lp2644
(dp2645
g12
I13682
sg13
g490
sa(dp2646
g12
I13982
sg13
g492
sa(dp2647
g12
I13997
sg13
g494
sasg12
I14158
sg13
g495
ssI14159
(dp2648
g1
(lp2649
(dp2650
g12
I13683
sg13
g380
sa(dp2651
g12
I13701
sg13
g382
sa(dp2652
g12
I13748
sg13
g384
sasg12
I14159
sg13
g385
ssI14160
(dp2653
g1
(lp2654
(dp2655
g12
I13684
sg13
g1204
sa(dp2656
g12
I13858
sg13
g1206
sasg12
I14160
sg13
g1207
ssI14161
(dp2657
g1
(lp2658
(dp2659
g12
I13685
sg13
g502
sa(dp2660
g12
I13723
sg13
g504
sa(dp2661
g12
I13789
sg13
g506
sa(dp2662
g12
I13835
sg13
g508
sa(dp2663
g12
I13905
sg13
g510
sasg12
I14161
sg13
g511
ssI14162
(dp2664
g1
(lp2665
(dp2666
g12
I13686
sg13
g128
sa(dp2667
g12
I13718
sg13
g130
sasg12
I14162
sg13
g131
ssI14163
(dp2668
g1
(lp2669
(dp2670
g12
I13687
sg13
g1258
sa(dp2671
g12
I13870
sg13
g1260
sasg12
I14163
sg13
g1261
ssI14165
(dp2672
g1
(lp2673
(dp2674
g12
I13689
sg13
g703
sa(dp2675
g12
I13867
sg13
g705
sa(dp2676
g12
I13920
sg13
g707
sa(dp2677
g12
I13928
sg13
g709
sasg12
I14165
sg13
g710
ssI14166
(dp2678
g1
(lp2679
(dp2680
g12
I13690
sg13
g1411
sa(dp2681
g12
I13891
sg13
g1413
sa(dp2682
g12
I13959
sg13
g1415
sa(dp2683
g12
I14102
sg13
g1417
sasg12
I14166
sg13
g1418
ssI14167
(dp2684
g1
(lp2685
(dp2686
g12
I13691
sg13
g868
sa(dp2687
g12
I13737
sg13
g870
sa(dp2688
g12
I13795
sg13
g872
sa(dp2689
g12
I13894
sg13
g874
sa(dp2690
g12
I13978
sg13
g876
sa(dp2691
g12
I14015
sg13
g878
sasg12
I14167
sg13
g879
ssI14168
(dp2692
g1
(lp2693
(dp2694
g12
I13692
sg13
g1434
sa(dp2695
g12
I13761
sg13
g1436
sasg12
I14168
sg13
g1437
ssI14169
(dp2696
g1
(lp2697
(dp2698
g12
I13805
sg13
g209
sa(dp2699
g12
I14122
sg13
g211
sasg12
I14169
sg13
g212
ssI14170
(dp2700
g1
(lp2701
(dp2702
g12
I13694
sg13
g452
sa(dp2703
g12
I13756
sg13
g454
sa(dp2704
g12
I13833
sg13
g456
sa(dp2705
g12
I13951
sg13
g458
sa(dp2706
g12
I14050
sg13
g460
sasg12
I14170
sg13
g461
ssI14171
(dp2707
g1
(lp2708
(dp2709
g12
I13695
sg13
g1279
sa(dp2710
g12
I13957
sg13
g1281
sa(dp2711
g12
I14143
sg13
g1283
sasg12
I14171
sg13
g1284
ssI14172
(dp2712
g1
(lp2713
(dp2714
g12
I13696
sg13
g541
sa(dp2715
g12
I13715
sg13
g543
sa(dp2716
g12
I13722
sg13
g545
sa(dp2717
g12
I13764
sg13
g547
sa(dp2718
g12
I13882
sg13
g549
sasg12
I14172
sg13
g550
ssI14173
(dp2719
g1
(lp2720
(dp2721
g12
I13697
sg13
g1015
sa(dp2722
g12
I13786
sg13
g1017
sa(dp2723
g12
I13924
sg13
g1019
sa(dp2724
g12
I14004
sg13
g1021
sa(dp2725
g12
I14104
sg13
g1023
sa(dp2726
g12
I14129
sg13
g1025
sa(dp2727
g12
I14139
sg13
g1027
sasg12
I14173
sg13
g1028
ssI14174
(dp2728
g1
(lp2729
(dp2730
g12
I13698
sg13
g783
sa(dp2731
g12
I13729
sg13
g785
sa(dp2732
g12
I13765
sg13
g787
sa(dp2733
g12
I13964
sg13
g789
sa(dp2734
g12
I13976
sg13
g791
sa(dp2735
g12
I14044
sg13
g793
sasg12
I14174
sg13
g794
ssI14175
(dp2736
g1
(lp2737
(dp2738
g12
I13699
sg13
g1216
sa(dp2739
g12
I13707
sg13
g1218
sa(dp2740
g12
I13829
sg13
g1220
sasg12
I14175
sg13
g1221
ssI14176
(dp2741
g1
(lp2742
(dp2743
g12
I13700
sg13
g1459
sa(dp2744
g12
I13781
sg13
g1461
sa(dp2745
g12
I13816
sg13
g1463
sa(dp2746
g12
I13987
sg13
g1465
sa(dp2747
g12
I14103
sg13
g1467
sa(dp2748
g12
I14148
sg13
g1469
sasg12
I14176
sg13
g1470
ssI14177
(dp2749
g1
(lp2750
(dp2751
g12
I13702
sg13
g1240
sa(dp2752
g12
I13725
sg13
g1242
sa(dp2753
g12
I13751
sg13
g1244
sa(dp2754
g12
I13778
sg13
g1246
sasg12
I14177
sg13
g1247
ssI14178
(dp2755
g1
(lp2756
(dp2757
g12
I13703
sg13
g714
sa(dp2758
g12
I13847
sg13
g716
sa(dp2759
g12
I14016
sg13
g718
sa(dp2760
g12
I14078
sg13
g720
sasg12
I14178
sg13
g721
ssI14179
(dp2761
g1
(lp2762
(dp2763
g12
I13704
sg13
g576
sa(dp2764
g12
I13758
sg13
g578
sa(dp2765
g12
I13792
sg13
g580
sa(dp2766
g12
I13797
sg13
g582
sa(dp2767
g12
I14034
sg13
g584
sa(dp2768
g12
I14099
sg13
g586
sasg12
I14179
sg13
g587
ssI14180
(dp2769
g1
(lp2770
(dp2771
g12
I13679
sg13
g671
sa(dp2772
g12
I13705
sg13
g673
sa(dp2773
g12
I13713
sg13
g675
sa(dp2774
g12
I13747
sg13
g677
sa(dp2775
g12
I13799
sg13
g679
sasg12
I14180
sg13
g680
ssI14182
(dp2776
g1
(lp2777
(dp2778
g12
I13708
sg13
g883
sa(dp2779
g12
I13817
sg13
g885
sa(dp2780
g12
I13973
sg13
g887
sa(dp2781
g12
I13975
sg13
g889
sa(dp2782
g12
I14095
sg13
g891
sasg12
I14182
sg13
g892
ssI14183
(dp2783
g1
(lp2784
(dp2785
g12
I13709
sg13
g401
sa(dp2786
g12
I13749
sg13
g403
sasg12
I14183
sg13
g404
ssI14184
(dp2787
g1
(lp2788
(dp2789
g12
I13710
sg13
g408
sa(dp2790
g12
I13752
sg13
g410
sa(dp2791
g12
I13838
sg13
g412
sa(dp2792
g12
I13853
sg13
g414
sa(dp2793
g12
I13970
sg13
g416
sa(dp2794
g12
I14118
sg13
g418
sasg12
I14184
sg13
g419
ssI14185
(dp2795
g1
(lp2796
(dp2797
g12
I13711
sg13
g1072
sa(dp2798
g12
I13720
sg13
g1074
sa(dp2799
g12
I13861
sg13
g1076
sa(dp2800
g12
I13926
sg13
g1078
sasg12
I14185
sg13
g1079
ssI14186
(dp2801
g1
(lp2802
(dp2803
g12
I13712
sg13
g725
sa(dp2804
g12
I13927
sg13
g727
sa(dp2805
g12
I14137
sg13
g729
sa(dp2806
g12
I14147
sg13
g731
sasg12
I14186
sg13
g732
ssI14187
(dp2807
g1
(lp2808
(dp2809
g12
I13714
sg13
g59
sa(dp2810
g12
I13836
sg13
g61
sa(dp2811
g12
I13960
sg13
g63
sasg12
I14187
sg13
g64
ssI14188
(dp2812
g1
(lp2813
(dp2814
g12
I13716
sg13
g1112
sa(dp2815
g12
I13938
sg13
g1114
sa(dp2816
g12
I14013
sg13
g1116
sa(dp2817
g12
I14022
sg13
g1118
sa(dp2818
g12
I14048
sg13
g1120
sa(dp2819
g12
I14069
sg13
g1122
sa(dp2820
g12
I14097
sg13
g1124
sa(dp2821
g12
I14127
sg13
g1126
sa(dp2822
g12
I14131
sg13
g1128
sasg12
I14188
sg13
g1129
ssI14189
(dp2823
g1
(lp2824
(dp2825
g12
I13717
sg13
g1319
sa(dp2826
g12
I13746
sg13
g1321
sa(dp2827
g12
I14091
sg13
g1323
sasg12
I14189
sg13
g1324
ssI14190
(dp2828
g1
(lp2829
(dp2830
g12
I13719
sg13
g1133
sa(dp2831
g12
I13791
sg13
g1135
sa(dp2832
g12
I13912
sg13
g1137
sasg12
I14190
sg13
g1138
ssI14191
(dp2833
g1
(lp2834
(dp2835
g12
I13721
sg13
g465
sa(dp2836
g12
I13992
sg13
g467
sa(dp2837
g12
I14037
sg13
g469
sa(dp2838
g12
I14057
sg13
g471
sa(dp2839
g12
I14085
sg13
g473
sa(dp2840
g12
I14092
sg13
g475
sa(dp2841
g12
I14135
sg13
g477
sasg12
I14191
sg13
g478
ssI14192
(dp2842
g1
(lp2843
(dp2844
g12
I13724
sg13
g262
sa(dp2845
g12
I13851
sg13
g264
sa(dp2846
g12
I13910
sg13
g266
sa(dp2847
g12
I13995
sg13
g268
sa(dp2848
g12
I14019
sg13
g270
sa(dp2849
g12
I14084
sg13
g272
sa(dp2850
g12
I14144
sg13
g274
sasg12
I14192
sg13
g275
ssI14195
(dp2851
g1
(lp2852
(dp2853
g12
I13728
sg13
g823
sa(dp2854
g12
I13873
sg13
g825
sa(dp2855
g12
I13986
sg13
g827
sa(dp2856
g12
I14072
sg13
g829
sa(dp2857
g12
I14100
sg13
g831
sasg12
I14195
sg13
g832
ssI14196
(dp2858
g1
(lp2859
(dp2860
g12
I13730
sg13
g554
sa(dp2861
g12
I13776
sg13
g556
sa(dp2862
g12
I13782
sg13
g558
sa(dp2863
g12
I13837
sg13
g560
sa(dp2864
g12
I13869
sg13
g562
sa(dp2865
g12
I13881
sg13
g564
sa(dp2866
g12
I13985
sg13
g566
sa(dp2867
g12
I14105
sg13
g568
sasg12
I14196
sg13
g569
ssI14197
(dp2868
g1
(lp2869
(dp2870
g12
I13731
sg13
g896
sa(dp2871
g12
I13828
sg13
g898
sa(dp2872
g12
I13942
sg13
g900
sasg12
I14197
sg13
g901
ssI14199
(dp2873
g1
(lp2874
(dp2875
g12
I13733
sg13
g1083
sa(dp2876
g12
I13788
sg13
g1085
sa(dp2877
g12
I13800
sg13
g1087
sa(dp2878
g12
I13808
sg13
g1089
sa(dp2879
g12
I14014
sg13
g1091
sa(dp2880
g12
I14065
sg13
g1093
sasg12
I14199
sg13
g1094
ssI14200
(dp2881
g1
(lp2882
(dp2883
g12
I13734
sg13
g181
sa(dp2884
g12
I13820
sg13
g183
sa(dp2885
g12
I13935
sg13
g185
sa(dp2886
g12
I13999
sg13
g187
sa(dp2887
g12
I14056
sg13
g189
sasg12
I14200
sg13
g190
ssI14201
(dp2888
g1
(lp2889
(dp2890
g12
I13735
sg13
g1335
sa(dp2891
g12
I13906
sg13
g1337
sasg12
I14201
sg13
g1338
ssI14202
(dp2892
g1
(lp2893
(dp2894
g12
I13736
sg13
g68
sa(dp2895
g12
I13759
sg13
g70
sa(dp2896
g12
I13794
sg13
g72
sa(dp2897
g12
I13874
sg13
g74
sa(dp2898
g12
I13877
sg13
g76
sa(dp2899
g12
I13922
sg13
g78
sa(dp2900
g12
I14077
sg13
g80
sa(dp2901
g12
I14088
sg13
g82
sasg12
I14202
sg13
g83
ssI14203
(dp2902
g1
(lp2903
(dp2904
g12
I13739
sg13
g925
sa(dp2905
g12
I13834
sg13
g927
sa(dp2906
g12
I13863
sg13
g929
sa(dp2907
g12
I13896
sg13
g931
sa(dp2908
g12
I13909
sg13
g933
sasg12
I14203
sg13
g934
ssI14204
(dp2909
g1
(lp2910
(dp2911
g12
I13740
sg13
g1142
sa(dp2912
g12
I13850
sg13
g1144
sa(dp2913
g12
I13852
sg13
g1146
sa(dp2914
g12
I13888
sg13
g1148
sa(dp2915
g12
I13895
sg13
g1150
sa(dp2916
g12
I13996
sg13
g1152
sa(dp2917
g12
I14030
sg13
g1154
sa(dp2918
g12
I14070
sg13
g1156
sasg12
I14204
sg13
g1157
ssI14205
(dp2919
g1
(lp2920
(dp2921
g12
I13741
sg13
g21
sa(dp2922
g12
I13822
sg13
g23
sa(dp2923
g12
I13914
sg13
g25
sa(dp2924
g12
I13961
sg13
g27
sa(dp2925
g12
I13977
sg13
g29
sa(dp2926
g12
I14058
sg13
g31
sasg12
I14205
sg13
g32
ssI14206
(dp2927
g1
(lp2928
(dp2929
g12
I13742
sg13
g279
sa(dp2930
g12
I13743
sg13
g281
sa(dp2931
g12
I13768
sg13
g283
sa(dp2932
g12
I13821
sg13
g285
sa(dp2933
g12
I13907
sg13
g287
sasg12
I14206
sg13
g288
ssI14208
(dp2934
g1
(lp2935
(dp2936
g12
I13745
sg13
g314
sa(dp2937
g12
I13860
sg13
g316
sa(dp2938
g12
I13892
sg13
g318
sa(dp2939
g12
I13898
sg13
g320
sa(dp2940
g12
I13990
sg13
g322
sa(dp2941
g12
I14073
sg13
g324
sa(dp2942
g12
I14126
sg13
g326
sasg12
I14208
sg13
g327
ssI14209
(dp2943
g1
(lp2944
(dp2945
g12
I13750
sg13
g1032
sa(dp2946
g12
I13775
sg13
g1034
sa(dp2947
g12
I13801
sg13
g1036
sa(dp2948
g12
I13875
sg13
g1038
sa(dp2949
g12
I13947
sg13
g1040
sasg12
I14209
sg13
g1041
ssI14210
(dp2950
g1
(lp2951
(dp2952
g12
I13753
sg13
g973
sa(dp2953
g12
I13809
sg13
g975
sa(dp2954
g12
I13974
sg13
g977
sasg12
I14210
sg13
g978
ssI14211
(dp2955
g1
(lp2956
(dp2957
g12
I13754
sg13
g798
sa(dp2958
g12
I13844
sg13
g800
sa(dp2959
g12
I13854
sg13
g802
sa(dp2960
g12
I13956
sg13
g804
sasg12
I14211
sg13
g805
ssI14212
(dp2961
g1
(lp2962
(dp2963
g12
I13757
sg13
g996
sa(dp2964
g12
I13810
sg13
g998
sa(dp2965
g12
I13819
sg13
g1000
sa(dp2966
g12
I14020
sg13
g1002
sasg12
I14212
sg13
g1003
ssI14213
(dp2967
g1
(lp2968
(dp2969
g12
I13760
sg13
g1161
sa(dp2970
g12
I13771
sg13
g1163
sa(dp2971
g12
I14000
sg13
g1165
sasg12
I14213
sg13
g1166
ssI14214
(dp2972
g1
(lp2973
(dp2974
g12
I13762
sg13
g1170
sa(dp2975
g12
I13783
sg13
g1172
sa(dp2976
g12
I13893
sg13
g1174
sa(dp2977
g12
I13948
sg13
g1176
sa(dp2978
g12
I13967
sg13
g1178
sasg12
I14214
sg13
g1179
ssI14215
(dp2979
g1
(lp2980
(dp2981
g12
I13763
sg13
g90
sa(dp2982
g12
I13766
sg13
g92
sasg12
I14215
sg13
g93
ssI14216
(dp2983
g1
(lp2984
(dp2985
g12
I13767
sg13
g591
sa(dp2986
g12
I13803
sg13
g593
sa(dp2987
g12
I13825
sg13
g595
sa(dp2988
g12
I13880
sg13
g597
sa(dp2989
g12
I13897
sg13
g599
sasg12
I14216
sg13
g600
ssI14217
(dp2990
g1
(lp2991
(dp2992
g12
I13769
sg13
g1183
sa(dp2993
g12
I14036
sg13
g1185
sa(dp2994
g12
I14064
sg13
g1187
sa(dp2995
g12
I14081
sg13
g1189
sasg12
I14217
sg13
g1190
ssI14219
(dp2996
g1
(lp2997
(dp2998
g12
I13772
sg13
g1367
sa(dp2999
g12
I14113
sg13
g1369
sa(dp3000
g12
I14120
sg13
g1371
sasg12
I14219
sg13
g1372
ssI14220
(dp3001
g1
(lp3002
(dp3003
g12
I13773
sg13
g97
sa(dp3004
g12
I14054
sg13
g99
sasg12
I14220
sg13
g100
ssI14221
(dp3005
g1
(lp3006
(dp3007
g12
I13774
sg13
g104
sa(dp3008
g12
I13900
sg13
g106
sa(dp3009
g12
I14111
sg13
g108
sasg12
I14221
sg13
g109
ssI14222
(dp3010
g1
(lp3011
(dp3012
g12
I13777
sg13
g684
sa(dp3013
g12
I14033
sg13
g686
sasg12
I14222
sg13
g687
ssI14223
(dp3014
g1
(lp3015
(dp3016
g12
I13779
sg13
g1048
sa(dp3017
g12
I13798
sg13
g1050
sa(dp3018
g12
I14109
sg13
g1052
sa(dp3019
g12
I14110
sg13
g1054
sasg12
I14223
sg13
g1055
ssI14224
(dp3020
g1
(lp3021
(dp3022
g12
I13693
sg13
g333
sa(dp3023
g12
I13780
sg13
g335
sa(dp3024
g12
I13806
sg13
g337
sa(dp3025
g12
I13998
sg13
g339
sa(dp3026
g12
I14002
sg13
g341
sa(dp3027
g12
I14027
sg13
g343
sa(dp3028
g12
I14039
sg13
g345
sa(dp3029
g12
I14124
sg13
g347
sasg12
I14224
sg13
g348
ssI14225
(dp3030
g1
(lp3031
(dp3032
g12
I13784
sg13
g140
sa(dp3033
g12
I13945
sg13
g142
sa(dp3034
g12
I14023
sg13
g144
sasg12
I14225
sg13
g145
ssI14226
(dp3035
g1
(lp3036
(dp3037
g12
I13785
sg13
g982
sa(dp3038
g12
I13823
sg13
g984
sa(dp3039
g12
I14006
sg13
g986
sa(dp3040
g12
I14108
sg13
g988
sasg12
I14226
sg13
g989
ssI14227
(dp3041
g1
(lp3042
(dp3043
g12
I13787
sg13
g940
sa(dp3044
g12
I13876
sg13
g942
sasg12
I14227
sg13
g943
ssI14228
(dp3045
g1
(lp3046
(dp3047
g12
I13790
sg13
g1474
sa(dp3048
g12
I13871
sg13
g1476
sasg12
I14228
sg13
g1477
ssI14229
(dp3049
g1
(lp3050
(dp3051
g12
I13793
sg13
g113
sa(dp3052
g12
I13840
sg13
g115
sasg12
I14229
sg13
g116
ssI14230
(dp3053
g1
(lp3054
(dp3055
g12
I13796
sg13
g1508
sa(dp3056
g12
I13971
sg13
g1510
sa(dp3057
g12
I14119
sg13
g1512
sa(dp3058
g12
I14123
sg13
g1514
sa(dp3059
g12
I14133
sg13
g1516
sasg12
I14230
sg13
g1517
ssI14231
(dp3060
g1
(lp3061
(dp3062
g12
I13802
sg13
g736
sa(dp3063
g12
I13984
sg13
g738
sasg12
I14231
sg13
g739
ssI14233
(dp3064
g1
(lp3065
(dp3066
g12
I13807
sg13
g1441
sa(dp3067
g12
I13846
sg13
g1443
sa(dp3068
g12
I13915
sg13
g1445
sa(dp3069
g12
I13944
sg13
g1447
sa(dp3070
g12
I13994
sg13
g1449
sa(dp3071
g12
I14026
sg13
g1451
sasg12
I14233
sg13
g1452
ssI14234
(dp3072
g1
(lp3073
(dp3074
g12
I13812
sg13
g423
sa(dp3075
g12
I13815
sg13
g425
sa(dp3076
g12
I13918
sg13
g427
sa(dp3077
g12
I13950
sg13
g429
sa(dp3078
g12
I13993
sg13
g431
sa(dp3079
g12
I14052
sg13
g433
sasg12
I14234
sg13
g434
ssI14235
(dp3080
g1
(lp3081
(dp3082
g12
I13813
sg13
g232
sa(dp3083
g12
I13849
sg13
g234
sa(dp3084
g12
I13932
sg13
g236
sa(dp3085
g12
I14032
sg13
g238
sa(dp3086
g12
I14038
sg13
g240
sa(dp3087
g12
I14066
sg13
g242
sa(dp3088
g12
I14134
sg13
g244
sasg12
I14235
sg13
g245
ssI14236
(dp3089
g1
(lp3090
(dp3091
g12
I13814
sg13
g836
sa(dp3092
g12
I13901
sg13
g838
sa(dp3093
g12
I13921
sg13
g840
sa(dp3094
g12
I13939
sg13
g842
sa(dp3095
g12
I13979
sg13
g844
sa(dp3096
g12
I13980
sg13
g846
sa(dp3097
g12
I14021
sg13
g848
sa(dp3098
g12
I14079
sg13
g850
sasg12
I14236
sg13
g851
ssI14237
(dp3099
g1
(lp3100
(dp3101
g12
I13818
sg13
g1059
sa(dp3102
g12
I13890
sg13
g1061
sasg12
I14237
sg13
g1062
ssI14239
(dp3103
g1
(lp3104
(dp3105
g12
I13826
sg13
g856
sa(dp3106
g12
I13965
sg13
g858
sasg12
I14239
sg13
g859
ssI14240
(dp3107
g1
(lp3108
(dp3109
g12
I13827
sg13
g1225
sa(dp3110
g12
I13931
sg13
g1227
sasg12
I14240
sg13
g1228
ssI14241
(dp3111
g1
(lp3112
(dp3113
g12
I13830
sg13
g905
sa(dp3114
g12
I13868
sg13
g907
sa(dp3115
g12
I13911
sg13
g909
sa(dp3116
g12
I14010
sg13
g911
sa(dp3117
g12
I14042
sg13
g913
sa(dp3118
g12
I14049
sg13
g915
sa(dp3119
g12
I14121
sg13
g917
sasg12
I14241
sg13
g918
ssI14242
(dp3120
g1
(lp3121
(dp3122
g12
I13831
sg13
g615
sa(dp3123
g12
I13862
sg13
g617
sa(dp3124
g12
I13885
sg13
g619
sa(dp3125
g12
I14068
sg13
g621
sa(dp3126
g12
I14101
sg13
g623
sasg12
I14242
sg13
g624
ssI14243
(dp3127
g1
(lp3128
(dp3129
g12
I13832
sg13
g1388
sa(dp3130
g12
I13842
sg13
g1390
sasg12
I14243
sg13
g1391
ssI14245
(dp3131
g1
(lp3132
(dp3133
g12
I13841
sg13
g809
sa(dp3134
g12
I13859
sg13
g811
sa(dp3135
g12
I13955
sg13
g813
sasg12
I14245
sg13
g814
ssI14246
(dp3136
g1
(lp3137
(dp3138
g12
I13845
sg13
g743
sa(dp3139
g12
I13988
sg13
g745
sa(dp3140
g12
I14041
sg13
g747
sa(dp3141
g12
I14080
sg13
g749
sasg12
I14246
sg13
g750
ssI14247
(dp3142
g1
(lp3143
(dp3144
g12
I13848
sg13
g438
sa(dp3145
g12
I13883
sg13
g440
sa(dp3146
g12
I13889
sg13
g442
sa(dp3147
g12
I14075
sg13
g444
sasg12
I14247
sg13
g445
ssI14248
(dp3148
g1
(lp3149
(dp3150
g12
I13855
sg13
g628
sa(dp3151
g12
I13972
sg13
g630
sa(dp3152
g12
I14082
sg13
g632
sasg12
I14248
sg13
g633
ssI14249
(dp3153
g1
(lp3154
(dp3155
g12
I13856
sg13
g947
sa(dp3156
g12
I13904
sg13
g949
sa(dp3157
g12
I14047
sg13
g951
sasg12
I14249
sg13
g952
ssI14250
(dp3158
g1
(lp3159
(dp3160
g12
I13857
sg13
g295
sa(dp3161
g12
I13936
sg13
g297
sa(dp3162
g12
I13991
sg13
g299
sa(dp3163
g12
I14001
sg13
g301
sa(dp3164
g12
I14005
sg13
g303
sasg12
I14250
sg13
g304
ssI14252
(dp3165
g1
(lp3166
(dp3167
g12
I13865
sg13
g1422
sa(dp3168
g12
I14007
sg13
g1424
sa(dp3169
g12
I14067
sg13
g1426
sasg12
I14252
sg13
g1427
ssI14253
(dp3170
g1
(lp3171
(dp3172
g12
I13866
sg13
g36
sa(dp3173
g12
I13952
sg13
g38
sa(dp3174
g12
I13983
sg13
g40
sa(dp3175
g12
I14040
sg13
g42
sa(dp3176
g12
I14128
sg13
g44
sasg12
I14253
sg13
g45
ssI14254
(dp3177
g1
(lp3178
(dp3179
g12
I13872
sg13
g637
sa(dp3180
g12
I13937
sg13
g639
sa(dp3181
g12
I14062
sg13
g641
sasg12
I14254
sg13
g642
ssI14255
(dp3182
g1
(lp3183
(dp3184
g12
I13878
sg13
g1481
sa(dp3185
g12
I13899
sg13
g1483
sa(dp3186
g12
I13933
sg13
g1485
sa(dp3187
g12
I14060
sg13
g1487
sa(dp3188
g12
I14087
sg13
g1489
sa(dp3189
g12
I14098
sg13
g1491
sasg12
I14255
sg13
g1492
ssI14257
(dp3190
g1
(lp3191
(dp3192
g12
I13884
sg13
g149
sa(dp3193
g12
I13946
sg13
g151
sasg12
I14257
sg13
g152
ssI14258
(dp3194
g1
(lp3195
(dp3196
g12
I13887
sg13
g1496
sa(dp3197
g12
I13963
sg13
g1498
sasg12
I14258
sg13
g1499
ssI14260
(dp3198
g1
(lp3199
(dp3200
g12
I13908
sg13
g1265
sa(dp3201
g12
I13930
sg13
g1267
sa(dp3202
g12
I14083
sg13
g1269
sa(dp3203
g12
I14112
sg13
g1271
sasg12
I14260
sg13
g1272
ssI14264
(dp3204
g1
(lp3205
(dp3206
g12
I13917
sg13
g754
sa(dp3207
g12
I13923
sg13
g756
sa(dp3208
g12
I13941
sg13
g758
sa(dp3209
g12
I14012
sg13
g760
sa(dp3210
g12
I14031
sg13
g762
sa(dp3211
g12
I14059
sg13
g764
sa(dp3212
g12
I14093
sg13
g766
sasg12
I14264
sg13
g767
ssI14265
(dp3213
g1
(lp3214
(dp3215
g12
I13925
sg13
g958
sa(dp3216
g12
I14063
sg13
g960
sa(dp3217
g12
I14076
sg13
g962
sasg12
I14265
sg13
g963
ssI14267
(dp3218
g1
(lp3219
(dp3220
g12
I13934
sg13
g49
sa(dp3221
g12
I13981
sg13
g51
sasg12
I14267
sg13
g52
ssI14269
(dp3222
g1
(lp3223
(dp3224
g12
I13949
sg13
g519
sa(dp3225
g12
I14011
sg13
g521
sa(dp3226
g12
I14028
sg13
g523
sasg12
I14269
sg13
g524
ssI14270
(dp3227
g1
(lp3228
(dp3229
g12
I13953
sg13
g1290
sa(dp3230
g12
I14142
sg13
g1292
sasg12
I14270
sg13
g1293
ssI14272
(dp3231
g1
(lp3232
(dp3233
g12
I13958
sg13
g646
sa(dp3234
g12
I13969
sg13
g648
sa(dp3235
g12
I14003
sg13
g650
sa(dp3236
g12
I14086
sg13
g652
sasg12
I14272
sg13
g653
ssI14273
(dp3237
g1
(lp3238
(dp3239
g12
I13962
sg13
g771
sa(dp3240
g12
I14018
sg13
g773
sa(dp3241
g12
I14132
sg13
g775
sasg12
I14273
sg13
g776
ssI14275
(dp3242
g1
(lp3243
(dp3244
g12
I13968
sg13
g1098
sa(dp3245
g12
I14025
sg13
g1100
sa(dp3246
g12
I14055
sg13
g1102
sa(dp3247
g12
I14074
sg13
g1104
sasg12
I14275
sg13
g1105
ssI14278
(dp3248
g1
(lp3249
(dp3250
g12
I14017
sg13
g352
sa(dp3251
g12
I14115
sg13
g354
sasg12
I14278
sg13
g355
ssI14279
(dp3252
g1
(lp3253
(dp3254
g12
I14024
sg13
g691
sa(dp3255
g12
I14035
sg13
g693
sa(dp3256
g12
I14136
sg13
g695
sasg12
I14279
sg13
g696
ssI14280
(dp3257
g1
(lp3258
(dp3259
g12
I14029
sg13
g528
sa(dp3260
g12
I14061
sg13
g530
sasg12
I14280
sg13
g531
ssI14281
(dp3261
g1
(lp3262
(dp3263
g12
I14043
sg13
g166
sa(dp3264
g12
I14046
sg13
g168
sasg12
I14281
sg13
g169
ssI14284
(dp3265
g1
(lp3266
(dp3267
g12
I14053
sg13
g1232
sa(dp3268
g12
I14114
sg13
g1234
sasg12
I14284
sg13
g1235
ssI14286
(dp3269
g1
(lp3270
(dp3271
g12
I14089
sg13
g1352
sa(dp3272
g12
I14107
sg13
g1354
sasg12
I14286
sg13
g1355
ssI14287
(dp3273
g1
(lp3274
(dp3275
g12
I14090
sg13
g1297
sa(dp3276
g12
I14150
sg13
g1299
sasg12
I14287
sg13
g1300
ssI14290
(dp3277
g1
(lp3278
(dp3279
g12
I14106
sg13
g218
sa(dp3280
g12
I14141
sg13
g220
sasg12
I14290
sg13
g221
ssI14291
(dp3281
g1
(lp3282
(dp3283
g12
I14116
sg13
g1304
sa(dp3284
g12
I14130
sg13
g1306
sasg12
I14291
sg13
g1307
ssI14292
(dp3285
g1
(lp3286
(dp3287
g12
I14117
sg13
g1376
sa(dp3288
g12
I14140
sg13
g1378
sa(dp3289
g12
I14152
sg13
g1380
sasg12
I14292
sg13
g1381
ssI14293
(dp3290
g1
(lp3291
(dp3292
g12
I14125
sg13
g1342
sa(dp3293
g12
I14151
sg13
g1344
sasg12
I14293
sg13
g1345
ssI14298
(dp3294
g1
(lp3295
(dp3296
g1
(lp3297
(dp3298
g12
I13676
sg13
g14
sa(dp3299
g12
I13940
sg13
g16
sasg12
I14153
sg13
g17
sa(dp3300
g1
(lp3301
(dp3302
g12
I13741
sg13
g21
sa(dp3303
g12
I13822
sg13
g23
sa(dp3304
g12
I13914
sg13
g25
sa(dp3305
g12
I13961
sg13
g27
sa(dp3306
g12
I13977
sg13
g29
sa(dp3307
g12
I14058
sg13
g31
sasg12
I14205
sg13
g32
sa(dp3308
g1
(lp3309
(dp3310
g12
I13866
sg13
g36
sa(dp3311
g12
I13952
sg13
g38
sa(dp3312
g12
I13983
sg13
g40
sa(dp3313
g12
I14040
sg13
g42
sa(dp3314
g12
I14128
sg13
g44
sasg12
I14253
sg13
g45
sa(dp3315
g1
(lp3316
(dp3317
g12
I13934
sg13
g49
sa(dp3318
g12
I13981
sg13
g51
sasg12
I14267
sg13
g52
sasg12
I14298
sg13
g53
ssI14299
(dp3319
g1
(lp3320
(dp3321
g1
(lp3322
(dp3323
g12
I13677
sg13
g371
sa(dp3324
g12
I13755
sg13
g373
sa(dp3325
g12
I13843
sg13
g375
sasg12
I14154
sg13
g376
sa(dp3326
g1
(lp3327
(dp3328
g12
I13683
sg13
g380
sa(dp3329
g12
I13701
sg13
g382
sa(dp3330
g12
I13748
sg13
g384
sasg12
I14159
sg13
g385
sasg12
I14299
sg13
g386
ssI14300
(dp3331
g1
(lp3332
(dp3333
g12
I13678
sg13
g609
sa(dp3334
g12
I13804
sg13
g611
sa(dp3335
g1
(lp3336
(dp3337
g12
I13831
sg13
g615
sa(dp3338
g12
I13862
sg13
g617
sa(dp3339
g12
I13885
sg13
g619
sa(dp3340
g12
I14068
sg13
g621
sa(dp3341
g12
I14101
sg13
g623
sasg12
I14242
sg13
g624
sa(dp3342
g1
(lp3343
(dp3344
g12
I13855
sg13
g628
sa(dp3345
g12
I13972
sg13
g630
sa(dp3346
g12
I14082
sg13
g632
sasg12
I14248
sg13
g633
sa(dp3347
g1
(lp3348
(dp3349
g12
I13872
sg13
g637
sa(dp3350
g12
I13937
sg13
g639
sa(dp3351
g12
I14062
sg13
g641
sasg12
I14254
sg13
g642
sa(dp3352
g1
(lp3353
(dp3354
g12
I13958
sg13
g646
sa(dp3355
g12
I13969
sg13
g648
sa(dp3356
g12
I14003
sg13
g650
sa(dp3357
g12
I14086
sg13
g652
sasg12
I14272
sg13
g653
sasg12
I14300
sg13
g654
ssI14301
(dp3358
g1
(lp3359
(dp3360
g1
(lp3361
(dp3362
g12
I13738
sg13
g660
sa(dp3363
g12
I13886
sg13
g662
sa(dp3364
g12
I13902
sg13
g664
sa(dp3365
g12
I14008
sg13
g666
sasg12
I14156
sg13
g667
sa(dp3366
g1
(lp3367
(dp3368
g12
I13679
sg13
g671
sa(dp3369
g12
I13705
sg13
g673
sa(dp3370
g12
I13713
sg13
g675
sa(dp3371
g12
I13747
sg13
g677
sa(dp3372
g12
I13799
sg13
g679
sasg12
I14180
sg13
g680
sa(dp3373
g1
(lp3374
(dp3375
g12
I13777
sg13
g684
sa(dp3376
g12
I14033
sg13
g686
sasg12
I14222
sg13
g687
sa(dp3377
g1
(lp3378
(dp3379
g12
I14024
sg13
g691
sa(dp3380
g12
I14035
sg13
g693
sa(dp3381
g12
I14136
sg13
g695
sasg12
I14279
sg13
g696
sasg12
I14301
sg13
g697
ssI14302
(dp3382
g1
(lp3383
(dp3384
g1
(lp3385
(dp3386
g12
I13680
sg13
g392
sa(dp3387
g12
I13681
sg13
g394
sa(dp3388
g12
I13811
sg13
g396
sasg12
I14157
sg13
g397
sa(dp3389
g1
(lp3390
(dp3391
g12
I13709
sg13
g401
sa(dp3392
g12
I13749
sg13
g403
sasg12
I14183
sg13
g404
sa(dp3393
g1
(lp3394
(dp3395
g12
I13710
sg13
g408
sa(dp3396
g12
I13752
sg13
g410
sa(dp3397
g12
I13838
sg13
g412
sa(dp3398
g12
I13853
sg13
g414
sa(dp3399
g12
I13970
sg13
g416
sa(dp3400
g12
I14118
sg13
g418
sasg12
I14184
sg13
g419
sa(dp3401
g1
(lp3402
(dp3403
g12
I13812
sg13
g423
sa(dp3404
g12
I13815
sg13
g425
sa(dp3405
g12
I13918
sg13
g427
sa(dp3406
g12
I13950
sg13
g429
sa(dp3407
g12
I13993
sg13
g431
sa(dp3408
g12
I14052
sg13
g433
sasg12
I14234
sg13
g434
sa(dp3409
g1
(lp3410
(dp3411
g12
I13848
sg13
g438
sa(dp3412
g12
I13883
sg13
g440
sa(dp3413
g12
I13889
sg13
g442
sa(dp3414
g12
I14075
sg13
g444
sasg12
I14247
sg13
g445
sasg12
I14302
sg13
g446
ssI14303
(dp3415
g1
(lp3416
(dp3417
g1
(lp3418
(dp3419
g12
I13682
sg13
g490
sa(dp3420
g12
I13982
sg13
g492
sa(dp3421
g12
I13997
sg13
g494
sasg12
I14158
sg13
g495
sa(dp3422
g12
I13929
sg13
g497
sasg12
I14303
sg13
g498
ssI14304
(dp3423
g1
(lp3424
(dp3425
g1
(lp3426
(dp3427
g12
I13684
sg13
g1204
sa(dp3428
g12
I13858
sg13
g1206
sasg12
I14160
sg13
g1207
sa(dp3429
g12
I13770
sg13
g1209
sasg12
I14304
sg13
g1210
ssI14306
(dp3430
g1
(lp3431
(dp3432
g1
(lp3433
(dp3434
g12
I13686
sg13
g128
sa(dp3435
g12
I13718
sg13
g130
sasg12
I14162
sg13
g131
sa(dp3436
g12
I13824
sg13
g133
sasg12
I14306
sg13
g134
ssI14307
(dp3437
g1
(lp3438
(dp3439
g1
(lp3440
(dp3441
g12
I13687
sg13
g1258
sa(dp3442
g12
I13870
sg13
g1260
sasg12
I14163
sg13
g1261
sa(dp3443
g1
(lp3444
(dp3445
g12
I13908
sg13
g1265
sa(dp3446
g12
I13930
sg13
g1267
sa(dp3447
g12
I14083
sg13
g1269
sa(dp3448
g12
I14112
sg13
g1271
sasg12
I14260
sg13
g1272
sasg12
I14307
sg13
g1273
ssI14308
(dp3449
g1
(lp3450
(dp3451
g12
I13688
sg13
g515
sa(dp3452
g1
(lp3453
(dp3454
g12
I13949
sg13
g519
sa(dp3455
g12
I14011
sg13
g521
sa(dp3456
g12
I14028
sg13
g523
sasg12
I14269
sg13
g524
sa(dp3457
g1
(lp3458
(dp3459
g12
I14029
sg13
g528
sa(dp3460
g12
I14061
sg13
g530
sasg12
I14280
sg13
g531
sasg12
I14308
sg13
g532
ssI14309
(dp3461
g1
(lp3462
(dp3463
g1
(lp3464
(dp3465
g12
I13689
sg13
g703
sa(dp3466
g12
I13867
sg13
g705
sa(dp3467
g12
I13920
sg13
g707
sa(dp3468
g12
I13928
sg13
g709
sasg12
I14165
sg13
g710
sa(dp3469
g1
(lp3470
(dp3471
g12
I13703
sg13
g714
sa(dp3472
g12
I13847
sg13
g716
sa(dp3473
g12
I14016
sg13
g718
sa(dp3474
g12
I14078
sg13
g720
sasg12
I14178
sg13
g721
sa(dp3475
g1
(lp3476
(dp3477
g12
I13712
sg13
g725
sa(dp3478
g12
I13927
sg13
g727
sa(dp3479
g12
I14137
sg13
g729
sa(dp3480
g12
I14147
sg13
g731
sasg12
I14186
sg13
g732
sa(dp3481
g1
(lp3482
(dp3483
g12
I13802
sg13
g736
sa(dp3484
g12
I13984
sg13
g738
sasg12
I14231
sg13
g739
sa(dp3485
g1
(lp3486
(dp3487
g12
I13845
sg13
g743
sa(dp3488
g12
I13988
sg13
g745
sa(dp3489
g12
I14041
sg13
g747
sa(dp3490
g12
I14080
sg13
g749
sasg12
I14246
sg13
g750
sa(dp3491
g1
(lp3492
(dp3493
g12
I13917
sg13
g754
sa(dp3494
g12
I13923
sg13
g756
sa(dp3495
g12
I13941
sg13
g758
sa(dp3496
g12
I14012
sg13
g760
sa(dp3497
g12
I14031
sg13
g762
sa(dp3498
g12
I14059
sg13
g764
sa(dp3499
g12
I14093
sg13
g766
sasg12
I14264
sg13
g767
sa(dp3500
g1
(lp3501
(dp3502
g12
I13962
sg13
g771
sa(dp3503
g12
I14018
sg13
g773
sa(dp3504
g12
I14132
sg13
g775
sasg12
I14273
sg13
g776
sasg12
I14309
sg13
g777
ssI14310
(dp3505
g1
(lp3506
(dp3507
g1
(lp3508
(dp3509
g12
I13690
sg13
g1411
sa(dp3510
g12
I13891
sg13
g1413
sa(dp3511
g12
I13959
sg13
g1415
sa(dp3512
g12
I14102
sg13
g1417
sasg12
I14166
sg13
g1418
sa(dp3513
g1
(lp3514
(dp3515
g12
I13865
sg13
g1422
sa(dp3516
g12
I14007
sg13
g1424
sa(dp3517
g12
I14067
sg13
g1426
sasg12
I14252
sg13
g1427
sasg12
I14310
sg13
g1428
ssI14311
(dp3518
g1
(lp3519
(dp3520
g1
(lp3521
(dp3522
g12
I13691
sg13
g868
sa(dp3523
g12
I13737
sg13
g870
sa(dp3524
g12
I13795
sg13
g872
sa(dp3525
g12
I13894
sg13
g874
sa(dp3526
g12
I13978
sg13
g876
sa(dp3527
g12
I14015
sg13
g878
sasg12
I14167
sg13
g879
sa(dp3528
g1
(lp3529
(dp3530
g12
I13708
sg13
g883
sa(dp3531
g12
I13817
sg13
g885
sa(dp3532
g12
I13973
sg13
g887
sa(dp3533
g12
I13975
sg13
g889
sa(dp3534
g12
I14095
sg13
g891
sasg12
I14182
sg13
g892
sa(dp3535
g1
(lp3536
(dp3537
g12
I13731
sg13
g896
sa(dp3538
g12
I13828
sg13
g898
sa(dp3539
g12
I13942
sg13
g900
sasg12
I14197
sg13
g901
sa(dp3540
g1
(lp3541
(dp3542
g12
I13830
sg13
g905
sa(dp3543
g12
I13868
sg13
g907
sa(dp3544
g12
I13911
sg13
g909
sa(dp3545
g12
I14010
sg13
g911
sa(dp3546
g12
I14042
sg13
g913
sa(dp3547
g12
I14049
sg13
g915
sa(dp3548
g12
I14121
sg13
g917
sasg12
I14241
sg13
g918
sasg12
I14311
sg13
g919
ssI14312
(dp3549
g1
(lp3550
(dp3551
g1
(lp3552
(dp3553
g12
I13692
sg13
g1434
sa(dp3554
g12
I13761
sg13
g1436
sasg12
I14168
sg13
g1437
sa(dp3555
g1
(lp3556
(dp3557
g12
I13807
sg13
g1441
sa(dp3558
g12
I13846
sg13
g1443
sa(dp3559
g12
I13915
sg13
g1445
sa(dp3560
g12
I13944
sg13
g1447
sa(dp3561
g12
I13994
sg13
g1449
sa(dp3562
g12
I14026
sg13
g1451
sasg12
I14233
sg13
g1452
sasg12
I14312
sg13
g1453
ssI14313
(dp3563
g1
(lp3564
(dp3565
g1
(lp3566
(dp3567
g12
I13805
sg13
g209
sa(dp3568
g12
I14122
sg13
g211
sasg12
I14169
sg13
g212
sa(dp3569
g12
I14045
sg13
g214
sa(dp3570
g1
(lp3571
(dp3572
g12
I14106
sg13
g218
sa(dp3573
g12
I14141
sg13
g220
sasg12
I14290
sg13
g221
sa(dp3574
g12
I14146
sg13
g223
sasg12
I14313
sg13
g224
ssI14314
(dp3575
g1
(lp3576
(dp3577
g1
(lp3578
(dp3579
g12
I13694
sg13
g452
sa(dp3580
g12
I13756
sg13
g454
sa(dp3581
g12
I13833
sg13
g456
sa(dp3582
g12
I13951
sg13
g458
sa(dp3583
g12
I14050
sg13
g460
sasg12
I14170
sg13
g461
sa(dp3584
g1
(lp3585
(dp3586
g12
I13721
sg13
g465
sa(dp3587
g12
I13992
sg13
g467
sa(dp3588
g12
I14037
sg13
g469
sa(dp3589
g12
I14057
sg13
g471
sa(dp3590
g12
I14085
sg13
g473
sa(dp3591
g12
I14092
sg13
g475
sa(dp3592
g12
I14135
sg13
g477
sasg12
I14191
sg13
g478
sa(dp3593
g12
I13913
sg13
g480
sasg12
I14314
sg13
g481
ssI14315
(dp3594
g1
(lp3595
(dp3596
g1
(lp3597
(dp3598
g12
I13695
sg13
g1279
sa(dp3599
g12
I13957
sg13
g1281
sa(dp3600
g12
I14143
sg13
g1283
sasg12
I14171
sg13
g1284
sa(dp3601
g12
I13864
sg13
g1286
sa(dp3602
g1
(lp3603
(dp3604
g12
I13953
sg13
g1290
sa(dp3605
g12
I14142
sg13
g1292
sasg12
I14270
sg13
g1293
sa(dp3606
g1
(lp3607
(dp3608
g12
I14090
sg13
g1297
sa(dp3609
g12
I14150
sg13
g1299
sasg12
I14287
sg13
g1300
sa(dp3610
g1
(lp3611
(dp3612
g12
I14116
sg13
g1304
sa(dp3613
g12
I14130
sg13
g1306
sasg12
I14291
sg13
g1307
sa(dp3614
g12
I14138
sg13
g1309
sasg12
I14315
sg13
g1310
ssI14316
(dp3615
g1
(lp3616
(dp3617
g1
(lp3618
(dp3619
g12
I13696
sg13
g541
sa(dp3620
g12
I13715
sg13
g543
sa(dp3621
g12
I13722
sg13
g545
sa(dp3622
g12
I13764
sg13
g547
sa(dp3623
g12
I13882
sg13
g549
sasg12
I14172
sg13
g550
sa(dp3624
g1
(lp3625
(dp3626
g12
I13730
sg13
g554
sa(dp3627
g12
I13776
sg13
g556
sa(dp3628
g12
I13782
sg13
g558
sa(dp3629
g12
I13837
sg13
g560
sa(dp3630
g12
I13869
sg13
g562
sa(dp3631
g12
I13881
sg13
g564
sa(dp3632
g12
I13985
sg13
g566
sa(dp3633
g12
I14105
sg13
g568
sasg12
I14196
sg13
g569
sasg12
I14316
sg13
g570
ssI14317
(dp3634
g1
(lp3635
(dp3636
g1
(lp3637
(dp3638
g12
I13697
sg13
g1015
sa(dp3639
g12
I13786
sg13
g1017
sa(dp3640
g12
I13924
sg13
g1019
sa(dp3641
g12
I14004
sg13
g1021
sa(dp3642
g12
I14104
sg13
g1023
sa(dp3643
g12
I14129
sg13
g1025
sa(dp3644
g12
I14139
sg13
g1027
sasg12
I14173
sg13
g1028
sa(dp3645
g1
(lp3646
(dp3647
g12
I13750
sg13
g1032
sa(dp3648
g12
I13775
sg13
g1034
sa(dp3649
g12
I13801
sg13
g1036
sa(dp3650
g12
I13875
sg13
g1038
sa(dp3651
g12
I13947
sg13
g1040
sasg12
I14209
sg13
g1041
sasg12
I14317
sg13
g1042
ssI14318
(dp3652
g1
(lp3653
(dp3654
g1
(lp3655
(dp3656
g12
I13698
sg13
g783
sa(dp3657
g12
I13729
sg13
g785
sa(dp3658
g12
I13765
sg13
g787
sa(dp3659
g12
I13964
sg13
g789
sa(dp3660
g12
I13976
sg13
g791
sa(dp3661
g12
I14044
sg13
g793
sasg12
I14174
sg13
g794
sa(dp3662
g1
(lp3663
(dp3664
g12
I13754
sg13
g798
sa(dp3665
g12
I13844
sg13
g800
sa(dp3666
g12
I13854
sg13
g802
sa(dp3667
g12
I13956
sg13
g804
sasg12
I14211
sg13
g805
sa(dp3668
g1
(lp3669
(dp3670
g12
I13841
sg13
g809
sa(dp3671
g12
I13859
sg13
g811
sa(dp3672
g12
I13955
sg13
g813
sasg12
I14245
sg13
g814
sa(dp3673
g12
I13989
sg13
g816
sasg12
I14318
sg13
g817
ssI14319
(dp3674
g1
(lp3675
(dp3676
g1
(lp3677
(dp3678
g12
I13699
sg13
g1216
sa(dp3679
g12
I13707
sg13
g1218
sa(dp3680
g12
I13829
sg13
g1220
sasg12
I14175
sg13
g1221
sa(dp3681
g1
(lp3682
(dp3683
g12
I13827
sg13
g1225
sa(dp3684
g12
I13931
sg13
g1227
sasg12
I14240
sg13
g1228
sa(dp3685
g1
(lp3686
(dp3687
g12
I14053
sg13
g1232
sa(dp3688
g12
I14114
sg13
g1234
sasg12
I14284
sg13
g1235
sasg12
I14319
sg13
g1236
ssI14320
(dp3689
g1
(lp3690
(dp3691
g1
(lp3692
(dp3693
g12
I13700
sg13
g1459
sa(dp3694
g12
I13781
sg13
g1461
sa(dp3695
g12
I13816
sg13
g1463
sa(dp3696
g12
I13987
sg13
g1465
sa(dp3697
g12
I14103
sg13
g1467
sa(dp3698
g12
I14148
sg13
g1469
sasg12
I14176
sg13
g1470
sa(dp3699
g1
(lp3700
(dp3701
g12
I13790
sg13
g1474
sa(dp3702
g12
I13871
sg13
g1476
sasg12
I14228
sg13
g1477
sa(dp3703
g1
(lp3704
(dp3705
g12
I13878
sg13
g1481
sa(dp3706
g12
I13899
sg13
g1483
sa(dp3707
g12
I13933
sg13
g1485
sa(dp3708
g12
I14060
sg13
g1487
sa(dp3709
g12
I14087
sg13
g1489
sa(dp3710
g12
I14098
sg13
g1491
sasg12
I14255
sg13
g1492
sa(dp3711
g1
(lp3712
(dp3713
g12
I13887
sg13
g1496
sa(dp3714
g12
I13963
sg13
g1498
sasg12
I14258
sg13
g1499
sa(dp3715
g12
I13943
sg13
g1501
sasg12
I14320
sg13
g1502
ssI14322
(dp3716
g1
(lp3717
(dp3718
g1
(lp3719
(dp3720
g12
I13704
sg13
g576
sa(dp3721
g12
I13758
sg13
g578
sa(dp3722
g12
I13792
sg13
g580
sa(dp3723
g12
I13797
sg13
g582
sa(dp3724
g12
I14034
sg13
g584
sa(dp3725
g12
I14099
sg13
g586
sasg12
I14179
sg13
g587
sa(dp3726
g1
(lp3727
(dp3728
g12
I13767
sg13
g591
sa(dp3729
g12
I13803
sg13
g593
sa(dp3730
g12
I13825
sg13
g595
sa(dp3731
g12
I13880
sg13
g597
sa(dp3732
g12
I13897
sg13
g599
sasg12
I14216
sg13
g600
sasg12
I14322
sg13
g601
ssI14323
(dp3733
g1
(lp3734
(dp3735
g12
I13706
sg13
g228
sa(dp3736
g1
(lp3737
(dp3738
g12
I13813
sg13
g232
sa(dp3739
g12
I13849
sg13
g234
sa(dp3740
g12
I13932
sg13
g236
sa(dp3741
g12
I14032
sg13
g238
sa(dp3742
g12
I14038
sg13
g240
sa(dp3743
g12
I14066
sg13
g242
sa(dp3744
g12
I14134
sg13
g244
sasg12
I14235
sg13
g245
sasg12
I14323
sg13
g246
ssI14324
(dp3745
g1
(lp3746
(dp3747
g1
(lp3748
(dp3749
g12
I13711
sg13
g1072
sa(dp3750
g12
I13720
sg13
g1074
sa(dp3751
g12
I13861
sg13
g1076
sa(dp3752
g12
I13926
sg13
g1078
sasg12
I14185
sg13
g1079
sa(dp3753
g1
(lp3754
(dp3755
g12
I13733
sg13
g1083
sa(dp3756
g12
I13788
sg13
g1085
sa(dp3757
g12
I13800
sg13
g1087
sa(dp3758
g12
I13808
sg13
g1089
sa(dp3759
g12
I14014
sg13
g1091
sa(dp3760
g12
I14065
sg13
g1093
sasg12
I14199
sg13
g1094
sa(dp3761
g1
(lp3762
(dp3763
g12
I13968
sg13
g1098
sa(dp3764
g12
I14025
sg13
g1100
sa(dp3765
g12
I14055
sg13
g1102
sa(dp3766
g12
I14074
sg13
g1104
sasg12
I14275
sg13
g1105
sasg12
I14324
sg13
g1106
ssI14325
(dp3767
g1
(lp3768
(dp3769
g1
(lp3770
(dp3771
g12
I13714
sg13
g59
sa(dp3772
g12
I13836
sg13
g61
sa(dp3773
g12
I13960
sg13
g63
sasg12
I14187
sg13
g64
sa(dp3774
g1
(lp3775
(dp3776
g12
I13736
sg13
g68
sa(dp3777
g12
I13759
sg13
g70
sa(dp3778
g12
I13794
sg13
g72
sa(dp3779
g12
I13874
sg13
g74
sa(dp3780
g12
I13877
sg13
g76
sa(dp3781
g12
I13922
sg13
g78
sa(dp3782
g12
I14077
sg13
g80
sa(dp3783
g12
I14088
sg13
g82
sasg12
I14202
sg13
g83
sasg12
I14325
sg13
g84
ssI14326
(dp3784
g1
(lp3785
(dp3786
g1
(lp3787
(dp3788
g12
I13716
sg13
g1112
sa(dp3789
g12
I13938
sg13
g1114
sa(dp3790
g12
I14013
sg13
g1116
sa(dp3791
g12
I14022
sg13
g1118
sa(dp3792
g12
I14048
sg13
g1120
sa(dp3793
g12
I14069
sg13
g1122
sa(dp3794
g12
I14097
sg13
g1124
sa(dp3795
g12
I14127
sg13
g1126
sa(dp3796
g12
I14131
sg13
g1128
sasg12
I14188
sg13
g1129
sa(dp3797
g1
(lp3798
(dp3799
g12
I13719
sg13
g1133
sa(dp3800
g12
I13791
sg13
g1135
sa(dp3801
g12
I13912
sg13
g1137
sasg12
I14190
sg13
g1138
sa(dp3802
g1
(lp3803
(dp3804
g12
I13740
sg13
g1142
sa(dp3805
g12
I13850
sg13
g1144
sa(dp3806
g12
I13852
sg13
g1146
sa(dp3807
g12
I13888
sg13
g1148
sa(dp3808
g12
I13895
sg13
g1150
sa(dp3809
g12
I13996
sg13
g1152
sa(dp3810
g12
I14030
sg13
g1154
sa(dp3811
g12
I14070
sg13
g1156
sasg12
I14204
sg13
g1157
sa(dp3812
g1
(lp3813
(dp3814
g12
I13760
sg13
g1161
sa(dp3815
g12
I13771
sg13
g1163
sa(dp3816
g12
I14000
sg13
g1165
sasg12
I14213
sg13
g1166
sa(dp3817
g1
(lp3818
(dp3819
g12
I13762
sg13
g1170
sa(dp3820
g12
I13783
sg13
g1172
sa(dp3821
g12
I13893
sg13
g1174
sa(dp3822
g12
I13948
sg13
g1176
sa(dp3823
g12
I13967
sg13
g1178
sasg12
I14214
sg13
g1179
sa(dp3824
g1
(lp3825
(dp3826
g12
I13769
sg13
g1183
sa(dp3827
g12
I14036
sg13
g1185
sa(dp3828
g12
I14064
sg13
g1187
sa(dp3829
g12
I14081
sg13
g1189
sasg12
I14217
sg13
g1190
sasg12
I14326
sg13
g1191
ssI14327
(dp3830
g1
(lp3831
(dp3832
g1
(lp3833
(dp3834
g12
I13717
sg13
g1319
sa(dp3835
g12
I13746
sg13
g1321
sa(dp3836
g12
I14091
sg13
g1323
sasg12
I14189
sg13
g1324
sa(dp3837
g12
I13744
sg13
g1326
sasg12
I14327
sg13
g1327
ssI14328
(dp3838
g1
(lp3839
(dp3840
g1
(lp3841
(dp3842
g12
I13724
sg13
g262
sa(dp3843
g12
I13851
sg13
g264
sa(dp3844
g12
I13910
sg13
g266
sa(dp3845
g12
I13995
sg13
g268
sa(dp3846
g12
I14019
sg13
g270
sa(dp3847
g12
I14084
sg13
g272
sa(dp3848
g12
I14144
sg13
g274
sasg12
I14192
sg13
g275
sa(dp3849
g1
(lp3850
(dp3851
g12
I13742
sg13
g279
sa(dp3852
g12
I13743
sg13
g281
sa(dp3853
g12
I13768
sg13
g283
sa(dp3854
g12
I13821
sg13
g285
sa(dp3855
g12
I13907
sg13
g287
sasg12
I14206
sg13
g288
sasg12
I14328
sg13
g289
ssI14330
(dp3856
g1
(lp3857
(dp3858
g12
I13727
sg13
g1331
sa(dp3859
g1
(lp3860
(dp3861
g12
I13735
sg13
g1335
sa(dp3862
g12
I13906
sg13
g1337
sasg12
I14201
sg13
g1338
sa(dp3863
g1
(lp3864
(dp3865
g12
I14125
sg13
g1342
sa(dp3866
g12
I14151
sg13
g1344
sasg12
I14293
sg13
g1345
sasg12
I14330
sg13
g1346
ssI14331
(dp3867
g1
(lp3868
(dp3869
g1
(lp3870
(dp3871
g12
I13728
sg13
g823
sa(dp3872
g12
I13873
sg13
g825
sa(dp3873
g12
I13986
sg13
g827
sa(dp3874
g12
I14072
sg13
g829
sa(dp3875
g12
I14100
sg13
g831
sasg12
I14195
sg13
g832
sa(dp3876
g1
(lp3877
(dp3878
g12
I13814
sg13
g836
sa(dp3879
g12
I13901
sg13
g838
sa(dp3880
g12
I13921
sg13
g840
sa(dp3881
g12
I13939
sg13
g842
sa(dp3882
g12
I13979
sg13
g844
sa(dp3883
g12
I13980
sg13
g846
sa(dp3884
g12
I14021
sg13
g848
sa(dp3885
g12
I14079
sg13
g850
sasg12
I14236
sg13
g851
sasg12
I14331
sg13
g852
ssI14332
(dp3886
g1
(lp3887
(dp3888
g12
I13732
sg13
g162
sa(dp3889
g1
(lp3890
(dp3891
g12
I14043
sg13
g166
sa(dp3892
g12
I14046
sg13
g168
sasg12
I14281
sg13
g169
sa(dp3893
g12
I14051
sg13
g171
sa(dp3894
g12
I14094
sg13
g173
sasg12
I14332
sg13
g174
sstp3895
.