((dp0
S'children'
p1
(lp2
(dp3
g1
(lp4
(dp5
g1
(lp6
(dp7
S'id'
p8
I0
sS'name'
p9
S'Eastern_Orthodox_Church'
p10
sa(dp11
g8
I4
sg9
S'Finland'
p12
sa(dp13
g8
I26
sg9
S'Hungary'
p14
sa(dp15
g8
I32
sg9
S'Iceland'
p16
sa(dp17
g8
I68
sg9
S'Latvia'
p18
sa(dp19
g8
I69
sg9
S'Luxembourg'
p20
sa(dp21
g8
I70
sg9
S'Lithuania'
p22
sa(dp23
g8
I125
sg9
S'Russian_Empire'
p24
sa(dp25
g8
I129
sg9
S'Countries_of_the_world'
p26
sa(dp27
g8
I130
sg9
S'Nazi_Germany'
p28
sa(dp29
g8
I151
sg9
S'Poland'
p30
sa(dp31
g8
I191
sg9
S'Romania'
p32
sa(dp33
g8
I211
sg9
S'Switzerland'
p34
sa(dp35
g8
I216
sg9
S'Slovakia'
p36
sa(dp37
g8
I217
sg9
S'Austria'
p38
sa(dp39
g8
I224
sg9
S'Slovenia'
p40
sa(dp41
g8
I226
sg9
S'Anatomical_Therapeutic_Chemical_Classification_System'
p42
sa(dp43
g8
I230
sg9
S'Estonia'
p44
sa(dp45
g8
I234
sg9
S'Serbia'
p46
sa(dp47
g8
I247
sg9
S'Ukraine'
p48
sa(dp49
g8
I267
sg9
S'Bulgaria'
p50
sa(dp51
g8
I271
sg9
S'Belarus'
p52
sa(dp53
g8
I323
sg9
S'Sweden'
p54
sa(dp55
g8
I337
sg9
S'Czech_Republic'
p56
sa(dp57
g8
I346
sg9
S'Croatia'
p58
sa(dp59
g8
I347
sg9
S'Vienna'
p60
sasg8
I408
sg9
S'Poland'
p61
sa(dp62
g1
(lp63
(dp64
g8
I3
sg9
S'Association_football'
p65
sa(dp66
g8
I42
sg9
S'Ice_hockey'
p67
sa(dp68
g8
I65
sg9
S'Melbourne'
p69
sa(dp70
g8
I74
sg9
S'London'
p71
sa(dp72
g8
I102
sg9
S'Moscow'
p73
sa(dp74
g8
I141
sg9
S'New_South_Wales'
p75
sa(dp76
g8
I150
sg9
S'Olympic_Games'
p77
sa(dp78
g8
I155
sg9
S'Paris'
p79
sa(dp80
g8
I193
sg9
S'Rome'
p81
sa(dp82
g8
I196
sg9
S'Cricket'
p83
sa(dp84
g8
I204
sg9
S'UTC+1'
p85
sa(dp86
g8
I210
sg9
S'Stockholm'
p87
sa(dp88
g8
I229
sg9
S'Sydney'
p89
sa(dp90
g8
I239
sg9
S'Tokyo'
p91
sa(dp92
g8
I261
sg9
S'Berlin'
p93
sa(dp94
g8
I300
sg9
S'Forward_(association_football)'
p95
sa(dp96
g8
I309
sg9
S'World_War_I'
p97
sa(dp98
g8
I345
sg9
S'Midfielder'
p99
sa(dp100
g8
I364
sg9
S'Defender_(association_football)'
p101
sasg8
I411
sg9
S'Association_football'
p102
sa(dp103
g1
(lp104
(dp105
g8
I9
sg9
S'Turkey'
p106
sa(dp107
g8
I46
sg9
S'Football_(soccer)'
p108
sa(dp109
g8
I59
sg9
S'Kazakhstan'
p110
sa(dp111
g8
I108
sg9
S'Morocco'
p112
sa(dp113
g8
I123
sg9
S'Vietnam'
p114
sa(dp115
g8
I188
sg9
S'Russia'
p116
sa(dp117
g8
I272
sg9
S'Bosnia_and_Herzegovina'
p118
sa(dp119
g8
I278
sg9
S'Algeria'
p120
sa(dp121
g8
I312
sg9
S'Georgia_(country)'
p122
sa(dp123
g8
I332
sg9
S'List_of_states_with_limited_recognition'
p124
sa(dp125
g8
I348
sg9
S'Cyprus'
p126
sa(dp127
g8
I369
sg9
S'Asia'
p128
sa(dp129
g8
I378
sg9
S'Afghanistan'
p130
sa(dp131
g8
I379
sg9
S'Azerbaijan'
p132
sa(dp133
g8
I380
sg9
S'Syria'
p134
sa(dp135
g8
I386
sg9
S'Egypt'
p136
sa(dp137
g8
I401
sg9
S'Israel'
p138
sasg8
I416
sg9
S'Vietnam'
p139
sa(dp140
g1
(lp141
(dp142
g8
I13
sg9
S'Germany'
p143
sa(dp144
g8
I16
sg9
S'Greece'
p145
sa(dp146
g8
I33
sg9
S'Italy'
p147
sa(dp148
g8
I36
sg9
S'Republic_of_Ireland'
p149
sa(dp150
g8
I128
sg9
S'Netherlands'
p151
sa(dp152
g8
I131
sg9
S'Norway'
p153
sa(dp154
g8
I156
sg9
S'Portugal'
p155
sa(dp156
g8
I182
sg9
S'Saint_Petersburg'
p157
sa(dp158
g8
I209
sg9
S'Spain'
p159
sa(dp160
g8
I214
sg9
S'Soviet_Union'
p161
sa(dp162
g8
I245
sg9
S'United_Kingdom'
p163
sa(dp164
g8
I250
sg9
S'USA'
p165
sa(dp166
g8
I260
sg9
S'Belgium'
p167
sa(dp168
g8
I291
sg9
S'United_Kingdom'
p169
sa(dp170
g8
I307
sg9
S'Australia'
p171
sa(dp172
g8
I353
sg9
S'France'
p173
sa(dp174
g8
I382
sg9
S'Denmark'
p175
sa(dp176
g8
I400
sg9
S'Europe'
p177
sa(dp178
g8
I403
sg9
S'European_Union'
p179
sasg8
I420
sg9
S'Europe'
p180
sa(dp181
g1
(lp182
(dp183
g8
I20
sg9
S'Papua_New_Guinea'
p184
sa(dp185
g8
I27
sg9
S'Hong_Kong'
p186
sa(dp187
g8
I34
sg9
S'India'
p188
sa(dp189
g8
I37
sg9
S'Indonesia'
p190
sa(dp191
g8
I38
sg9
S'Iran'
p192
sa(dp193
g8
I67
sg9
S'South_Africa'
p194
sa(dp195
g8
I83
sg9
S'Kenya'
p196
sa(dp197
g8
I110
sg9
S'BBC'
p198
sa(dp199
g8
I111
sg9
S'Burma'
p200
sa(dp201
g8
I133
sg9
S'Nigeria'
p202
sa(dp203
g8
I153
sg9
S'Papua_New_Guinea'
p204
sa(dp205
g8
I165
sg9
S'Pakistan'
p206
sa(dp207
g8
I169
sg9
S'Philippines'
p208
sa(dp209
g8
I197
sg9
S'Taiwan'
p210
sa(dp211
g8
I212
sg9
S'Sri_Lanka'
p212
sa(dp213
g8
I220
sg9
S'South_Korea'
p214
sa(dp215
g8
I221
sg9
S'Singapore'
p216
sa(dp217
g8
I240
sg9
S'Thailand'
p218
sa(dp219
g8
I259
sg9
S"People's_Republic_of_China"
p220
sa(dp221
g8
I270
sg9
S'Bangladesh'
p222
sa(dp223
g8
I273
sg9
S'Saudi_Arabia'
p224
sa(dp225
g8
I279
sg9
S'Malaysia'
p226
sa(dp227
g8
I342
sg9
S'China'
p228
sa(dp229
g8
I350
sg9
S'Iran_Standard_Time'
p230
sa(dp231
g8
I381
sg9
S'Iraq'
p232
sasg8
I423
sg9
S'Malaysia'
p233
sasg8
I433
sg9
S'Germany'
p234
sa(dp235
g1
(lp236
(dp237
g1
(lp238
(dp239
g1
(lp240
(dp241
g8
I1
sg9
S'International_Union_for_Conservation_of_Nature'
p242
sa(dp243
g8
I21
sg9
S'Population_density'
p244
sa(dp245
g8
I64
sg9
S'Peru'
p246
sa(dp247
g8
I73
sg9
S'List_of_countries'
p248
sa(dp249
g8
I98
sg9
S'Argentina'
p250
sa(dp251
g8
I99
sg9
S'Antarctica'
p252
sa(dp253
g8
I105
sg9
S'Drainage_basin'
p254
sa(dp255
g8
I107
sg9
S'Conservation_status'
p256
sa(dp257
g8
I127
sg9
S'North_America'
p258
sa(dp259
g8
I158
sg9
S'Pacific_Ocean'
p260
sa(dp261
g8
I201
sg9
S'New_Zealand'
p262
sa(dp263
g8
I213
sg9
S'South_America'
p264
sa(dp265
g8
I255
sg9
S'Venezuela'
p266
sa(dp267
g8
I263
sg9
S'Brazil'
p268
sa(dp269
g8
I288
sg9
S'Mexico'
p270
sa(dp271
g8
I313
sg9
S'New_Zealand'
p272
sa(dp273
g8
I319
sg9
S'Cuba'
p274
sa(dp275
g8
I320
sg9
S'Canada'
p276
sa(dp277
g8
I329
sg9
S'Colombia'
p278
sa(dp279
g8
I339
sg9
S'Africa'
p280
sa(dp281
g8
I344
sg9
S'Chile'
p282
sa(dp283
g8
I356
sg9
S'Sea_level'
p284
sa(dp285
g8
I358
sg9
S'Agriculture'
p286
sa(dp287
g8
I360
sg9
S'National_Register_of_Historic_Places'
p288
sa(dp289
g8
I371
sg9
S'Atlantic_Ocean'
p290
sa(dp291
g8
I374
sg9
S'Tributary'
p292
sa(dp293
g8
I375
sg9
S'Nonprofit_organization'
p294
sa(dp295
g8
I398
sg9
S'Earth'
p296
sasg8
I409
sg9
S'Earth'
p297
sa(dp298
g1
(lp299
(dp300
g8
I5
sg9
S'French_language'
p301
sa(dp302
g8
I14
sg9
S'German_language'
p303
sa(dp304
g8
I39
sg9
S'Italian_language'
p305
sa(dp306
g8
I53
sg9
S'Japanese_language'
p307
sa(dp308
g8
I120
sg9
S'Dutch_language'
p309
sa(dp310
g8
I152
sg9
S'Physics'
p311
sa(dp312
g8
I154
sg9
S'Polish_language'
p313
sa(dp314
g8
I170
sg9
S'Roman_Catholic_Church'
p315
sa(dp316
g8
I178
sg9
S'Portuguese_language'
p317
sa(dp318
g8
I190
sg9
S'Russian_language'
p319
sa(dp320
g8
I194
sg9
S'Roman_Catholic'
p321
sa(dp322
g8
I199
sg9
S'Jews'
p323
sa(dp324
g8
I215
sg9
S'Spanish_language'
p325
sa(dp326
g8
I352
sg9
S'Chinese_language'
p327
sa(dp328
g8
I373
sg9
S'Surname'
p329
sa(dp330
g8
I384
sg9
S'Quebec'
p331
sa(dp332
g8
I391
sg9
S'English_language'
p333
sasg8
I412
sg9
S'French_language'
p334
sa(dp335
g1
(lp336
(dp337
g8
I11
sg9
S'BBC_News'
p338
sa(dp339
g8
I45
sg9
S'ISO_3166'
p340
sa(dp341
g8
I52
sg9
S'Japan'
p342
sa(dp343
g8
I62
sg9
S'Types_of_business_entity'
p344
sa(dp345
g8
I80
sg9
S'NASA'
p346
sa(dp347
g8
I95
sg9
S'DMOZ'
p348
sa(dp349
g8
I143
sg9
S'UNESCO'
p350
sa(dp351
g8
I172
sg9
S'Wayback_Machine'
p352
sa(dp353
g8
I249
sg9
S'United_Nations'
p354
sa(dp355
g8
I258
sg9
S'World_War_II'
p356
sa(dp357
g8
I275
sg9
S'YouTube'
p358
sa(dp359
g8
I366
sg9
S'List_of_sovereign_states'
p360
sasg8
I418
sg9
S'Japan'
p361
sa(dp362
g1
(lp363
(dp364
g8
I22
sg9
S'Latin_language'
p365
sa(dp366
g8
I24
sg9
S'PubMed_Identifier'
p367
sa(dp368
g8
I48
sg9
S'International_Standard_Book_Number'
p369
sa(dp370
g8
I138
sg9
S'JSTOR'
p371
sa(dp372
g8
I171
sg9
S'International_Standard_Serial_Number'
p373
sa(dp374
g8
I181
sg9
S'Alma_mater'
p375
sa(dp376
g8
I228
sg9
S'PubMed_Central'
p377
sa(dp378
g8
I294
sg9
S'Wikisource'
p379
sa(dp380
g8
I296
sg9
S'Digital_object_identifier'
p381
sa(dp382
g8
I377
sg9
S'Cambridge_University_Press'
p383
sa(dp384
g8
I393
sg9
S'OCLC'
p385
sasg8
I424
sg9
S'Digital_object_identifier'
p386
sasg8
I434
sg9
S'Brazil'
p387
sa(dp388
g1
(lp389
(dp390
g1
(lp391
(dp392
g8
I2
sg9
S'The_Washington_Post'
p393
sa(dp394
g8
I54
sg9
S'Jazz'
p395
sa(dp396
g8
I75
sg9
S'Los_Angeles'
p397
sa(dp398
g8
I93
sg9
S'Associated_Press'
p399
sa(dp400
g8
I97
sg9
S'American_football'
p401
sa(dp402
g8
I109
sg9
S'The_Guardian'
p403
sa(dp404
g8
I145
sg9
S'Newspaper'
p405
sa(dp406
g8
I223
sg9
S'Los_Angeles_Times'
p407
sa(dp408
g8
I225
sg9
S'St._Louis'
p409
sa(dp410
g8
I232
sg9
S'Precipitation'
p411
sa(dp412
g8
I233
sg9
S'Defamation'
p413
sa(dp414
g8
I241
sg9
S'The_New_York_Times'
p415
sa(dp416
g8
I243
sg9
S'Atlanta'
p417
sa(dp418
g8
I244
sg9
S'Time_(magazine)'
p419
sa(dp420
g8
I268
sg9
S'United_States'
p421
sa(dp422
g8
I287
sg9
S'Basketball'
p423
sa(dp424
g8
I359
sg9
S'Telephone_numbering_plan'
p425
sa(dp426
g8
I361
sg9
S'New_York_City'
p427
sa(dp428
g8
I363
sg9
S'Toronto'
p429
sa(dp430
g8
I367
sg9
S'Chicago'
p431
sasg8
I410
sg9
S'The_New_York_Times'
p432
sa(dp433
g1
(lp434
(dp435
g8
I7
sg9
S'Google'
p436
sa(dp437
g8
I35
sg9
S'Internet'
p438
sa(dp439
g8
I71
sg9
S'Internet_Archive'
p440
sa(dp441
g8
I90
sg9
S'Microsoft_Windows'
p442
sa(dp443
g8
I92
sg9
S'Public_domain'
p444
sa(dp445
g8
I126
sg9
S'MusicBrainz'
p446
sa(dp447
g8
I135
sg9
S'Actor'
p448
sa(dp449
g8
I136
sg9
S'Film'
p450
sa(dp451
g8
I137
sg9
S'New_York_Times'
p452
sa(dp453
g8
I146
sg9
S'Operating_system'
p454
sa(dp455
g8
I163
sg9
S'Private_Use_Areas'
p456
sa(dp457
g8
I231
sg9
S'Internet_Movie_Database'
p458
sa(dp459
g8
I236
sg9
S'Television'
p460
sa(dp461
g8
I237
sg9
S'Wikilink'
p462
sa(dp463
g8
I251
sg9
S'University_of_California_Berkeley'
p464
sa(dp465
g8
I254
sg9
S'Uniform_resource_locator'
p466
sa(dp467
g8
I280
sg9
S'University_of_California_Berkeley'
p468
sa(dp469
g8
I284
sg9
S'H:S'
p470
sa(dp471
g8
I314
sg9
S'Hyperlink'
p472
sa(dp473
g8
I330
sg9
S'Chief_executive_officer'
p474
sa(dp475
g8
I389
sg9
S'Database'
p476
sa(dp477
g8
I390
sg9
S'Apple_Inc.'
p478
sa(dp479
g8
I394
sg9
S'Apple_Inc.'
p480
sa(dp481
g8
I395
sg9
S'Amazon.com'
p482
sa(dp483
g8
I406
sg9
S'Twitter'
p484
sasg8
I414
sg9
S'Internet'
p485
sa(dp486
g1
(lp487
(dp488
g8
I25
sg9
S'Hawaii'
p489
sa(dp490
g8
I56
sg9
S'National_Park_Service'
p491
sa(dp492
g8
I82
sg9
S'United_States_dollar'
p493
sa(dp494
g8
I124
sg9
S'United_States_Navy'
p495
sa(dp496
g8
I157
sg9
S'Puerto_Rico'
p497
sa(dp498
g8
I252
sg9
S'Republican_Party_(United_States)'
p499
sa(dp500
g8
I253
sg9
S'United_States_Army'
p501
sa(dp502
g8
I325
sg9
S'County_seat'
p503
sasg8
I426
sg9
S'Hawaii'
p504
sa(dp505
g1
(lp506
(dp507
g8
I164
sg9
S'Unincorporated_area'
p508
sa(dp509
g8
I177
sg9
S'Per_capita_income'
p510
sa(dp511
g8
I192
sg9
S'Coordinated_Universal_Time'
p512
sa(dp513
g8
I242
sg9
S'Time_zone'
p514
sa(dp515
g8
I303
sg9
S'Legislature'
p516
sa(dp517
g8
I308
sg9
S'Daylight_saving_time'
p518
sa(dp519
g8
I310
sg9
S'Geographic_coordinate_system'
p520
sasg8
I432
sg9
S'Coordinated_Universal_Time'
p521
sasg8
I435
sg9
S'New_York_City'
p522
sa(dp523
g1
(lp524
(dp525
g1
(lp526
(dp527
g8
I6
sg9
S'Washington_D.C.'
p528
sa(dp529
g8
I81
sg9
S'U.S._state'
p530
sa(dp531
g8
I112
sg9
S'United_States_House_of_Representatives'
p532
sa(dp533
g8
I113
sg9
S'Federal_government_of_the_United_States'
p534
sa(dp535
g8
I176
sg9
S'United_States_Geological_Survey'
p536
sa(dp537
g8
I180
sg9
S'President_of_the_United_States'
p538
sa(dp539
g8
I186
sg9
S'United_States_Senate'
p540
sa(dp541
g8
I218
sg9
S'Census_designated_place'
p542
sa(dp543
g8
I246
sg9
S'Supreme_Court_of_the_United_States'
p544
sa(dp545
g8
I248
sg9
S'United_States_Congress'
p546
sa(dp547
g8
I265
sg9
S'Washington_D.C.'
p548
sa(dp549
g8
I269
sg9
S'2010_United_States_Census'
p550
sa(dp551
g8
I274
sg9
S'Geographic_Names_Information_System'
p552
sa(dp553
g8
I301
sg9
S'2000_United_States_Census'
p554
sa(dp555
g8
I304
sg9
S'Political_divisions_of_the_United_States'
p556
sa(dp557
g8
I306
sg9
S'Census-designated_place'
p558
sa(dp559
g8
I321
sg9
S'Democratic_Party_(United_States)'
p560
sa(dp561
g8
I326
sg9
S'ZIP_code'
p562
sa(dp563
g8
I351
sg9
S'United_States_Census_Bureau'
p564
sa(dp565
g8
I392
sg9
S'American_Civil_War'
p566
sasg8
I413
sg9
S'U.S._state'
p567
sa(dp568
g1
(lp569
(dp570
g8
I23
sg9
S'Washington_(state)'
p571
sa(dp572
g8
I44
sg9
S'Illinois'
p573
sa(dp574
g8
I58
sg9
S'Massachusetts'
p575
sa(dp576
g8
I88
sg9
S'Maryland'
p577
sa(dp578
g8
I89
sg9
S'Michigan'
p579
sa(dp580
g8
I91
sg9
S'Florida'
p581
sa(dp582
g8
I139
sg9
S'New_Jersey'
p583
sa(dp584
g8
I140
sg9
S'North_Carolina'
p585
sa(dp586
g8
I147
sg9
S'Ohio'
p587
sa(dp588
g8
I148
sg9
S'Ontario'
p589
sa(dp590
g8
I166
sg9
S'Pennsylvania'
p591
sa(dp592
g8
I183
sg9
S'Boston'
p593
sa(dp594
g8
I222
sg9
S'Race_and_ethnicity_in_the_United_States_Census'
p595
sa(dp596
g8
I235
sg9
S'Texas'
p597
sa(dp598
g8
I256
sg9
S'Virginia'
p599
sa(dp600
g8
I316
sg9
S'San_Francisco'
p601
sa(dp602
g8
I322
sg9
S'Philadelphia'
p603
sa(dp604
g8
I343
sg9
S'California'
p605
sa(dp606
g8
I388
sg9
S'New_York'
p607
sasg8
I425
sg9
S'California'
p608
sasg8
I436
sg9
S'Washington_D.C.'
p609
sa(dp610
g1
(lp611
(dp612
g1
(lp613
(dp614
g8
I8
sg9
S'Animal'
p615
sa(dp616
g8
I31
sg9
S'Bibcode'
p617
sa(dp618
g8
I50
sg9
S'IUCN_Red_List'
p619
sa(dp620
g8
I86
sg9
S'Mammal'
p621
sa(dp622
g8
I101
sg9
S'Flowering_plant'
p623
sa(dp624
g8
I115
sg9
S'Mollusca'
p625
sa(dp626
g8
I116
sg9
S'Arthropod'
p627
sa(dp628
g8
I117
sg9
S'Plant'
p629
sa(dp630
g8
I118
sg9
S'Plantae'
p631
sa(dp632
g8
I142
sg9
S'Species'
p633
sa(dp634
g8
I167
sg9
S'Insect'
p635
sa(dp636
g8
I168
sg9
S'Biological_classification'
p637
sa(dp638
g8
I175
sg9
S'Protein'
p639
sa(dp640
g8
I227
sg9
S'Eudicots'
p641
sa(dp642
g8
I266
sg9
S'Bird'
p643
sa(dp644
g8
I286
sg9
S'Genus'
p645
sa(dp646
g8
I289
sg9
S'Binomial_nomenclature'
p647
sa(dp648
g8
I293
sg9
S'Animalia'
p649
sa(dp650
g8
I297
sg9
S'Gene'
p651
sa(dp652
g8
I302
sg9
S'Angiosperms'
p653
sa(dp654
g8
I318
sg9
S'PubMed'
p655
sa(dp656
g8
I324
sg9
S'Chordate'
p657
sa(dp658
g8
I331
sg9
S'Carl_Linnaeus'
p659
sa(dp660
g8
I338
sg9
S'Lepidoptera'
p661
sa(dp662
g8
I349
sg9
S'Family_(biology)'
p663
sa(dp664
g8
I357
sg9
S'Human_Genome_Organisation'
p665
sa(dp666
g8
I365
sg9
S'Moth'
p667
sa(dp668
g8
I383
sg9
S'Chordata'
p669
sa(dp670
g8
I387
sg9
S'Synonym_(taxonomy)'
p671
sa(dp672
g8
I407
sg9
S'Wikispecies'
p673
sasg8
I415
sg9
S'Plant'
p674
sa(dp675
g1
(lp676
(dp677
g8
I10
sg9
S'ISO_4'
p678
sa(dp679
g8
I17
sg9
S'ISO/IEC_27000-series'
p680
sa(dp681
g8
I49
sg9
S'International_Organization_for_Standardization'
p682
sa(dp683
g8
I60
sg9
S'ISO_639'
p684
sa(dp685
g8
I61
sg9
S'Film_speed'
p686
sa(dp687
g8
I66
sg9
S'ISO_639-3'
p688
sa(dp689
g8
I87
sg9
S'International_Standard_Name_Identifier'
p690
sa(dp691
g8
I173
sg9
S'Pinyin'
p692
sa(dp693
g8
I179
sg9
S'Portable_Document_Format'
p694
sa(dp695
g8
I203
sg9
S'Simplified_Chinese_characters'
p696
sa(dp697
g8
I208
sg9
S'Traditional_Chinese_characters'
p698
sa(dp699
g8
I298
sg9
S'Hangul'
p700
sasg8
I417
sg9
S'Pinyin'
p701
sa(dp702
g1
(lp703
(dp704
g8
I30
sg9
S'Authority_control'
p705
sa(dp706
g8
I47
sg9
S'Library_of_Congress_Control_Number'
p707
sa(dp708
g8
I79
sg9
S'Harvard_University'
p709
sa(dp710
g8
I94
sg9
S'Library_of_Congress'
p711
sa(dp712
g8
I104
sg9
S'Library_catalog'
p713
sa(dp714
g8
I119
sg9
S'Biblioth\xc3\xa8que_nationale_de_France'
p715
sa(dp716
g8
I121
sg9
S'Union_List_of_Artist_Names'
p717
sa(dp718
g8
I122
sg9
S'National_Library_of_the_Czech_Republic'
p719
sa(dp720
g8
I187
sg9
S'Virtual_International_Authority_File'
p721
sa(dp722
g8
I262
sg9
S'Syst\xc3\xa8me_universitaire_de_documentation'
p723
sa(dp724
g8
I276
sg9
S'Wikidata'
p725
sa(dp726
g8
I277
sg9
S'Integrated_Authority_File'
p727
sa(dp728
g8
I281
sg9
S'National_Diet_Library'
p729
sasg8
I428
sg9
S'National_Diet_Library'
p730
sasg8
I437
sg9
S'Animal'
p731
sa(dp732
g1
(lp733
(dp734
g1
(lp735
(dp736
g8
I12
sg9
S'Persian_language'
p737
sa(dp738
g8
I15
sg9
S'Greek_language'
p739
sa(dp740
g8
I28
sg9
S'Hebrew_language'
p741
sa(dp742
g8
I43
sg9
S'Ancient_Greek'
p743
sa(dp744
g8
I72
sg9
S'Latin'
p745
sa(dp746
g8
I77
sg9
S'Language_family'
p747
sa(dp748
g8
I84
sg9
S'Mathematics'
p749
sa(dp750
g8
I106
sg9
S'Administrative_divisions_of_Iran'
p751
sa(dp752
g8
I185
sg9
S'Given_name'
p753
sa(dp754
g8
I238
sg9
S'Turkish_language'
p755
sa(dp756
g8
I282
sg9
S'Noun'
p757
sa(dp758
g8
I283
sg9
S'Adjective'
p759
sa(dp760
g8
I295
sg9
S'Glottolog'
p761
sa(dp762
g8
I311
sg9
S'Oxford_University_Press'
p763
sa(dp764
g8
I368
sg9
S'Census'
p765
sa(dp766
g8
I385
sg9
S'Arabic_language'
p767
sasg8
I419
sg9
S'Latin'
p768
sa(dp769
g1
(lp770
(dp771
g8
I18
sg9
S'Gmina'
p772
sa(dp773
g8
I76
sg9
S'Capital_city'
p774
sa(dp775
g8
I103
sg9
S'Municipality'
p776
sa(dp777
g8
I134
sg9
S'Dependent_territory'
p778
sa(dp779
g8
I174
sg9
S'Sovereign_state'
p780
sa(dp781
g8
I285
sg9
S'Powiat'
p782
sa(dp783
g8
I292
sg9
S'Voivodeships_of_Poland'
p784
sa(dp785
g8
I305
sg9
S'Copyright_status_of_work_by_the_U.S._government'
p786
sa(dp787
g8
I335
sg9
S'Town'
p788
sa(dp789
g8
I340
sg9
S'Village'
p790
sa(dp791
g8
I341
sg9
S'City'
p792
sasg8
I421
sg9
S'Dependent_territory'
p793
sa(dp794
g1
(lp795
(dp796
g8
I29
sg9
S'Parliament_of_the_United_Kingdom'
p797
sa(dp798
g8
I41
sg9
S'Ireland'
p799
sa(dp800
g8
I96
sg9
S'Law'
p801
sa(dp802
g8
I100
sg9
S'Geography'
p803
sa(dp804
g8
I132
sg9
S'Northern_Ireland'
p805
sa(dp806
g8
I200
sg9
S'Encyclop\xc3\xa6dia_Britannica_Eleventh_Edition'
p807
sa(dp808
g8
I202
sg9
S'Royal_Navy'
p809
sa(dp810
g8
I219
sg9
S'Scotland'
p811
sa(dp812
g8
I264
sg9
S'British_Columbia'
p813
sa(dp814
g8
I299
sg9
S'Member_of_Parliament'
p815
sa(dp816
g8
I372
sg9
S'Wales'
p817
sa(dp818
g8
I376
sg9
S'Encyclop\xc3\xa6dia_Britannica_Eleventh_Edition'
p819
sa(dp820
g8
I397
sg9
S'Economics'
p821
sa(dp822
g8
I402
sg9
S'England'
p823
sa(dp824
g8
I405
sg9
S'Member_of_parliament'
p825
sasg8
I427
sg9
S'England'
p826
sa(dp827
g1
(lp828
(dp829
g8
I63
sg9
S'Byzantine_Empire'
p830
sa(dp831
g8
I85
sg9
S'Middle_Ages'
p832
sa(dp833
g8
I114
sg9
S'Marriage'
p834
sa(dp835
g8
I149
sg9
S'Ottoman_Empire'
p836
sa(dp837
g8
I195
sg9
S'Roman_Empire'
p838
sa(dp839
g8
I198
sg9
S'Protestantism'
p840
sa(dp841
g8
I257
sg9
S'Buddhism'
p842
sa(dp843
g8
I327
sg9
S'Christianity'
p844
sa(dp845
g8
I328
sg9
S'Ancient_Rome'
p846
sa(dp847
g8
I354
sg9
S'Islam'
p848
sa(dp849
g8
I355
sg9
S'Catholic_Church'
p850
sasg8
I430
sg9
S'Christianity'
p851
sasg8
I438
sg9
S'Greek_language'
p852
sasg8
I442
sg9
S'United_States'
p853
sa(dp854
g1
(lp855
(dp856
g1
(lp857
(dp858
g1
(lp859
(dp860
g8
I19
sg9
S'Music_genre'
p861
sa(dp862
g8
I40
sg9
S'Record_label'
p863
sa(dp864
g8
I55
sg9
S'Single_(music)'
p865
sa(dp866
g8
I57
sg9
S'Singing'
p867
sa(dp868
g8
I78
sg9
S'Billboard_(magazine)'
p869
sa(dp870
g8
I144
sg9
S'Studio_album'
p871
sa(dp872
g8
I184
sg9
S'Pop_music'
p873
sa(dp874
g8
I189
sg9
S'Rock_music'
p875
sa(dp876
g8
I290
sg9
S'Allmusic'
p877
sa(dp878
g8
I317
sg9
S'Poverty_line'
p879
sa(dp880
g8
I334
sg9
S'Album'
p881
sa(dp882
g8
I336
sg9
S'Record_producer'
p883
sa(dp884
g8
I370
sg9
S'AllMusic'
p885
sa(dp886
g8
I404
sg9
S'Songwriter'
p887
sasg8
I422
sg9
S'Record_label'
p888
sa(dp889
g1
(lp890
(dp891
g8
I51
sg9
S'Eastern_European_Summer_Time'
p892
sa(dp893
g8
I159
sg9
S'UTC+01:00'
p894
sa(dp895
g8
I161
sg9
S'UTC+02:00'
p896
sa(dp897
g8
I162
sg9
S'UTC+03:00'
p898
sa(dp899
g8
I205
sg9
S'UTC+2'
p900
sa(dp901
g8
I206
sg9
S'UTC+3'
p902
sa(dp903
g8
I333
sg9
S'Central_European_Time'
p904
sa(dp905
g8
I396
sg9
S'Eastern_European_Time'
p906
sa(dp907
g8
I399
sg9
S'Central_European_Summer_Time'
p908
sasg8
I429
sg9
S'UTC+02:00'
p909
sasg8
I439
sg9
S'Eastern_European_Time'
p910
sa(dp911
g1
(lp912
(dp913
g8
I160
sg9
S'UTC\xe2\x88\x9204:00'
p914
sa(dp915
g8
I207
sg9
S'UTC-5'
p916
sa(dp917
g8
I315
sg9
S'Eastern_Time_Zone'
p918
sa(dp919
g8
I362
sg9
S'UTC\xe2\x88\x9205:00'
p920
sasg8
I431
sg9
S'UTC\xe2\x88\x9205:00'
p921
sasg8
I443
sg9
S'UTC+03:00'
p922
sasg8
I444
sg9
S'International_Standard_Book_Number'
p923
s(dp924
I0
(dp925
g8
I0
sg9
g10
ssI1
(dp926
g8
I1
sg9
g242
ssI2
(dp927
g8
I2
sg9
g393
ssI3
(dp928
g8
I3
sg9
g65
ssI4
(dp929
g8
I4
sg9
g12
ssI5
(dp930
g8
I5
sg9
g301
ssI6
(dp931
g8
I6
sg9
g528
ssI7
(dp932
g8
I7
sg9
g436
ssI8
(dp933
g8
I8
sg9
g615
ssI9
(dp934
g8
I9
sg9
g106
ssI10
(dp935
g8
I10
sg9
g678
ssI11
(dp936
g8
I11
sg9
g338
ssI12
(dp937
g8
I12
sg9
g737
ssI13
(dp938
g8
I13
sg9
g143
ssI14
(dp939
g8
I14
sg9
g303
ssI15
(dp940
g8
I15
sg9
g739
ssI16
(dp941
g8
I16
sg9
g145
ssI17
(dp942
g8
I17
sg9
g680
ssI18
(dp943
g8
I18
sg9
g772
ssI19
(dp944
g8
I19
sg9
g861
ssI20
(dp945
g8
I20
sg9
g184
ssI21
(dp946
g8
I21
sg9
g244
ssI22
(dp947
g8
I22
sg9
g365
ssI23
(dp948
g8
I23
sg9
g571
ssI24
(dp949
g8
I24
sg9
g367
ssI25
(dp950
g8
I25
sg9
g489
ssI26
(dp951
g8
I26
sg9
g14
ssI27
(dp952
g8
I27
sg9
g186
ssI28
(dp953
g8
I28
sg9
g741
ssI29
(dp954
g8
I29
sg9
g797
ssI30
(dp955
g8
I30
sg9
g705
ssI31
(dp956
g8
I31
sg9
g617
ssI32
(dp957
g8
I32
sg9
g16
ssI33
(dp958
g8
I33
sg9
g147
ssI34
(dp959
g8
I34
sg9
g188
ssI35
(dp960
g8
I35
sg9
g438
ssI36
(dp961
g8
I36
sg9
g149
ssI37
(dp962
g8
I37
sg9
g190
ssI38
(dp963
g8
I38
sg9
g192
ssI39
(dp964
g8
I39
sg9
g305
ssI40
(dp965
g8
I40
sg9
g863
ssI41
(dp966
g8
I41
sg9
g799
ssI42
(dp967
g8
I42
sg9
g67
ssI43
(dp968
g8
I43
sg9
g743
ssI44
(dp969
g8
I44
sg9
g573
ssI45
(dp970
g8
I45
sg9
g340
ssI46
(dp971
g8
I46
sg9
g108
ssI47
(dp972
g8
I47
sg9
g707
ssI48
(dp973
g8
I48
sg9
g369
ssI49
(dp974
g8
I49
sg9
g682
ssI50
(dp975
g8
I50
sg9
g619
ssI51
(dp976
g8
I51
sg9
g892
ssI52
(dp977
g8
I52
sg9
g342
ssI53
(dp978
g8
I53
sg9
g307
ssI54
(dp979
g8
I54
sg9
g395
ssI55
(dp980
g8
I55
sg9
g865
ssI56
(dp981
g8
I56
sg9
g491
ssI57
(dp982
g8
I57
sg9
g867
ssI58
(dp983
g8
I58
sg9
g575
ssI59
(dp984
g8
I59
sg9
g110
ssI60
(dp985
g8
I60
sg9
g684
ssI61
(dp986
g8
I61
sg9
g686
ssI62
(dp987
g8
I62
sg9
g344
ssI63
(dp988
g8
I63
sg9
g830
ssI64
(dp989
g8
I64
sg9
g246
ssI65
(dp990
g8
I65
sg9
g69
ssI66
(dp991
g8
I66
sg9
g688
ssI67
(dp992
g8
I67
sg9
g194
ssI68
(dp993
g8
I68
sg9
g18
ssI69
(dp994
g8
I69
sg9
g20
ssI70
(dp995
g8
I70
sg9
g22
ssI71
(dp996
g8
I71
sg9
g440
ssI72
(dp997
g8
I72
sg9
g745
ssI73
(dp998
g8
I73
sg9
g248
ssI74
(dp999
g8
I74
sg9
g71
ssI75
(dp1000
g8
I75
sg9
g397
ssI76
(dp1001
g8
I76
sg9
g774
ssI77
(dp1002
g8
I77
sg9
g747
ssI78
(dp1003
g8
I78
sg9
g869
ssI79
(dp1004
g8
I79
sg9
g709
ssI80
(dp1005
g8
I80
sg9
g346
ssI81
(dp1006
g8
I81
sg9
g530
ssI82
(dp1007
g8
I82
sg9
g493
ssI83
(dp1008
g8
I83
sg9
g196
ssI84
(dp1009
g8
I84
sg9
g749
ssI85
(dp1010
g8
I85
sg9
g832
ssI86
(dp1011
g8
I86
sg9
g621
ssI87
(dp1012
g8
I87
sg9
g690
ssI88
(dp1013
g8
I88
sg9
g577
ssI89
(dp1014
g8
I89
sg9
g579
ssI90
(dp1015
g8
I90
sg9
g442
ssI91
(dp1016
g8
I91
sg9
g581
ssI92
(dp1017
g8
I92
sg9
g444
ssI93
(dp1018
g8
I93
sg9
g399
ssI94
(dp1019
g8
I94
sg9
g711
ssI95
(dp1020
g8
I95
sg9
g348
ssI96
(dp1021
g8
I96
sg9
g801
ssI97
(dp1022
g8
I97
sg9
g401
ssI98
(dp1023
g8
I98
sg9
g250
ssI99
(dp1024
g8
I99
sg9
g252
ssI100
(dp1025
g8
I100
sg9
g803
ssI101
(dp1026
g8
I101
sg9
g623
ssI102
(dp1027
g8
I102
sg9
g73
ssI103
(dp1028
g8
I103
sg9
g776
ssI104
(dp1029
g8
I104
sg9
g713
ssI105
(dp1030
g8
I105
sg9
g254
ssI106
(dp1031
g8
I106
sg9
g751
ssI107
(dp1032
g8
I107
sg9
g256
ssI108
(dp1033
g8
I108
sg9
g112
ssI109
(dp1034
g8
I109
sg9
g403
ssI110
(dp1035
g8
I110
sg9
g198
ssI111
(dp1036
g8
I111
sg9
g200
ssI112
(dp1037
g8
I112
sg9
g532
ssI113
(dp1038
g8
I113
sg9
g534
ssI114
(dp1039
g8
I114
sg9
g834
ssI115
(dp1040
g8
I115
sg9
g625
ssI116
(dp1041
g8
I116
sg9
g627
ssI117
(dp1042
g8
I117
sg9
g629
ssI118
(dp1043
g8
I118
sg9
g631
ssI119
(dp1044
g8
I119
sg9
g715
ssI120
(dp1045
g8
I120
sg9
g309
ssI121
(dp1046
g8
I121
sg9
g717
ssI122
(dp1047
g8
I122
sg9
g719
ssI123
(dp1048
g8
I123
sg9
g114
ssI124
(dp1049
g8
I124
sg9
g495
ssI125
(dp1050
g8
I125
sg9
g24
ssI126
(dp1051
g8
I126
sg9
g446
ssI127
(dp1052
g8
I127
sg9
g258
ssI128
(dp1053
g8
I128
sg9
g151
ssI129
(dp1054
g8
I129
sg9
g26
ssI130
(dp1055
g8
I130
sg9
g28
ssI131
(dp1056
g8
I131
sg9
g153
ssI132
(dp1057
g8
I132
sg9
g805
ssI133
(dp1058
g8
I133
sg9
g202
ssI134
(dp1059
g8
I134
sg9
g778
ssI135
(dp1060
g8
I135
sg9
g448
ssI136
(dp1061
g8
I136
sg9
g450
ssI137
(dp1062
g8
I137
sg9
g452
ssI138
(dp1063
g8
I138
sg9
g371
ssI139
(dp1064
g8
I139
sg9
g583
ssI140
(dp1065
g8
I140
sg9
g585
ssI141
(dp1066
g8
I141
sg9
g75
ssI142
(dp1067
g8
I142
sg9
g633
ssI143
(dp1068
g8
I143
sg9
g350
ssI144
(dp1069
g8
I144
sg9
g871
ssI145
(dp1070
g8
I145
sg9
g405
ssI146
(dp1071
g8
I146
sg9
g454
ssI147
(dp1072
g8
I147
sg9
g587
ssI148
(dp1073
g8
I148
sg9
g589
ssI149
(dp1074
g8
I149
sg9
g836
ssI150
(dp1075
g8
I150
sg9
g77
ssI151
(dp1076
g8
I151
sg9
g30
ssI152
(dp1077
g8
I152
sg9
g311
ssI153
(dp1078
g8
I153
sg9
g204
ssI154
(dp1079
g8
I154
sg9
g313
ssI155
(dp1080
g8
I155
sg9
g79
ssI156
(dp1081
g8
I156
sg9
g155
ssI157
(dp1082
g8
I157
sg9
g497
ssI158
(dp1083
g8
I158
sg9
g260
ssI159
(dp1084
g8
I159
sg9
g894
ssI160
(dp1085
g8
I160
sg9
g914
ssI161
(dp1086
g8
I161
sg9
g896
ssI162
(dp1087
g8
I162
sg9
g898
ssI163
(dp1088
g8
I163
sg9
g456
ssI164
(dp1089
g8
I164
sg9
g508
ssI165
(dp1090
g8
I165
sg9
g206
ssI166
(dp1091
g8
I166
sg9
g591
ssI167
(dp1092
g8
I167
sg9
g635
ssI168
(dp1093
g8
I168
sg9
g637
ssI169
(dp1094
g8
I169
sg9
g208
ssI170
(dp1095
g8
I170
sg9
g315
ssI171
(dp1096
g8
I171
sg9
g373
ssI172
(dp1097
g8
I172
sg9
g352
ssI173
(dp1098
g8
I173
sg9
g692
ssI174
(dp1099
g8
I174
sg9
g780
ssI175
(dp1100
g8
I175
sg9
g639
ssI176
(dp1101
g8
I176
sg9
g536
ssI177
(dp1102
g8
I177
sg9
g510
ssI178
(dp1103
g8
I178
sg9
g317
ssI179
(dp1104
g8
I179
sg9
g694
ssI180
(dp1105
g8
I180
sg9
g538
ssI181
(dp1106
g8
I181
sg9
g375
ssI182
(dp1107
g8
I182
sg9
g157
ssI183
(dp1108
g8
I183
sg9
g593
ssI184
(dp1109
g8
I184
sg9
g873
ssI185
(dp1110
g8
I185
sg9
g753
ssI186
(dp1111
g8
I186
sg9
g540
ssI187
(dp1112
g8
I187
sg9
g721
ssI188
(dp1113
g8
I188
sg9
g116
ssI189
(dp1114
g8
I189
sg9
g875
ssI190
(dp1115
g8
I190
sg9
g319
ssI191
(dp1116
g8
I191
sg9
g32
ssI192
(dp1117
g8
I192
sg9
g512
ssI193
(dp1118
g8
I193
sg9
g81
ssI194
(dp1119
g8
I194
sg9
g321
ssI195
(dp1120
g8
I195
sg9
g838
ssI196
(dp1121
g8
I196
sg9
g83
ssI197
(dp1122
g8
I197
sg9
g210
ssI198
(dp1123
g8
I198
sg9
g840
ssI199
(dp1124
g8
I199
sg9
g323
ssI200
(dp1125
g8
I200
sg9
g807
ssI201
(dp1126
g8
I201
sg9
g262
ssI202
(dp1127
g8
I202
sg9
g809
ssI203
(dp1128
g8
I203
sg9
g696
ssI204
(dp1129
g8
I204
sg9
g85
ssI205
(dp1130
g8
I205
sg9
g900
ssI206
(dp1131
g8
I206
sg9
g902
ssI207
(dp1132
g8
I207
sg9
g916
ssI208
(dp1133
g8
I208
sg9
g698
ssI209
(dp1134
g8
I209
sg9
g159
ssI210
(dp1135
g8
I210
sg9
g87
ssI211
(dp1136
g8
I211
sg9
g34
ssI212
(dp1137
g8
I212
sg9
g212
ssI213
(dp1138
g8
I213
sg9
g264
ssI214
(dp1139
g8
I214
sg9
g161
ssI215
(dp1140
g8
I215
sg9
g325
ssI216
(dp1141
g8
I216
sg9
g36
ssI217
(dp1142
g8
I217
sg9
g38
ssI218
(dp1143
g8
I218
sg9
g542
ssI219
(dp1144
g8
I219
sg9
g811
ssI220
(dp1145
g8
I220
sg9
g214
ssI221
(dp1146
g8
I221
sg9
g216
ssI222
(dp1147
g8
I222
sg9
g595
ssI223
(dp1148
g8
I223
sg9
g407
ssI224
(dp1149
g8
I224
sg9
g40
ssI225
(dp1150
g8
I225
sg9
g409
ssI226
(dp1151
g8
I226
sg9
g42
ssI227
(dp1152
g8
I227
sg9
g641
ssI228
(dp1153
g8
I228
sg9
g377
ssI229
(dp1154
g8
I229
sg9
g89
ssI230
(dp1155
g8
I230
sg9
g44
ssI231
(dp1156
g8
I231
sg9
g458
ssI232
(dp1157
g8
I232
sg9
g411
ssI233
(dp1158
g8
I233
sg9
g413
ssI234
(dp1159
g8
I234
sg9
g46
ssI235
(dp1160
g8
I235
sg9
g597
ssI236
(dp1161
g8
I236
sg9
g460
ssI237
(dp1162
g8
I237
sg9
g462
ssI238
(dp1163
g8
I238
sg9
g755
ssI239
(dp1164
g8
I239
sg9
g91
ssI240
(dp1165
g8
I240
sg9
g218
ssI241
(dp1166
g8
I241
sg9
g415
ssI242
(dp1167
g8
I242
sg9
g514
ssI243
(dp1168
g8
I243
sg9
g417
ssI244
(dp1169
g8
I244
sg9
g419
ssI245
(dp1170
g8
I245
sg9
g163
ssI246
(dp1171
g8
I246
sg9
g544
ssI247
(dp1172
g8
I247
sg9
g48
ssI248
(dp1173
g8
I248
sg9
g546
ssI249
(dp1174
g8
I249
sg9
g354
ssI250
(dp1175
g8
I250
sg9
g165
ssI251
(dp1176
g8
I251
sg9
g464
ssI252
(dp1177
g8
I252
sg9
g499
ssI253
(dp1178
g8
I253
sg9
g501
ssI254
(dp1179
g8
I254
sg9
g466
ssI255
(dp1180
g8
I255
sg9
g266
ssI256
(dp1181
g8
I256
sg9
g599
ssI257
(dp1182
g8
I257
sg9
g842
ssI258
(dp1183
g8
I258
sg9
g356
ssI259
(dp1184
g8
I259
sg9
g220
ssI260
(dp1185
g8
I260
sg9
g167
ssI261
(dp1186
g8
I261
sg9
g93
ssI262
(dp1187
g8
I262
sg9
g723
ssI263
(dp1188
g8
I263
sg9
g268
ssI264
(dp1189
g8
I264
sg9
g813
ssI265
(dp1190
g8
I265
sg9
g548
ssI266
(dp1191
g8
I266
sg9
g643
ssI267
(dp1192
g8
I267
sg9
g50
ssI268
(dp1193
g8
I268
sg9
g421
ssI269
(dp1194
g8
I269
sg9
g550
ssI270
(dp1195
g8
I270
sg9
g222
ssI271
(dp1196
g8
I271
sg9
g52
ssI272
(dp1197
g8
I272
sg9
g118
ssI273
(dp1198
g8
I273
sg9
g224
ssI274
(dp1199
g8
I274
sg9
g552
ssI275
(dp1200
g8
I275
sg9
g358
ssI276
(dp1201
g8
I276
sg9
g725
ssI277
(dp1202
g8
I277
sg9
g727
ssI278
(dp1203
g8
I278
sg9
g120
ssI279
(dp1204
g8
I279
sg9
g226
ssI280
(dp1205
g8
I280
sg9
g468
ssI281
(dp1206
g8
I281
sg9
g729
ssI282
(dp1207
g8
I282
sg9
g757
ssI283
(dp1208
g8
I283
sg9
g759
ssI284
(dp1209
g8
I284
sg9
g470
ssI285
(dp1210
g8
I285
sg9
g782
ssI286
(dp1211
g8
I286
sg9
g645
ssI287
(dp1212
g8
I287
sg9
g423
ssI288
(dp1213
g8
I288
sg9
g270
ssI289
(dp1214
g8
I289
sg9
g647
ssI290
(dp1215
g8
I290
sg9
g877
ssI291
(dp1216
g8
I291
sg9
g169
ssI292
(dp1217
g8
I292
sg9
g784
ssI293
(dp1218
g8
I293
sg9
g649
ssI294
(dp1219
g8
I294
sg9
g379
ssI295
(dp1220
g8
I295
sg9
g761
ssI296
(dp1221
g8
I296
sg9
g381
ssI297
(dp1222
g8
I297
sg9
g651
ssI298
(dp1223
g8
I298
sg9
g700
ssI299
(dp1224
g8
I299
sg9
g815
ssI300
(dp1225
g8
I300
sg9
g95
ssI301
(dp1226
g8
I301
sg9
g554
ssI302
(dp1227
g8
I302
sg9
g653
ssI303
(dp1228
g8
I303
sg9
g516
ssI304
(dp1229
g8
I304
sg9
g556
ssI305
(dp1230
g8
I305
sg9
g786
ssI306
(dp1231
g8
I306
sg9
g558
ssI307
(dp1232
g8
I307
sg9
g171
ssI308
(dp1233
g8
I308
sg9
g518
ssI309
(dp1234
g8
I309
sg9
g97
ssI310
(dp1235
g8
I310
sg9
g520
ssI311
(dp1236
g8
I311
sg9
g763
ssI312
(dp1237
g8
I312
sg9
g122
ssI313
(dp1238
g8
I313
sg9
g272
ssI314
(dp1239
g8
I314
sg9
g472
ssI315
(dp1240
g8
I315
sg9
g918
ssI316
(dp1241
g8
I316
sg9
g601
ssI317
(dp1242
g8
I317
sg9
g879
ssI318
(dp1243
g8
I318
sg9
g655
ssI319
(dp1244
g8
I319
sg9
g274
ssI320
(dp1245
g8
I320
sg9
g276
ssI321
(dp1246
g8
I321
sg9
g560
ssI322
(dp1247
g8
I322
sg9
g603
ssI323
(dp1248
g8
I323
sg9
g54
ssI324
(dp1249
g8
I324
sg9
g657
ssI325
(dp1250
g8
I325
sg9
g503
ssI326
(dp1251
g8
I326
sg9
g562
ssI327
(dp1252
g8
I327
sg9
g844
ssI328
(dp1253
g8
I328
sg9
g846
ssI329
(dp1254
g8
I329
sg9
g278
ssI330
(dp1255
g8
I330
sg9
g474
ssI331
(dp1256
g8
I331
sg9
g659
ssI332
(dp1257
g8
I332
sg9
g124
ssI333
(dp1258
g8
I333
sg9
g904
ssI334
(dp1259
g8
I334
sg9
g881
ssI335
(dp1260
g8
I335
sg9
g788
ssI336
(dp1261
g8
I336
sg9
g883
ssI337
(dp1262
g8
I337
sg9
g56
ssI338
(dp1263
g8
I338
sg9
g661
ssI339
(dp1264
g8
I339
sg9
g280
ssI340
(dp1265
g8
I340
sg9
g790
ssI341
(dp1266
g8
I341
sg9
g792
ssI342
(dp1267
g8
I342
sg9
g228
ssI343
(dp1268
g8
I343
sg9
g605
ssI344
(dp1269
g8
I344
sg9
g282
ssI345
(dp1270
g8
I345
sg9
g99
ssI346
(dp1271
g8
I346
sg9
g58
ssI347
(dp1272
g8
I347
sg9
g60
ssI348
(dp1273
g8
I348
sg9
g126
ssI349
(dp1274
g8
I349
sg9
g663
ssI350
(dp1275
g8
I350
sg9
g230
ssI351
(dp1276
g8
I351
sg9
g564
ssI352
(dp1277
g8
I352
sg9
g327
ssI353
(dp1278
g8
I353
sg9
g173
ssI354
(dp1279
g8
I354
sg9
g848
ssI355
(dp1280
g8
I355
sg9
g850
ssI356
(dp1281
g8
I356
sg9
g284
ssI357
(dp1282
g8
I357
sg9
g665
ssI358
(dp1283
g8
I358
sg9
g286
ssI359
(dp1284
g8
I359
sg9
g425
ssI360
(dp1285
g8
I360
sg9
g288
ssI361
(dp1286
g8
I361
sg9
g427
ssI362
(dp1287
g8
I362
sg9
g920
ssI363
(dp1288
g8
I363
sg9
g429
ssI364
(dp1289
g8
I364
sg9
g101
ssI365
(dp1290
g8
I365
sg9
g667
ssI366
(dp1291
g8
I366
sg9
g360
ssI367
(dp1292
g8
I367
sg9
g431
ssI368
(dp1293
g8
I368
sg9
g765
ssI369
(dp1294
g8
I369
sg9
g128
ssI370
(dp1295
g8
I370
sg9
g885
ssI371
(dp1296
g8
I371
sg9
g290
ssI372
(dp1297
g8
I372
sg9
g817
ssI373
(dp1298
g8
I373
sg9
g329
ssI374
(dp1299
g8
I374
sg9
g292
ssI375
(dp1300
g8
I375
sg9
g294
ssI376
(dp1301
g8
I376
sg9
g819
ssI377
(dp1302
g8
I377
sg9
g383
ssI378
(dp1303
g8
I378
sg9
g130
ssI379
(dp1304
g8
I379
sg9
g132
ssI380
(dp1305
g8
I380
sg9
g134
ssI381
(dp1306
g8
I381
sg9
g232
ssI382
(dp1307
g8
I382
sg9
g175
ssI383
(dp1308
g8
I383
sg9
g669
ssI384
(dp1309
g8
I384
sg9
g331
ssI385
(dp1310
g8
I385
sg9
g767
ssI386
(dp1311
g8
I386
sg9
g136
ssI387
(dp1312
g8
I387
sg9
g671
ssI388
(dp1313
g8
I388
sg9
g607
ssI389
(dp1314
g8
I389
sg9
g476
ssI390
(dp1315
g8
I390
sg9
g478
ssI391
(dp1316
g8
I391
sg9
g333
ssI392
(dp1317
g8
I392
sg9
g566
ssI393
(dp1318
g8
I393
sg9
g385
ssI394
(dp1319
g8
I394
sg9
g480
ssI395
(dp1320
g8
I395
sg9
g482
ssI396
(dp1321
g8
I396
sg9
g906
ssI397
(dp1322
g8
I397
sg9
g821
ssI398
(dp1323
g8
I398
sg9
g296
ssI399
(dp1324
g8
I399
sg9
g908
ssI400
(dp1325
g8
I400
sg9
g177
ssI401
(dp1326
g8
I401
sg9
g138
ssI402
(dp1327
g8
I402
sg9
g823
ssI403
(dp1328
g8
I403
sg9
g179
ssI404
(dp1329
g8
I404
sg9
g887
ssI405
(dp1330
g8
I405
sg9
g825
ssI406
(dp1331
g8
I406
sg9
g484
ssI407
(dp1332
g8
I407
sg9
g673
ssI408
(dp1333
g1
(lp1334
(dp1335
g8
I0
sg9
g10
sa(dp1336
g8
I4
sg9
g12
sa(dp1337
g8
I26
sg9
g14
sa(dp1338
g8
I32
sg9
g16
sa(dp1339
g8
I68
sg9
g18
sa(dp1340
g8
I69
sg9
g20
sa(dp1341
g8
I70
sg9
g22
sa(dp1342
g8
I125
sg9
g24
sa(dp1343
g8
I129
sg9
g26
sa(dp1344
g8
I130
sg9
g28
sa(dp1345
g8
I151
sg9
g30
sa(dp1346
g8
I191
sg9
g32
sa(dp1347
g8
I211
sg9
g34
sa(dp1348
g8
I216
sg9
g36
sa(dp1349
g8
I217
sg9
g38
sa(dp1350
g8
I224
sg9
g40
sa(dp1351
g8
I226
sg9
g42
sa(dp1352
g8
I230
sg9
g44
sa(dp1353
g8
I234
sg9
g46
sa(dp1354
g8
I247
sg9
g48
sa(dp1355
g8
I267
sg9
g50
sa(dp1356
g8
I271
sg9
g52
sa(dp1357
g8
I323
sg9
g54
sa(dp1358
g8
I337
sg9
g56
sa(dp1359
g8
I346
sg9
g58
sa(dp1360
g8
I347
sg9
g60
sasg8
I408
sg9
g61
ssI409
(dp1361
g1
(lp1362
(dp1363
g8
I1
sg9
g242
sa(dp1364
g8
I21
sg9
g244
sa(dp1365
g8
I64
sg9
g246
sa(dp1366
g8
I73
sg9
g248
sa(dp1367
g8
I98
sg9
g250
sa(dp1368
g8
I99
sg9
g252
sa(dp1369
g8
I105
sg9
g254
sa(dp1370
g8
I107
sg9
g256
sa(dp1371
g8
I127
sg9
g258
sa(dp1372
g8
I158
sg9
g260
sa(dp1373
g8
I201
sg9
g262
sa(dp1374
g8
I213
sg9
g264
sa(dp1375
g8
I255
sg9
g266
sa(dp1376
g8
I263
sg9
g268
sa(dp1377
g8
I288
sg9
g270
sa(dp1378
g8
I313
sg9
g272
sa(dp1379
g8
I319
sg9
g274
sa(dp1380
g8
I320
sg9
g276
sa(dp1381
g8
I329
sg9
g278
sa(dp1382
g8
I339
sg9
g280
sa(dp1383
g8
I344
sg9
g282
sa(dp1384
g8
I356
sg9
g284
sa(dp1385
g8
I358
sg9
g286
sa(dp1386
g8
I360
sg9
g288
sa(dp1387
g8
I371
sg9
g290
sa(dp1388
g8
I374
sg9
g292
sa(dp1389
g8
I375
sg9
g294
sa(dp1390
g8
I398
sg9
g296
sasg8
I409
sg9
g297
ssI410
(dp1391
g1
(lp1392
(dp1393
g8
I2
sg9
g393
sa(dp1394
g8
I54
sg9
g395
sa(dp1395
g8
I75
sg9
g397
sa(dp1396
g8
I93
sg9
g399
sa(dp1397
g8
I97
sg9
g401
sa(dp1398
g8
I109
sg9
g403
sa(dp1399
g8
I145
sg9
g405
sa(dp1400
g8
I223
sg9
g407
sa(dp1401
g8
I225
sg9
g409
sa(dp1402
g8
I232
sg9
g411
sa(dp1403
g8
I233
sg9
g413
sa(dp1404
g8
I241
sg9
g415
sa(dp1405
g8
I243
sg9
g417
sa(dp1406
g8
I244
sg9
g419
sa(dp1407
g8
I268
sg9
g421
sa(dp1408
g8
I287
sg9
g423
sa(dp1409
g8
I359
sg9
g425
sa(dp1410
g8
I361
sg9
g427
sa(dp1411
g8
I363
sg9
g429
sa(dp1412
g8
I367
sg9
g431
sasg8
I410
sg9
g432
ssI411
(dp1413
g1
(lp1414
(dp1415
g8
I3
sg9
g65
sa(dp1416
g8
I42
sg9
g67
sa(dp1417
g8
I65
sg9
g69
sa(dp1418
g8
I74
sg9
g71
sa(dp1419
g8
I102
sg9
g73
sa(dp1420
g8
I141
sg9
g75
sa(dp1421
g8
I150
sg9
g77
sa(dp1422
g8
I155
sg9
g79
sa(dp1423
g8
I193
sg9
g81
sa(dp1424
g8
I196
sg9
g83
sa(dp1425
g8
I204
sg9
g85
sa(dp1426
g8
I210
sg9
g87
sa(dp1427
g8
I229
sg9
g89
sa(dp1428
g8
I239
sg9
g91
sa(dp1429
g8
I261
sg9
g93
sa(dp1430
g8
I300
sg9
g95
sa(dp1431
g8
I309
sg9
g97
sa(dp1432
g8
I345
sg9
g99
sa(dp1433
g8
I364
sg9
g101
sasg8
I411
sg9
g102
ssI412
(dp1434
g1
(lp1435
(dp1436
g8
I5
sg9
g301
sa(dp1437
g8
I14
sg9
g303
sa(dp1438
g8
I39
sg9
g305
sa(dp1439
g8
I53
sg9
g307
sa(dp1440
g8
I120
sg9
g309
sa(dp1441
g8
I152
sg9
g311
sa(dp1442
g8
I154
sg9
g313
sa(dp1443
g8
I170
sg9
g315
sa(dp1444
g8
I178
sg9
g317
sa(dp1445
g8
I190
sg9
g319
sa(dp1446
g8
I194
sg9
g321
sa(dp1447
g8
I199
sg9
g323
sa(dp1448
g8
I215
sg9
g325
sa(dp1449
g8
I352
sg9
g327
sa(dp1450
g8
I373
sg9
g329
sa(dp1451
g8
I384
sg9
g331
sa(dp1452
g8
I391
sg9
g333
sasg8
I412
sg9
g334
ssI413
(dp1453
g1
(lp1454
(dp1455
g8
I6
sg9
g528
sa(dp1456
g8
I81
sg9
g530
sa(dp1457
g8
I112
sg9
g532
sa(dp1458
g8
I113
sg9
g534
sa(dp1459
g8
I176
sg9
g536
sa(dp1460
g8
I180
sg9
g538
sa(dp1461
g8
I186
sg9
g540
sa(dp1462
g8
I218
sg9
g542
sa(dp1463
g8
I246
sg9
g544
sa(dp1464
g8
I248
sg9
g546
sa(dp1465
g8
I265
sg9
g548
sa(dp1466
g8
I269
sg9
g550
sa(dp1467
g8
I274
sg9
g552
sa(dp1468
g8
I301
sg9
g554
sa(dp1469
g8
I304
sg9
g556
sa(dp1470
g8
I306
sg9
g558
sa(dp1471
g8
I321
sg9
g560
sa(dp1472
g8
I326
sg9
g562
sa(dp1473
g8
I351
sg9
g564
sa(dp1474
g8
I392
sg9
g566
sasg8
I413
sg9
g567
ssI414
(dp1475
g1
(lp1476
(dp1477
g8
I7
sg9
g436
sa(dp1478
g8
I35
sg9
g438
sa(dp1479
g8
I71
sg9
g440
sa(dp1480
g8
I90
sg9
g442
sa(dp1481
g8
I92
sg9
g444
sa(dp1482
g8
I126
sg9
g446
sa(dp1483
g8
I135
sg9
g448
sa(dp1484
g8
I136
sg9
g450
sa(dp1485
g8
I137
sg9
g452
sa(dp1486
g8
I146
sg9
g454
sa(dp1487
g8
I163
sg9
g456
sa(dp1488
g8
I231
sg9
g458
sa(dp1489
g8
I236
sg9
g460
sa(dp1490
g8
I237
sg9
g462
sa(dp1491
g8
I251
sg9
g464
sa(dp1492
g8
I254
sg9
g466
sa(dp1493
g8
I280
sg9
g468
sa(dp1494
g8
I284
sg9
g470
sa(dp1495
g8
I314
sg9
g472
sa(dp1496
g8
I330
sg9
g474
sa(dp1497
g8
I389
sg9
g476
sa(dp1498
g8
I390
sg9
g478
sa(dp1499
g8
I394
sg9
g480
sa(dp1500
g8
I395
sg9
g482
sa(dp1501
g8
I406
sg9
g484
sasg8
I414
sg9
g485
ssI415
(dp1502
g1
(lp1503
(dp1504
g8
I8
sg9
g615
sa(dp1505
g8
I31
sg9
g617
sa(dp1506
g8
I50
sg9
g619
sa(dp1507
g8
I86
sg9
g621
sa(dp1508
g8
I101
sg9
g623
sa(dp1509
g8
I115
sg9
g625
sa(dp1510
g8
I116
sg9
g627
sa(dp1511
g8
I117
sg9
g629
sa(dp1512
g8
I118
sg9
g631
sa(dp1513
g8
I142
sg9
g633
sa(dp1514
g8
I167
sg9
g635
sa(dp1515
g8
I168
sg9
g637
sa(dp1516
g8
I175
sg9
g639
sa(dp1517
g8
I227
sg9
g641
sa(dp1518
g8
I266
sg9
g643
sa(dp1519
g8
I286
sg9
g645
sa(dp1520
g8
I289
sg9
g647
sa(dp1521
g8
I293
sg9
g649
sa(dp1522
g8
I297
sg9
g651
sa(dp1523
g8
I302
sg9
g653
sa(dp1524
g8
I318
sg9
g655
sa(dp1525
g8
I324
sg9
g657
sa(dp1526
g8
I331
sg9
g659
sa(dp1527
g8
I338
sg9
g661
sa(dp1528
g8
I349
sg9
g663
sa(dp1529
g8
I357
sg9
g665
sa(dp1530
g8
I365
sg9
g667
sa(dp1531
g8
I383
sg9
g669
sa(dp1532
g8
I387
sg9
g671
sa(dp1533
g8
I407
sg9
g673
sasg8
I415
sg9
g674
ssI416
(dp1534
g1
(lp1535
(dp1536
g8
I9
sg9
g106
sa(dp1537
g8
I46
sg9
g108
sa(dp1538
g8
I59
sg9
g110
sa(dp1539
g8
I108
sg9
g112
sa(dp1540
g8
I123
sg9
g114
sa(dp1541
g8
I188
sg9
g116
sa(dp1542
g8
I272
sg9
g118
sa(dp1543
g8
I278
sg9
g120
sa(dp1544
g8
I312
sg9
g122
sa(dp1545
g8
I332
sg9
g124
sa(dp1546
g8
I348
sg9
g126
sa(dp1547
g8
I369
sg9
g128
sa(dp1548
g8
I378
sg9
g130
sa(dp1549
g8
I379
sg9
g132
sa(dp1550
g8
I380
sg9
g134
sa(dp1551
g8
I386
sg9
g136
sa(dp1552
g8
I401
sg9
g138
sasg8
I416
sg9
g139
ssI417
(dp1553
g1
(lp1554
(dp1555
g8
I10
sg9
g678
sa(dp1556
g8
I17
sg9
g680
sa(dp1557
g8
I49
sg9
g682
sa(dp1558
g8
I60
sg9
g684
sa(dp1559
g8
I61
sg9
g686
sa(dp1560
g8
I66
sg9
g688
sa(dp1561
g8
I87
sg9
g690
sa(dp1562
g8
I173
sg9
g692
sa(dp1563
g8
I179
sg9
g694
sa(dp1564
g8
I203
sg9
g696
sa(dp1565
g8
I208
sg9
g698
sa(dp1566
g8
I298
sg9
g700
sasg8
I417
sg9
g701
ssI418
(dp1567
g1
(lp1568
(dp1569
g8
I11
sg9
g338
sa(dp1570
g8
I45
sg9
g340
sa(dp1571
g8
I52
sg9
g342
sa(dp1572
g8
I62
sg9
g344
sa(dp1573
g8
I80
sg9
g346
sa(dp1574
g8
I95
sg9
g348
sa(dp1575
g8
I143
sg9
g350
sa(dp1576
g8
I172
sg9
g352
sa(dp1577
g8
I249
sg9
g354
sa(dp1578
g8
I258
sg9
g356
sa(dp1579
g8
I275
sg9
g358
sa(dp1580
g8
I366
sg9
g360
sasg8
I418
sg9
g361
ssI419
(dp1581
g1
(lp1582
(dp1583
g8
I12
sg9
g737
sa(dp1584
g8
I15
sg9
g739
sa(dp1585
g8
I28
sg9
g741
sa(dp1586
g8
I43
sg9
g743
sa(dp1587
g8
I72
sg9
g745
sa(dp1588
g8
I77
sg9
g747
sa(dp1589
g8
I84
sg9
g749
sa(dp1590
g8
I106
sg9
g751
sa(dp1591
g8
I185
sg9
g753
sa(dp1592
g8
I238
sg9
g755
sa(dp1593
g8
I282
sg9
g757
sa(dp1594
g8
I283
sg9
g759
sa(dp1595
g8
I295
sg9
g761
sa(dp1596
g8
I311
sg9
g763
sa(dp1597
g8
I368
sg9
g765
sa(dp1598
g8
I385
sg9
g767
sasg8
I419
sg9
g768
ssI420
(dp1599
g1
(lp1600
(dp1601
g8
I13
sg9
g143
sa(dp1602
g8
I16
sg9
g145
sa(dp1603
g8
I33
sg9
g147
sa(dp1604
g8
I36
sg9
g149
sa(dp1605
g8
I128
sg9
g151
sa(dp1606
g8
I131
sg9
g153
sa(dp1607
g8
I156
sg9
g155
sa(dp1608
g8
I182
sg9
g157
sa(dp1609
g8
I209
sg9
g159
sa(dp1610
g8
I214
sg9
g161
sa(dp1611
g8
I245
sg9
g163
sa(dp1612
g8
I250
sg9
g165
sa(dp1613
g8
I260
sg9
g167
sa(dp1614
g8
I291
sg9
g169
sa(dp1615
g8
I307
sg9
g171
sa(dp1616
g8
I353
sg9
g173
sa(dp1617
g8
I382
sg9
g175
sa(dp1618
g8
I400
sg9
g177
sa(dp1619
g8
I403
sg9
g179
sasg8
I420
sg9
g180
ssI421
(dp1620
g1
(lp1621
(dp1622
g8
I18
sg9
g772
sa(dp1623
g8
I76
sg9
g774
sa(dp1624
g8
I103
sg9
g776
sa(dp1625
g8
I134
sg9
g778
sa(dp1626
g8
I174
sg9
g780
sa(dp1627
g8
I285
sg9
g782
sa(dp1628
g8
I292
sg9
g784
sa(dp1629
g8
I305
sg9
g786
sa(dp1630
g8
I335
sg9
g788
sa(dp1631
g8
I340
sg9
g790
sa(dp1632
g8
I341
sg9
g792
sasg8
I421
sg9
g793
ssI422
(dp1633
g1
(lp1634
(dp1635
g8
I19
sg9
g861
sa(dp1636
g8
I40
sg9
g863
sa(dp1637
g8
I55
sg9
g865
sa(dp1638
g8
I57
sg9
g867
sa(dp1639
g8
I78
sg9
g869
sa(dp1640
g8
I144
sg9
g871
sa(dp1641
g8
I184
sg9
g873
sa(dp1642
g8
I189
sg9
g875
sa(dp1643
g8
I290
sg9
g877
sa(dp1644
g8
I317
sg9
g879
sa(dp1645
g8
I334
sg9
g881
sa(dp1646
g8
I336
sg9
g883
sa(dp1647
g8
I370
sg9
g885
sa(dp1648
g8
I404
sg9
g887
sasg8
I422
sg9
g888
ssI423
(dp1649
g1
(lp1650
(dp1651
g8
I20
sg9
g184
sa(dp1652
g8
I27
sg9
g186
sa(dp1653
g8
I34
sg9
g188
sa(dp1654
g8
I37
sg9
g190
sa(dp1655
g8
I38
sg9
g192
sa(dp1656
g8
I67
sg9
g194
sa(dp1657
g8
I83
sg9
g196
sa(dp1658
g8
I110
sg9
g198
sa(dp1659
g8
I111
sg9
g200
sa(dp1660
g8
I133
sg9
g202
sa(dp1661
g8
I153
sg9
g204
sa(dp1662
g8
I165
sg9
g206
sa(dp1663
g8
I169
sg9
g208
sa(dp1664
g8
I197
sg9
g210
sa(dp1665
g8
I212
sg9
g212
sa(dp1666
g8
I220
sg9
g214
sa(dp1667
g8
I221
sg9
g216
sa(dp1668
g8
I240
sg9
g218
sa(dp1669
g8
I259
sg9
g220
sa(dp1670
g8
I270
sg9
g222
sa(dp1671
g8
I273
sg9
g224
sa(dp1672
g8
I279
sg9
g226
sa(dp1673
g8
I342
sg9
g228
sa(dp1674
g8
I350
sg9
g230
sa(dp1675
g8
I381
sg9
g232
sasg8
I423
sg9
g233
ssI424
(dp1676
g1
(lp1677
(dp1678
g8
I22
sg9
g365
sa(dp1679
g8
I24
sg9
g367
sa(dp1680
g8
I48
sg9
g369
sa(dp1681
g8
I138
sg9
g371
sa(dp1682
g8
I171
sg9
g373
sa(dp1683
g8
I181
sg9
g375
sa(dp1684
g8
I228
sg9
g377
sa(dp1685
g8
I294
sg9
g379
sa(dp1686
g8
I296
sg9
g381
sa(dp1687
g8
I377
sg9
g383
sa(dp1688
g8
I393
sg9
g385
sasg8
I424
sg9
g386
ssI425
(dp1689
g1
(lp1690
(dp1691
g8
I23
sg9
g571
sa(dp1692
g8
I44
sg9
g573
sa(dp1693
g8
I58
sg9
g575
sa(dp1694
g8
I88
sg9
g577
sa(dp1695
g8
I89
sg9
g579
sa(dp1696
g8
I91
sg9
g581
sa(dp1697
g8
I139
sg9
g583
sa(dp1698
g8
I140
sg9
g585
sa(dp1699
g8
I147
sg9
g587
sa(dp1700
g8
I148
sg9
g589
sa(dp1701
g8
I166
sg9
g591
sa(dp1702
g8
I183
sg9
g593
sa(dp1703
g8
I222
sg9
g595
sa(dp1704
g8
I235
sg9
g597
sa(dp1705
g8
I256
sg9
g599
sa(dp1706
g8
I316
sg9
g601
sa(dp1707
g8
I322
sg9
g603
sa(dp1708
g8
I343
sg9
g605
sa(dp1709
g8
I388
sg9
g607
sasg8
I425
sg9
g608
ssI426
(dp1710
g1
(lp1711
(dp1712
g8
I25
sg9
g489
sa(dp1713
g8
I56
sg9
g491
sa(dp1714
g8
I82
sg9
g493
sa(dp1715
g8
I124
sg9
g495
sa(dp1716
g8
I157
sg9
g497
sa(dp1717
g8
I252
sg9
g499
sa(dp1718
g8
I253
sg9
g501
sa(dp1719
g8
I325
sg9
g503
sasg8
I426
sg9
g504
ssI427
(dp1720
g1
(lp1721
(dp1722
g8
I29
sg9
g797
sa(dp1723
g8
I41
sg9
g799
sa(dp1724
g8
I96
sg9
g801
sa(dp1725
g8
I100
sg9
g803
sa(dp1726
g8
I132
sg9
g805
sa(dp1727
g8
I200
sg9
g807
sa(dp1728
g8
I202
sg9
g809
sa(dp1729
g8
I219
sg9
g811
sa(dp1730
g8
I264
sg9
g813
sa(dp1731
g8
I299
sg9
g815
sa(dp1732
g8
I372
sg9
g817
sa(dp1733
g8
I376
sg9
g819
sa(dp1734
g8
I397
sg9
g821
sa(dp1735
g8
I402
sg9
g823
sa(dp1736
g8
I405
sg9
g825
sasg8
I427
sg9
g826
ssI428
(dp1737
g1
(lp1738
(dp1739
g8
I30
sg9
g705
sa(dp1740
g8
I47
sg9
g707
sa(dp1741
g8
I79
sg9
g709
sa(dp1742
g8
I94
sg9
g711
sa(dp1743
g8
I104
sg9
g713
sa(dp1744
g8
I119
sg9
g715
sa(dp1745
g8
I121
sg9
g717
sa(dp1746
g8
I122
sg9
g719
sa(dp1747
g8
I187
sg9
g721
sa(dp1748
g8
I262
sg9
g723
sa(dp1749
g8
I276
sg9
g725
sa(dp1750
g8
I277
sg9
g727
sa(dp1751
g8
I281
sg9
g729
sasg8
I428
sg9
g730
ssI429
(dp1752
g1
(lp1753
(dp1754
g8
I51
sg9
g892
sa(dp1755
g8
I159
sg9
g894
sa(dp1756
g8
I161
sg9
g896
sa(dp1757
g8
I162
sg9
g898
sa(dp1758
g8
I205
sg9
g900
sa(dp1759
g8
I206
sg9
g902
sa(dp1760
g8
I333
sg9
g904
sa(dp1761
g8
I396
sg9
g906
sa(dp1762
g8
I399
sg9
g908
sasg8
I429
sg9
g909
ssI430
(dp1763
g1
(lp1764
(dp1765
g8
I63
sg9
g830
sa(dp1766
g8
I85
sg9
g832
sa(dp1767
g8
I114
sg9
g834
sa(dp1768
g8
I149
sg9
g836
sa(dp1769
g8
I195
sg9
g838
sa(dp1770
g8
I198
sg9
g840
sa(dp1771
g8
I257
sg9
g842
sa(dp1772
g8
I327
sg9
g844
sa(dp1773
g8
I328
sg9
g846
sa(dp1774
g8
I354
sg9
g848
sa(dp1775
g8
I355
sg9
g850
sasg8
I430
sg9
g851
ssI431
(dp1776
g1
(lp1777
(dp1778
g8
I160
sg9
g914
sa(dp1779
g8
I207
sg9
g916
sa(dp1780
g8
I315
sg9
g918
sa(dp1781
g8
I362
sg9
g920
sasg8
I431
sg9
g921
ssI432
(dp1782
g1
(lp1783
(dp1784
g8
I164
sg9
g508
sa(dp1785
g8
I177
sg9
g510
sa(dp1786
g8
I192
sg9
g512
sa(dp1787
g8
I242
sg9
g514
sa(dp1788
g8
I303
sg9
g516
sa(dp1789
g8
I308
sg9
g518
sa(dp1790
g8
I310
sg9
g520
sasg8
I432
sg9
g521
ssI433
(dp1791
g1
(lp1792
(dp1793
g1
(lp1794
(dp1795
g8
I0
sg9
g10
sa(dp1796
g8
I4
sg9
g12
sa(dp1797
g8
I26
sg9
g14
sa(dp1798
g8
I32
sg9
g16
sa(dp1799
g8
I68
sg9
g18
sa(dp1800
g8
I69
sg9
g20
sa(dp1801
g8
I70
sg9
g22
sa(dp1802
g8
I125
sg9
g24
sa(dp1803
g8
I129
sg9
g26
sa(dp1804
g8
I130
sg9
g28
sa(dp1805
g8
I151
sg9
g30
sa(dp1806
g8
I191
sg9
g32
sa(dp1807
g8
I211
sg9
g34
sa(dp1808
g8
I216
sg9
g36
sa(dp1809
g8
I217
sg9
g38
sa(dp1810
g8
I224
sg9
g40
sa(dp1811
g8
I226
sg9
g42
sa(dp1812
g8
I230
sg9
g44
sa(dp1813
g8
I234
sg9
g46
sa(dp1814
g8
I247
sg9
g48
sa(dp1815
g8
I267
sg9
g50
sa(dp1816
g8
I271
sg9
g52
sa(dp1817
g8
I323
sg9
g54
sa(dp1818
g8
I337
sg9
g56
sa(dp1819
g8
I346
sg9
g58
sa(dp1820
g8
I347
sg9
g60
sasg8
I408
sg9
g61
sa(dp1821
g1
(lp1822
(dp1823
g8
I3
sg9
g65
sa(dp1824
g8
I42
sg9
g67
sa(dp1825
g8
I65
sg9
g69
sa(dp1826
g8
I74
sg9
g71
sa(dp1827
g8
I102
sg9
g73
sa(dp1828
g8
I141
sg9
g75
sa(dp1829
g8
I150
sg9
g77
sa(dp1830
g8
I155
sg9
g79
sa(dp1831
g8
I193
sg9
g81
sa(dp1832
g8
I196
sg9
g83
sa(dp1833
g8
I204
sg9
g85
sa(dp1834
g8
I210
sg9
g87
sa(dp1835
g8
I229
sg9
g89
sa(dp1836
g8
I239
sg9
g91
sa(dp1837
g8
I261
sg9
g93
sa(dp1838
g8
I300
sg9
g95
sa(dp1839
g8
I309
sg9
g97
sa(dp1840
g8
I345
sg9
g99
sa(dp1841
g8
I364
sg9
g101
sasg8
I411
sg9
g102
sa(dp1842
g1
(lp1843
(dp1844
g8
I9
sg9
g106
sa(dp1845
g8
I46
sg9
g108
sa(dp1846
g8
I59
sg9
g110
sa(dp1847
g8
I108
sg9
g112
sa(dp1848
g8
I123
sg9
g114
sa(dp1849
g8
I188
sg9
g116
sa(dp1850
g8
I272
sg9
g118
sa(dp1851
g8
I278
sg9
g120
sa(dp1852
g8
I312
sg9
g122
sa(dp1853
g8
I332
sg9
g124
sa(dp1854
g8
I348
sg9
g126
sa(dp1855
g8
I369
sg9
g128
sa(dp1856
g8
I378
sg9
g130
sa(dp1857
g8
I379
sg9
g132
sa(dp1858
g8
I380
sg9
g134
sa(dp1859
g8
I386
sg9
g136
sa(dp1860
g8
I401
sg9
g138
sasg8
I416
sg9
g139
sa(dp1861
g1
(lp1862
(dp1863
g8
I13
sg9
g143
sa(dp1864
g8
I16
sg9
g145
sa(dp1865
g8
I33
sg9
g147
sa(dp1866
g8
I36
sg9
g149
sa(dp1867
g8
I128
sg9
g151
sa(dp1868
g8
I131
sg9
g153
sa(dp1869
g8
I156
sg9
g155
sa(dp1870
g8
I182
sg9
g157
sa(dp1871
g8
I209
sg9
g159
sa(dp1872
g8
I214
sg9
g161
sa(dp1873
g8
I245
sg9
g163
sa(dp1874
g8
I250
sg9
g165
sa(dp1875
g8
I260
sg9
g167
sa(dp1876
g8
I291
sg9
g169
sa(dp1877
g8
I307
sg9
g171
sa(dp1878
g8
I353
sg9
g173
sa(dp1879
g8
I382
sg9
g175
sa(dp1880
g8
I400
sg9
g177
sa(dp1881
g8
I403
sg9
g179
sasg8
I420
sg9
g180
sa(dp1882
g1
(lp1883
(dp1884
g8
I20
sg9
g184
sa(dp1885
g8
I27
sg9
g186
sa(dp1886
g8
I34
sg9
g188
sa(dp1887
g8
I37
sg9
g190
sa(dp1888
g8
I38
sg9
g192
sa(dp1889
g8
I67
sg9
g194
sa(dp1890
g8
I83
sg9
g196
sa(dp1891
g8
I110
sg9
g198
sa(dp1892
g8
I111
sg9
g200
sa(dp1893
g8
I133
sg9
g202
sa(dp1894
g8
I153
sg9
g204
sa(dp1895
g8
I165
sg9
g206
sa(dp1896
g8
I169
sg9
g208
sa(dp1897
g8
I197
sg9
g210
sa(dp1898
g8
I212
sg9
g212
sa(dp1899
g8
I220
sg9
g214
sa(dp1900
g8
I221
sg9
g216
sa(dp1901
g8
I240
sg9
g218
sa(dp1902
g8
I259
sg9
g220
sa(dp1903
g8
I270
sg9
g222
sa(dp1904
g8
I273
sg9
g224
sa(dp1905
g8
I279
sg9
g226
sa(dp1906
g8
I342
sg9
g228
sa(dp1907
g8
I350
sg9
g230
sa(dp1908
g8
I381
sg9
g232
sasg8
I423
sg9
g233
sasg8
I433
sg9
g234
ssI434
(dp1909
g1
(lp1910
(dp1911
g1
(lp1912
(dp1913
g8
I1
sg9
g242
sa(dp1914
g8
I21
sg9
g244
sa(dp1915
g8
I64
sg9
g246
sa(dp1916
g8
I73
sg9
g248
sa(dp1917
g8
I98
sg9
g250
sa(dp1918
g8
I99
sg9
g252
sa(dp1919
g8
I105
sg9
g254
sa(dp1920
g8
I107
sg9
g256
sa(dp1921
g8
I127
sg9
g258
sa(dp1922
g8
I158
sg9
g260
sa(dp1923
g8
I201
sg9
g262
sa(dp1924
g8
I213
sg9
g264
sa(dp1925
g8
I255
sg9
g266
sa(dp1926
g8
I263
sg9
g268
sa(dp1927
g8
I288
sg9
g270
sa(dp1928
g8
I313
sg9
g272
sa(dp1929
g8
I319
sg9
g274
sa(dp1930
g8
I320
sg9
g276
sa(dp1931
g8
I329
sg9
g278
sa(dp1932
g8
I339
sg9
g280
sa(dp1933
g8
I344
sg9
g282
sa(dp1934
g8
I356
sg9
g284
sa(dp1935
g8
I358
sg9
g286
sa(dp1936
g8
I360
sg9
g288
sa(dp1937
g8
I371
sg9
g290
sa(dp1938
g8
I374
sg9
g292
sa(dp1939
g8
I375
sg9
g294
sa(dp1940
g8
I398
sg9
g296
sasg8
I409
sg9
g297
sa(dp1941
g1
(lp1942
(dp1943
g8
I5
sg9
g301
sa(dp1944
g8
I14
sg9
g303
sa(dp1945
g8
I39
sg9
g305
sa(dp1946
g8
I53
sg9
g307
sa(dp1947
g8
I120
sg9
g309
sa(dp1948
g8
I152
sg9
g311
sa(dp1949
g8
I154
sg9
g313
sa(dp1950
g8
I170
sg9
g315
sa(dp1951
g8
I178
sg9
g317
sa(dp1952
g8
I190
sg9
g319
sa(dp1953
g8
I194
sg9
g321
sa(dp1954
g8
I199
sg9
g323
sa(dp1955
g8
I215
sg9
g325
sa(dp1956
g8
I352
sg9
g327
sa(dp1957
g8
I373
sg9
g329
sa(dp1958
g8
I384
sg9
g331
sa(dp1959
g8
I391
sg9
g333
sasg8
I412
sg9
g334
sa(dp1960
g1
(lp1961
(dp1962
g8
I11
sg9
g338
sa(dp1963
g8
I45
sg9
g340
sa(dp1964
g8
I52
sg9
g342
sa(dp1965
g8
I62
sg9
g344
sa(dp1966
g8
I80
sg9
g346
sa(dp1967
g8
I95
sg9
g348
sa(dp1968
g8
I143
sg9
g350
sa(dp1969
g8
I172
sg9
g352
sa(dp1970
g8
I249
sg9
g354
sa(dp1971
g8
I258
sg9
g356
sa(dp1972
g8
I275
sg9
g358
sa(dp1973
g8
I366
sg9
g360
sasg8
I418
sg9
g361
sa(dp1974
g1
(lp1975
(dp1976
g8
I22
sg9
g365
sa(dp1977
g8
I24
sg9
g367
sa(dp1978
g8
I48
sg9
g369
sa(dp1979
g8
I138
sg9
g371
sa(dp1980
g8
I171
sg9
g373
sa(dp1981
g8
I181
sg9
g375
sa(dp1982
g8
I228
sg9
g377
sa(dp1983
g8
I294
sg9
g379
sa(dp1984
g8
I296
sg9
g381
sa(dp1985
g8
I377
sg9
g383
sa(dp1986
g8
I393
sg9
g385
sasg8
I424
sg9
g386
sasg8
I434
sg9
g387
ssI435
(dp1987
g1
(lp1988
(dp1989
g1
(lp1990
(dp1991
g8
I2
sg9
g393
sa(dp1992
g8
I54
sg9
g395
sa(dp1993
g8
I75
sg9
g397
sa(dp1994
g8
I93
sg9
g399
sa(dp1995
g8
I97
sg9
g401
sa(dp1996
g8
I109
sg9
g403
sa(dp1997
g8
I145
sg9
g405
sa(dp1998
g8
I223
sg9
g407
sa(dp1999
g8
I225
sg9
g409
sa(dp2000
g8
I232
sg9
g411
sa(dp2001
g8
I233
sg9
g413
sa(dp2002
g8
I241
sg9
g415
sa(dp2003
g8
I243
sg9
g417
sa(dp2004
g8
I244
sg9
g419
sa(dp2005
g8
I268
sg9
g421
sa(dp2006
g8
I287
sg9
g423
sa(dp2007
g8
I359
sg9
g425
sa(dp2008
g8
I361
sg9
g427
sa(dp2009
g8
I363
sg9
g429
sa(dp2010
g8
I367
sg9
g431
sasg8
I410
sg9
g432
sa(dp2011
g1
(lp2012
(dp2013
g8
I7
sg9
g436
sa(dp2014
g8
I35
sg9
g438
sa(dp2015
g8
I71
sg9
g440
sa(dp2016
g8
I90
sg9
g442
sa(dp2017
g8
I92
sg9
g444
sa(dp2018
g8
I126
sg9
g446
sa(dp2019
g8
I135
sg9
g448
sa(dp2020
g8
I136
sg9
g450
sa(dp2021
g8
I137
sg9
g452
sa(dp2022
g8
I146
sg9
g454
sa(dp2023
g8
I163
sg9
g456
sa(dp2024
g8
I231
sg9
g458
sa(dp2025
g8
I236
sg9
g460
sa(dp2026
g8
I237
sg9
g462
sa(dp2027
g8
I251
sg9
g464
sa(dp2028
g8
I254
sg9
g466
sa(dp2029
g8
I280
sg9
g468
sa(dp2030
g8
I284
sg9
g470
sa(dp2031
g8
I314
sg9
g472
sa(dp2032
g8
I330
sg9
g474
sa(dp2033
g8
I389
sg9
g476
sa(dp2034
g8
I390
sg9
g478
sa(dp2035
g8
I394
sg9
g480
sa(dp2036
g8
I395
sg9
g482
sa(dp2037
g8
I406
sg9
g484
sasg8
I414
sg9
g485
sa(dp2038
g1
(lp2039
(dp2040
g8
I25
sg9
g489
sa(dp2041
g8
I56
sg9
g491
sa(dp2042
g8
I82
sg9
g493
sa(dp2043
g8
I124
sg9
g495
sa(dp2044
g8
I157
sg9
g497
sa(dp2045
g8
I252
sg9
g499
sa(dp2046
g8
I253
sg9
g501
sa(dp2047
g8
I325
sg9
g503
sasg8
I426
sg9
g504
sa(dp2048
g1
(lp2049
(dp2050
g8
I164
sg9
g508
sa(dp2051
g8
I177
sg9
g510
sa(dp2052
g8
I192
sg9
g512
sa(dp2053
g8
I242
sg9
g514
sa(dp2054
g8
I303
sg9
g516
sa(dp2055
g8
I308
sg9
g518
sa(dp2056
g8
I310
sg9
g520
sasg8
I432
sg9
g521
sasg8
I435
sg9
g522
ssI436
(dp2057
g1
(lp2058
(dp2059
g1
(lp2060
(dp2061
g8
I6
sg9
g528
sa(dp2062
g8
I81
sg9
g530
sa(dp2063
g8
I112
sg9
g532
sa(dp2064
g8
I113
sg9
g534
sa(dp2065
g8
I176
sg9
g536
sa(dp2066
g8
I180
sg9
g538
sa(dp2067
g8
I186
sg9
g540
sa(dp2068
g8
I218
sg9
g542
sa(dp2069
g8
I246
sg9
g544
sa(dp2070
g8
I248
sg9
g546
sa(dp2071
g8
I265
sg9
g548
sa(dp2072
g8
I269
sg9
g550
sa(dp2073
g8
I274
sg9
g552
sa(dp2074
g8
I301
sg9
g554
sa(dp2075
g8
I304
sg9
g556
sa(dp2076
g8
I306
sg9
g558
sa(dp2077
g8
I321
sg9
g560
sa(dp2078
g8
I326
sg9
g562
sa(dp2079
g8
I351
sg9
g564
sa(dp2080
g8
I392
sg9
g566
sasg8
I413
sg9
g567
sa(dp2081
g1
(lp2082
(dp2083
g8
I23
sg9
g571
sa(dp2084
g8
I44
sg9
g573
sa(dp2085
g8
I58
sg9
g575
sa(dp2086
g8
I88
sg9
g577
sa(dp2087
g8
I89
sg9
g579
sa(dp2088
g8
I91
sg9
g581
sa(dp2089
g8
I139
sg9
g583
sa(dp2090
g8
I140
sg9
g585
sa(dp2091
g8
I147
sg9
g587
sa(dp2092
g8
I148
sg9
g589
sa(dp2093
g8
I166
sg9
g591
sa(dp2094
g8
I183
sg9
g593
sa(dp2095
g8
I222
sg9
g595
sa(dp2096
g8
I235
sg9
g597
sa(dp2097
g8
I256
sg9
g599
sa(dp2098
g8
I316
sg9
g601
sa(dp2099
g8
I322
sg9
g603
sa(dp2100
g8
I343
sg9
g605
sa(dp2101
g8
I388
sg9
g607
sasg8
I425
sg9
g608
sasg8
I436
sg9
g609
ssI437
(dp2102
g1
(lp2103
(dp2104
g1
(lp2105
(dp2106
g8
I8
sg9
g615
sa(dp2107
g8
I31
sg9
g617
sa(dp2108
g8
I50
sg9
g619
sa(dp2109
g8
I86
sg9
g621
sa(dp2110
g8
I101
sg9
g623
sa(dp2111
g8
I115
sg9
g625
sa(dp2112
g8
I116
sg9
g627
sa(dp2113
g8
I117
sg9
g629
sa(dp2114
g8
I118
sg9
g631
sa(dp2115
g8
I142
sg9
g633
sa(dp2116
g8
I167
sg9
g635
sa(dp2117
g8
I168
sg9
g637
sa(dp2118
g8
I175
sg9
g639
sa(dp2119
g8
I227
sg9
g641
sa(dp2120
g8
I266
sg9
g643
sa(dp2121
g8
I286
sg9
g645
sa(dp2122
g8
I289
sg9
g647
sa(dp2123
g8
I293
sg9
g649
sa(dp2124
g8
I297
sg9
g651
sa(dp2125
g8
I302
sg9
g653
sa(dp2126
g8
I318
sg9
g655
sa(dp2127
g8
I324
sg9
g657
sa(dp2128
g8
I331
sg9
g659
sa(dp2129
g8
I338
sg9
g661
sa(dp2130
g8
I349
sg9
g663
sa(dp2131
g8
I357
sg9
g665
sa(dp2132
g8
I365
sg9
g667
sa(dp2133
g8
I383
sg9
g669
sa(dp2134
g8
I387
sg9
g671
sa(dp2135
g8
I407
sg9
g673
sasg8
I415
sg9
g674
sa(dp2136
g1
(lp2137
(dp2138
g8
I10
sg9
g678
sa(dp2139
g8
I17
sg9
g680
sa(dp2140
g8
I49
sg9
g682
sa(dp2141
g8
I60
sg9
g684
sa(dp2142
g8
I61
sg9
g686
sa(dp2143
g8
I66
sg9
g688
sa(dp2144
g8
I87
sg9
g690
sa(dp2145
g8
I173
sg9
g692
sa(dp2146
g8
I179
sg9
g694
sa(dp2147
g8
I203
sg9
g696
sa(dp2148
g8
I208
sg9
g698
sa(dp2149
g8
I298
sg9
g700
sasg8
I417
sg9
g701
sa(dp2150
g1
(lp2151
(dp2152
g8
I30
sg9
g705
sa(dp2153
g8
I47
sg9
g707
sa(dp2154
g8
I79
sg9
g709
sa(dp2155
g8
I94
sg9
g711
sa(dp2156
g8
I104
sg9
g713
sa(dp2157
g8
I119
sg9
g715
sa(dp2158
g8
I121
sg9
g717
sa(dp2159
g8
I122
sg9
g719
sa(dp2160
g8
I187
sg9
g721
sa(dp2161
g8
I262
sg9
g723
sa(dp2162
g8
I276
sg9
g725
sa(dp2163
g8
I277
sg9
g727
sa(dp2164
g8
I281
sg9
g729
sasg8
I428
sg9
g730
sasg8
I437
sg9
g731
ssI438
(dp2165
g1
(lp2166
(dp2167
g1
(lp2168
(dp2169
g8
I12
sg9
g737
sa(dp2170
g8
I15
sg9
g739
sa(dp2171
g8
I28
sg9
g741
sa(dp2172
g8
I43
sg9
g743
sa(dp2173
g8
I72
sg9
g745
sa(dp2174
g8
I77
sg9
g747
sa(dp2175
g8
I84
sg9
g749
sa(dp2176
g8
I106
sg9
g751
sa(dp2177
g8
I185
sg9
g753
sa(dp2178
g8
I238
sg9
g755
sa(dp2179
g8
I282
sg9
g757
sa(dp2180
g8
I283
sg9
g759
sa(dp2181
g8
I295
sg9
g761
sa(dp2182
g8
I311
sg9
g763
sa(dp2183
g8
I368
sg9
g765
sa(dp2184
g8
I385
sg9
g767
sasg8
I419
sg9
g768
sa(dp2185
g1
(lp2186
(dp2187
g8
I18
sg9
g772
sa(dp2188
g8
I76
sg9
g774
sa(dp2189
g8
I103
sg9
g776
sa(dp2190
g8
I134
sg9
g778
sa(dp2191
g8
I174
sg9
g780
sa(dp2192
g8
I285
sg9
g782
sa(dp2193
g8
I292
sg9
g784
sa(dp2194
g8
I305
sg9
g786
sa(dp2195
g8
I335
sg9
g788
sa(dp2196
g8
I340
sg9
g790
sa(dp2197
g8
I341
sg9
g792
sasg8
I421
sg9
g793
sa(dp2198
g1
(lp2199
(dp2200
g8
I29
sg9
g797
sa(dp2201
g8
I41
sg9
g799
sa(dp2202
g8
I96
sg9
g801
sa(dp2203
g8
I100
sg9
g803
sa(dp2204
g8
I132
sg9
g805
sa(dp2205
g8
I200
sg9
g807
sa(dp2206
g8
I202
sg9
g809
sa(dp2207
g8
I219
sg9
g811
sa(dp2208
g8
I264
sg9
g813
sa(dp2209
g8
I299
sg9
g815
sa(dp2210
g8
I372
sg9
g817
sa(dp2211
g8
I376
sg9
g819
sa(dp2212
g8
I397
sg9
g821
sa(dp2213
g8
I402
sg9
g823
sa(dp2214
g8
I405
sg9
g825
sasg8
I427
sg9
g826
sa(dp2215
g1
(lp2216
(dp2217
g8
I63
sg9
g830
sa(dp2218
g8
I85
sg9
g832
sa(dp2219
g8
I114
sg9
g834
sa(dp2220
g8
I149
sg9
g836
sa(dp2221
g8
I195
sg9
g838
sa(dp2222
g8
I198
sg9
g840
sa(dp2223
g8
I257
sg9
g842
sa(dp2224
g8
I327
sg9
g844
sa(dp2225
g8
I328
sg9
g846
sa(dp2226
g8
I354
sg9
g848
sa(dp2227
g8
I355
sg9
g850
sasg8
I430
sg9
g851
sasg8
I438
sg9
g852
ssI439
(dp2228
g1
(lp2229
(dp2230
g1
(lp2231
(dp2232
g8
I19
sg9
g861
sa(dp2233
g8
I40
sg9
g863
sa(dp2234
g8
I55
sg9
g865
sa(dp2235
g8
I57
sg9
g867
sa(dp2236
g8
I78
sg9
g869
sa(dp2237
g8
I144
sg9
g871
sa(dp2238
g8
I184
sg9
g873
sa(dp2239
g8
I189
sg9
g875
sa(dp2240
g8
I290
sg9
g877
sa(dp2241
g8
I317
sg9
g879
sa(dp2242
g8
I334
sg9
g881
sa(dp2243
g8
I336
sg9
g883
sa(dp2244
g8
I370
sg9
g885
sa(dp2245
g8
I404
sg9
g887
sasg8
I422
sg9
g888
sa(dp2246
g1
(lp2247
(dp2248
g8
I51
sg9
g892
sa(dp2249
g8
I159
sg9
g894
sa(dp2250
g8
I161
sg9
g896
sa(dp2251
g8
I162
sg9
g898
sa(dp2252
g8
I205
sg9
g900
sa(dp2253
g8
I206
sg9
g902
sa(dp2254
g8
I333
sg9
g904
sa(dp2255
g8
I396
sg9
g906
sa(dp2256
g8
I399
sg9
g908
sasg8
I429
sg9
g909
sasg8
I439
sg9
g910
ssI442
(dp2257
g1
(lp2258
(dp2259
g1
(lp2260
(dp2261
g8
I409
sg9
g297
sa(dp2262
g8
I412
sg9
g334
sa(dp2263
g8
I418
sg9
g361
sa(dp2264
g8
I424
sg9
g386
sasg8
I434
sg9
g387
sa(dp2265
g1
(lp2266
(dp2267
g8
I410
sg9
g432
sa(dp2268
g8
I414
sg9
g485
sa(dp2269
g8
I426
sg9
g504
sa(dp2270
g8
I432
sg9
g521
sasg8
I435
sg9
g522
sa(dp2271
g1
(lp2272
(dp2273
g8
I413
sg9
g567
sa(dp2274
g8
I425
sg9
g608
sasg8
I436
sg9
g609
sa(dp2275
g1
(lp2276
(dp2277
g8
I415
sg9
g674
sa(dp2278
g8
I417
sg9
g701
sa(dp2279
g8
I428
sg9
g730
sasg8
I437
sg9
g731
sa(dp2280
g1
(lp2281
(dp2282
g8
I419
sg9
g768
sa(dp2283
g8
I421
sg9
g793
sa(dp2284
g8
I427
sg9
g826
sa(dp2285
g8
I430
sg9
g851
sasg8
I438
sg9
g852
sasg8
I442
sg9
g853
ssI443
(dp2286
g1
(lp2287
(dp2288
g1
(lp2289
(dp2290
g8
I422
sg9
g888
sa(dp2291
g8
I429
sg9
g909
sasg8
I439
sg9
g910
sa(dp2292
g1
(lp2293
(dp2294
g8
I160
sg9
g914
sa(dp2295
g8
I207
sg9
g916
sa(dp2296
g8
I315
sg9
g918
sa(dp2297
g8
I362
sg9
g920
sasg8
I431
sg9
g921
sasg8
I443
sg9
g922
ssI444
(dp2298
g1
(lp2299
(dp2300
g1
(lp2301
(dp2302
g8
I408
sg9
g61
sa(dp2303
g8
I411
sg9
g102
sa(dp2304
g8
I416
sg9
g139
sa(dp2305
g8
I420
sg9
g180
sa(dp2306
g8
I423
sg9
g233
sasg8
I433
sg9
g234
sa(dp2307
g1
(lp2308
(dp2309
g8
I434
sg9
g387
sa(dp2310
g8
I435
sg9
g522
sa(dp2311
g8
I436
sg9
g609
sa(dp2312
g8
I437
sg9
g731
sa(dp2313
g8
I438
sg9
g852
sasg8
I442
sg9
g853
sa(dp2314
g1
(lp2315
(dp2316
g8
I439
sg9
g910
sa(dp2317
g8
I431
sg9
g921
sasg8
I443
sg9
g922
sasg8
I444
sg9
g923
sstp2318
.