((dp0
S'children'
p1
(lp2
(dp3
g1
(lp4
(dp5
g1
(lp6
(dp7
S'id'
p8
I0
sS'name'
p9
S'Eastern_Orthodox_Church'
p10
sa(dp11
g8
I4
sg9
S'Finland'
p12
sa(dp13
g8
I16
sg9
S'Greece'
p14
sa(dp15
g8
I26
sg9
S'Hungary'
p16
sa(dp17
g8
I32
sg9
S'Iceland'
p18
sa(dp19
g8
I51
sg9
S'Eastern_European_Summer_Time'
p20
sa(dp21
g8
I63
sg9
S'Byzantine_Empire'
p22
sa(dp23
g8
I68
sg9
S'Latvia'
p24
sa(dp25
g8
I69
sg9
S'Luxembourg'
p26
sa(dp27
g8
I70
sg9
S'Lithuania'
p28
sa(dp29
g8
I85
sg9
S'Middle_Ages'
p30
sa(dp31
g8
I125
sg9
S'Russian_Empire'
p32
sa(dp33
g8
I129
sg9
S'Countries_of_the_world'
p34
sa(dp35
g8
I130
sg9
S'Nazi_Germany'
p36
sa(dp37
g8
I131
sg9
S'Norway'
p38
sa(dp39
g8
I149
sg9
S'Ottoman_Empire'
p40
sa(dp41
g8
I151
sg9
S'Poland'
p42
sa(dp43
g8
I159
sg9
S'UTC+01:00'
p44
sa(dp45
g8
I161
sg9
S'UTC+02:00'
p46
sa(dp47
g8
I162
sg9
S'UTC+03:00'
p48
sa(dp49
g8
I191
sg9
S'Romania'
p50
sa(dp51
g8
I195
sg9
S'Roman_Empire'
p52
sa(dp53
g8
I205
sg9
S'UTC+2'
p54
sa(dp55
g8
I206
sg9
S'UTC+3'
p56
sa(dp57
g8
I211
sg9
S'Switzerland'
p58
sa(dp59
g8
I216
sg9
S'Slovakia'
p60
sa(dp61
g8
I217
sg9
S'Austria'
p62
sa(dp63
g8
I224
sg9
S'Slovenia'
p64
sa(dp65
g8
I226
sg9
S'Anatomical_Therapeutic_Chemical_Classification_System'
p66
sa(dp67
g8
I230
sg9
S'Estonia'
p68
sa(dp69
g8
I234
sg9
S'Serbia'
p70
sa(dp71
g8
I247
sg9
S'Ukraine'
p72
sa(dp73
g8
I260
sg9
S'Belgium'
p74
sa(dp75
g8
I267
sg9
S'Bulgaria'
p76
sa(dp77
g8
I271
sg9
S'Belarus'
p78
sa(dp79
g8
I272
sg9
S'Bosnia_and_Herzegovina'
p80
sa(dp81
g8
I323
sg9
S'Sweden'
p82
sa(dp83
g8
I328
sg9
S'Ancient_Rome'
p84
sa(dp85
g8
I333
sg9
S'Central_European_Time'
p86
sa(dp87
g8
I337
sg9
S'Czech_Republic'
p88
sa(dp89
g8
I346
sg9
S'Croatia'
p90
sa(dp91
g8
I347
sg9
S'Vienna'
p92
sa(dp93
g8
I382
sg9
S'Denmark'
p94
sa(dp95
g8
I396
sg9
S'Eastern_European_Time'
p96
sa(dp97
g8
I399
sg9
S'Central_European_Summer_Time'
p98
sasg8
I408
sg9
S'Eastern_European_Time'
p99
sa(dp100
g1
(lp101
(dp102
g8
I1
sg9
S'International_Union_for_Conservation_of_Nature'
p103
sa(dp104
g8
I20
sg9
S'Papua_New_Guinea'
p105
sa(dp106
g8
I21
sg9
S'Population_density'
p107
sa(dp108
g8
I27
sg9
S'Hong_Kong'
p109
sa(dp110
g8
I29
sg9
S'Parliament_of_the_United_Kingdom'
p111
sa(dp112
g8
I34
sg9
S'India'
p113
sa(dp114
g8
I37
sg9
S'Indonesia'
p115
sa(dp116
g8
I38
sg9
S'Iran'
p117
sa(dp118
g8
I46
sg9
S'Football_(soccer)'
p119
sa(dp120
g8
I64
sg9
S'Peru'
p121
sa(dp122
g8
I67
sg9
S'South_Africa'
p123
sa(dp124
g8
I73
sg9
S'List_of_countries'
p125
sa(dp126
g8
I83
sg9
S'Kenya'
p127
sa(dp128
g8
I99
sg9
S'Antarctica'
p129
sa(dp130
g8
I105
sg9
S'Drainage_basin'
p131
sa(dp132
g8
I107
sg9
S'Conservation_status'
p133
sa(dp134
g8
I109
sg9
S'The_Guardian'
p135
sa(dp136
g8
I110
sg9
S'BBC'
p137
sa(dp138
g8
I111
sg9
S'Burma'
p139
sa(dp140
g8
I132
sg9
S'Northern_Ireland'
p141
sa(dp142
g8
I133
sg9
S'Nigeria'
p143
sa(dp144
g8
I153
sg9
S'Papua_New_Guinea'
p145
sa(dp146
g8
I158
sg9
S'Pacific_Ocean'
p147
sa(dp148
g8
I165
sg9
S'Pakistan'
p149
sa(dp150
g8
I169
sg9
S'Philippines'
p151
sa(dp152
g8
I174
sg9
S'Sovereign_state'
p153
sa(dp154
g8
I196
sg9
S'Cricket'
p155
sa(dp156
g8
I197
sg9
S'Taiwan'
p157
sa(dp158
g8
I201
sg9
S'New_Zealand'
p159
sa(dp160
g8
I202
sg9
S'Royal_Navy'
p161
sa(dp162
g8
I203
sg9
S'Simplified_Chinese_characters'
p163
sa(dp164
g8
I208
sg9
S'Traditional_Chinese_characters'
p165
sa(dp166
g8
I212
sg9
S'Sri_Lanka'
p167
sa(dp168
g8
I213
sg9
S'South_America'
p169
sa(dp170
g8
I219
sg9
S'Scotland'
p171
sa(dp172
g8
I220
sg9
S'South_Korea'
p173
sa(dp174
g8
I221
sg9
S'Singapore'
p175
sa(dp176
g8
I240
sg9
S'Thailand'
p177
sa(dp178
g8
I255
sg9
S'Venezuela'
p179
sa(dp180
g8
I257
sg9
S'Buddhism'
p181
sa(dp182
g8
I259
sg9
S"People's_Republic_of_China"
p183
sa(dp184
g8
I263
sg9
S'Brazil'
p185
sa(dp186
g8
I270
sg9
S'Bangladesh'
p187
sa(dp188
g8
I273
sg9
S'Saudi_Arabia'
p189
sa(dp190
g8
I279
sg9
S'Malaysia'
p191
sa(dp192
g8
I288
sg9
S'Mexico'
p193
sa(dp194
g8
I298
sg9
S'Hangul'
p195
sa(dp196
g8
I299
sg9
S'Member_of_Parliament'
p197
sa(dp198
g8
I313
sg9
S'New_Zealand'
p199
sa(dp200
g8
I319
sg9
S'Cuba'
p201
sa(dp202
g8
I320
sg9
S'Canada'
p203
sa(dp204
g8
I329
sg9
S'Colombia'
p205
sa(dp206
g8
I339
sg9
S'Africa'
p207
sa(dp208
g8
I342
sg9
S'China'
p209
sa(dp210
g8
I344
sg9
S'Chile'
p211
sa(dp212
g8
I350
sg9
S'Iran_Standard_Time'
p213
sa(dp214
g8
I358
sg9
S'Agriculture'
p215
sa(dp216
g8
I371
sg9
S'Atlantic_Ocean'
p217
sa(dp218
g8
I372
sg9
S'Wales'
p219
sa(dp220
g8
I378
sg9
S'Afghanistan'
p221
sa(dp222
g8
I381
sg9
S'Iraq'
p223
sa(dp224
g8
I398
sg9
S'Earth'
p225
sa(dp226
g8
I402
sg9
S'England'
p227
sasg8
I409
sg9
S'Sri_Lanka'
p228
sa(dp229
g1
(lp230
(dp231
g8
I3
sg9
S'Association_football'
p232
sa(dp233
g8
I9
sg9
S'Turkey'
p234
sa(dp235
g8
I11
sg9
S'BBC_News'
p236
sa(dp237
g8
I13
sg9
S'Germany'
p238
sa(dp239
g8
I33
sg9
S'Italy'
p240
sa(dp241
g8
I36
sg9
S'Republic_of_Ireland'
p242
sa(dp243
g8
I41
sg9
S'Ireland'
p244
sa(dp245
g8
I52
sg9
S'Japan'
p246
sa(dp247
g8
I59
sg9
S'Kazakhstan'
p248
sa(dp249
g8
I95
sg9
S'DMOZ'
p250
sa(dp251
g8
I98
sg9
S'Argentina'
p252
sa(dp253
g8
I103
sg9
S'Municipality'
p254
sa(dp255
g8
I108
sg9
S'Morocco'
p256
sa(dp257
g8
I114
sg9
S'Marriage'
p258
sa(dp259
g8
I123
sg9
S'Vietnam'
p260
sa(dp261
g8
I128
sg9
S'Netherlands'
p262
sa(dp263
g8
I134
sg9
S'Dependent_territory'
p264
sa(dp265
g8
I143
sg9
S'UNESCO'
p266
sa(dp267
g8
I156
sg9
S'Portugal'
p268
sa(dp269
g8
I164
sg9
S'Unincorporated_area'
p270
sa(dp271
g8
I182
sg9
S'Saint_Petersburg'
p272
sa(dp273
g8
I188
sg9
S'Russia'
p274
sa(dp275
g8
I192
sg9
S'Coordinated_Universal_Time'
p276
sa(dp277
g8
I194
sg9
S'Roman_Catholic'
p278
sa(dp279
g8
I198
sg9
S'Protestantism'
p280
sa(dp281
g8
I199
sg9
S'Jews'
p282
sa(dp283
g8
I209
sg9
S'Spain'
p284
sa(dp285
g8
I214
sg9
S'Soviet_Union'
p286
sa(dp287
g8
I245
sg9
S'United_Kingdom'
p288
sa(dp289
g8
I249
sg9
S'United_Nations'
p290
sa(dp291
g8
I250
sg9
S'USA'
p292
sa(dp293
g8
I258
sg9
S'World_War_II'
p294
sa(dp295
g8
I275
sg9
S'YouTube'
p296
sa(dp297
g8
I278
sg9
S'Algeria'
p298
sa(dp299
g8
I291
sg9
S'United_Kingdom'
p300
sa(dp301
g8
I307
sg9
S'Australia'
p302
sa(dp303
g8
I308
sg9
S'Daylight_saving_time'
p304
sa(dp305
g8
I309
sg9
S'World_War_I'
p306
sa(dp307
g8
I312
sg9
S'Georgia_(country)'
p308
sa(dp309
g8
I327
sg9
S'Christianity'
p310
sa(dp311
g8
I332
sg9
S'List_of_states_with_limited_recognition'
p312
sa(dp313
g8
I348
sg9
S'Cyprus'
p314
sa(dp315
g8
I353
sg9
S'France'
p316
sa(dp317
g8
I354
sg9
S'Islam'
p318
sa(dp319
g8
I355
sg9
S'Catholic_Church'
p320
sa(dp321
g8
I366
sg9
S'List_of_sovereign_states'
p322
sa(dp323
g8
I369
sg9
S'Asia'
p324
sa(dp325
g8
I373
sg9
S'Surname'
p326
sa(dp327
g8
I379
sg9
S'Azerbaijan'
p328
sa(dp329
g8
I380
sg9
S'Syria'
p330
sa(dp331
g8
I386
sg9
S'Egypt'
p332
sa(dp333
g8
I400
sg9
S'Europe'
p334
sa(dp335
g8
I401
sg9
S'Israel'
p336
sa(dp337
g8
I403
sg9
S'European_Union'
p338
sasg8
I411
sg9
S'Turkey'
p339
sasg8
I419
sg9
S'Spain'
p340
sa(dp341
g1
(lp342
(dp343
g1
(lp344
(dp345
g1
(lp346
(dp347
g8
I2
sg9
S'The_Washington_Post'
p348
sa(dp349
g8
I42
sg9
S'Ice_hockey'
p350
sa(dp351
g8
I54
sg9
S'Jazz'
p352
sa(dp353
g8
I62
sg9
S'Types_of_business_entity'
p354
sa(dp355
g8
I75
sg9
S'Los_Angeles'
p356
sa(dp357
g8
I80
sg9
S'NASA'
p358
sa(dp359
g8
I93
sg9
S'Associated_Press'
p360
sa(dp361
g8
I96
sg9
S'Law'
p362
sa(dp363
g8
I97
sg9
S'American_football'
p364
sa(dp365
g8
I127
sg9
S'North_America'
p366
sa(dp367
g8
I137
sg9
S'New_York_Times'
p368
sa(dp369
g8
I157
sg9
S'Puerto_Rico'
p370
sa(dp371
g8
I160
sg9
S'UTC\xe2\x88\x9204:00'
p372
sa(dp373
g8
I177
sg9
S'Per_capita_income'
p374
sa(dp375
g8
I181
sg9
S'Alma_mater'
p376
sa(dp377
g8
I187
sg9
S'Virtual_International_Authority_File'
p378
sa(dp379
g8
I207
sg9
S'UTC-5'
p380
sa(dp381
g8
I232
sg9
S'Precipitation'
p382
sa(dp383
g8
I233
sg9
S'Defamation'
p384
sa(dp385
g8
I241
sg9
S'The_New_York_Times'
p386
sa(dp387
g8
I242
sg9
S'Time_zone'
p388
sa(dp389
g8
I243
sg9
S'Atlanta'
p390
sa(dp391
g8
I252
sg9
S'Republican_Party_(United_States)'
p392
sa(dp393
g8
I268
sg9
S'United_States'
p394
sa(dp395
g8
I287
sg9
S'Basketball'
p396
sa(dp397
g8
I303
sg9
S'Legislature'
p398
sa(dp399
g8
I310
sg9
S'Geographic_coordinate_system'
p400
sa(dp401
g8
I317
sg9
S'Poverty_line'
p402
sa(dp403
g8
I359
sg9
S'Telephone_numbering_plan'
p404
sa(dp405
g8
I360
sg9
S'National_Register_of_Historic_Places'
p406
sa(dp407
g8
I361
sg9
S'New_York_City'
p408
sa(dp409
g8
I362
sg9
S'UTC\xe2\x88\x9205:00'
p410
sa(dp411
g8
I367
sg9
S'Chicago'
p412
sasg8
I410
sg9
S'Chicago'
p413
sa(dp414
g1
(lp415
(dp416
g8
I6
sg9
S'Washington_D.C.'
p417
sa(dp418
g8
I23
sg9
S'Washington_(state)'
p419
sa(dp420
g8
I25
sg9
S'Hawaii'
p421
sa(dp422
g8
I44
sg9
S'Illinois'
p423
sa(dp424
g8
I56
sg9
S'National_Park_Service'
p425
sa(dp426
g8
I58
sg9
S'Massachusetts'
p427
sa(dp428
g8
I81
sg9
S'U.S._state'
p429
sa(dp430
g8
I82
sg9
S'United_States_dollar'
p431
sa(dp432
g8
I88
sg9
S'Maryland'
p433
sa(dp434
g8
I89
sg9
S'Michigan'
p435
sa(dp436
g8
I91
sg9
S'Florida'
p437
sa(dp438
g8
I112
sg9
S'United_States_House_of_Representatives'
p439
sa(dp440
g8
I113
sg9
S'Federal_government_of_the_United_States'
p441
sa(dp442
g8
I124
sg9
S'United_States_Navy'
p443
sa(dp444
g8
I139
sg9
S'New_Jersey'
p445
sa(dp446
g8
I140
sg9
S'North_Carolina'
p447
sa(dp448
g8
I147
sg9
S'Ohio'
p449
sa(dp450
g8
I166
sg9
S'Pennsylvania'
p451
sa(dp452
g8
I176
sg9
S'United_States_Geological_Survey'
p453
sa(dp454
g8
I180
sg9
S'President_of_the_United_States'
p455
sa(dp456
g8
I183
sg9
S'Boston'
p457
sa(dp458
g8
I186
sg9
S'United_States_Senate'
p459
sa(dp460
g8
I218
sg9
S'Census_designated_place'
p461
sa(dp462
g8
I222
sg9
S'Race_and_ethnicity_in_the_United_States_Census'
p463
sa(dp464
g8
I235
sg9
S'Texas'
p465
sa(dp466
g8
I246
sg9
S'Supreme_Court_of_the_United_States'
p467
sa(dp468
g8
I248
sg9
S'United_States_Congress'
p469
sa(dp470
g8
I253
sg9
S'United_States_Army'
p471
sa(dp472
g8
I256
sg9
S'Virginia'
p473
sa(dp474
g8
I265
sg9
S'Washington_D.C.'
p475
sa(dp476
g8
I269
sg9
S'2010_United_States_Census'
p477
sa(dp478
g8
I274
sg9
S'Geographic_Names_Information_System'
p479
sa(dp480
g8
I301
sg9
S'2000_United_States_Census'
p481
sa(dp482
g8
I304
sg9
S'Political_divisions_of_the_United_States'
p483
sa(dp484
g8
I306
sg9
S'Census-designated_place'
p485
sa(dp486
g8
I315
sg9
S'Eastern_Time_Zone'
p487
sa(dp488
g8
I316
sg9
S'San_Francisco'
p489
sa(dp490
g8
I321
sg9
S'Democratic_Party_(United_States)'
p491
sa(dp492
g8
I322
sg9
S'Philadelphia'
p493
sa(dp494
g8
I325
sg9
S'County_seat'
p495
sa(dp496
g8
I326
sg9
S'ZIP_code'
p497
sa(dp498
g8
I343
sg9
S'California'
p499
sa(dp500
g8
I351
sg9
S'United_States_Census_Bureau'
p501
sa(dp502
g8
I388
sg9
S'New_York'
p503
sa(dp504
g8
I392
sg9
S'American_Civil_War'
p505
sasg8
I413
sg9
S'Washington_D.C.'
p506
sa(dp507
g1
(lp508
(dp509
g8
I7
sg9
S'Google'
p510
sa(dp511
g8
I19
sg9
S'Music_genre'
p512
sa(dp513
g8
I35
sg9
S'Internet'
p514
sa(dp515
g8
I40
sg9
S'Record_label'
p516
sa(dp517
g8
I55
sg9
S'Single_(music)'
p518
sa(dp519
g8
I78
sg9
S'Billboard_(magazine)'
p520
sa(dp521
g8
I90
sg9
S'Microsoft_Windows'
p522
sa(dp523
g8
I126
sg9
S'MusicBrainz'
p524
sa(dp525
g8
I135
sg9
S'Actor'
p526
sa(dp527
g8
I136
sg9
S'Film'
p528
sa(dp529
g8
I144
sg9
S'Studio_album'
p530
sa(dp531
g8
I145
sg9
S'Newspaper'
p532
sa(dp533
g8
I146
sg9
S'Operating_system'
p534
sa(dp535
g8
I163
sg9
S'Private_Use_Areas'
p536
sa(dp537
g8
I184
sg9
S'Pop_music'
p538
sa(dp539
g8
I189
sg9
S'Rock_music'
p540
sa(dp541
g8
I223
sg9
S'Los_Angeles_Times'
p542
sa(dp543
g8
I231
sg9
S'Internet_Movie_Database'
p544
sa(dp545
g8
I236
sg9
S'Television'
p546
sa(dp547
g8
I237
sg9
S'Wikilink'
p548
sa(dp549
g8
I244
sg9
S'Time_(magazine)'
p550
sa(dp551
g8
I251
sg9
S'University_of_California_Berkeley'
p552
sa(dp553
g8
I254
sg9
S'Uniform_resource_locator'
p554
sa(dp555
g8
I280
sg9
S'University_of_California_Berkeley'
p556
sa(dp557
g8
I284
sg9
S'H:S'
p558
sa(dp559
g8
I290
sg9
S'Allmusic'
p560
sa(dp561
g8
I300
sg9
S'Forward_(association_football)'
p562
sa(dp563
g8
I314
sg9
S'Hyperlink'
p564
sa(dp565
g8
I330
sg9
S'Chief_executive_officer'
p566
sa(dp567
g8
I334
sg9
S'Album'
p568
sa(dp569
g8
I336
sg9
S'Record_producer'
p570
sa(dp571
g8
I345
sg9
S'Midfielder'
p572
sa(dp573
g8
I364
sg9
S'Defender_(association_football)'
p574
sa(dp575
g8
I370
sg9
S'AllMusic'
p576
sa(dp577
g8
I374
sg9
S'Tributary'
p578
sa(dp579
g8
I389
sg9
S'Database'
p580
sa(dp581
g8
I390
sg9
S'Apple_Inc.'
p582
sa(dp583
g8
I394
sg9
S'Apple_Inc.'
p584
sa(dp585
g8
I395
sg9
S'Amazon.com'
p586
sa(dp587
g8
I404
sg9
S'Songwriter'
p588
sa(dp589
g8
I406
sg9
S'Twitter'
p590
sasg8
I414
sg9
S'Amazon.com'
p591
sa(dp592
g1
(lp593
(dp594
g8
I65
sg9
S'Melbourne'
p595
sa(dp596
g8
I74
sg9
S'London'
p597
sa(dp598
g8
I102
sg9
S'Moscow'
p599
sa(dp600
g8
I141
sg9
S'New_South_Wales'
p601
sa(dp602
g8
I150
sg9
S'Olympic_Games'
p603
sa(dp604
g8
I155
sg9
S'Paris'
p605
sa(dp606
g8
I193
sg9
S'Rome'
p607
sa(dp608
g8
I204
sg9
S'UTC+1'
p609
sa(dp610
g8
I210
sg9
S'Stockholm'
p611
sa(dp612
g8
I225
sg9
S'St._Louis'
p613
sa(dp614
g8
I229
sg9
S'Sydney'
p615
sa(dp616
g8
I239
sg9
S'Tokyo'
p617
sa(dp618
g8
I261
sg9
S'Berlin'
p619
sa(dp620
g8
I363
sg9
S'Toronto'
p621
sasg8
I418
sg9
S'Sydney'
p622
sasg8
I420
sg9
S'United_States'
p623
sa(dp624
g1
(lp625
(dp626
g1
(lp627
(dp628
g8
I5
sg9
S'French_language'
p629
sa(dp630
g8
I12
sg9
S'Persian_language'
p631
sa(dp632
g8
I14
sg9
S'German_language'
p633
sa(dp634
g8
I15
sg9
S'Greek_language'
p635
sa(dp636
g8
I18
sg9
S'Gmina'
p637
sa(dp638
g8
I22
sg9
S'Latin_language'
p639
sa(dp640
g8
I28
sg9
S'Hebrew_language'
p641
sa(dp642
g8
I39
sg9
S'Italian_language'
p643
sa(dp644
g8
I43
sg9
S'Ancient_Greek'
p645
sa(dp646
g8
I53
sg9
S'Japanese_language'
p647
sa(dp648
g8
I72
sg9
S'Latin'
p649
sa(dp650
g8
I76
sg9
S'Capital_city'
p651
sa(dp652
g8
I77
sg9
S'Language_family'
p653
sa(dp654
g8
I106
sg9
S'Administrative_divisions_of_Iran'
p655
sa(dp656
g8
I120
sg9
S'Dutch_language'
p657
sa(dp658
g8
I148
sg9
S'Ontario'
p659
sa(dp660
g8
I154
sg9
S'Polish_language'
p661
sa(dp662
g8
I170
sg9
S'Roman_Catholic_Church'
p663
sa(dp664
g8
I178
sg9
S'Portuguese_language'
p665
sa(dp666
g8
I185
sg9
S'Given_name'
p667
sa(dp668
g8
I190
sg9
S'Russian_language'
p669
sa(dp670
g8
I215
sg9
S'Spanish_language'
p671
sa(dp672
g8
I238
sg9
S'Turkish_language'
p673
sa(dp674
g8
I264
sg9
S'British_Columbia'
p675
sa(dp676
g8
I282
sg9
S'Noun'
p677
sa(dp678
g8
I283
sg9
S'Adjective'
p679
sa(dp680
g8
I285
sg9
S'Powiat'
p681
sa(dp682
g8
I292
sg9
S'Voivodeships_of_Poland'
p683
sa(dp684
g8
I295
sg9
S'Glottolog'
p685
sa(dp686
g8
I311
sg9
S'Oxford_University_Press'
p687
sa(dp688
g8
I335
sg9
S'Town'
p689
sa(dp690
g8
I340
sg9
S'Village'
p691
sa(dp692
g8
I341
sg9
S'City'
p693
sa(dp694
g8
I352
sg9
S'Chinese_language'
p695
sa(dp696
g8
I368
sg9
S'Census'
p697
sa(dp698
g8
I375
sg9
S'Nonprofit_organization'
p699
sa(dp700
g8
I384
sg9
S'Quebec'
p701
sa(dp702
g8
I385
sg9
S'Arabic_language'
p703
sa(dp704
g8
I391
sg9
S'English_language'
p705
sa(dp706
g8
I405
sg9
S'Member_of_parliament'
p707
sasg8
I412
sg9
S'Dutch_language'
p708
sa(dp709
g1
(lp710
(dp711
g8
I24
sg9
S'PubMed_Identifier'
p712
sa(dp713
g8
I30
sg9
S'Authority_control'
p714
sa(dp715
g8
I31
sg9
S'Bibcode'
p716
sa(dp717
g8
I45
sg9
S'ISO_3166'
p718
sa(dp719
g8
I47
sg9
S'Library_of_Congress_Control_Number'
p720
sa(dp721
g8
I48
sg9
S'International_Standard_Book_Number'
p722
sa(dp723
g8
I57
sg9
S'Singing'
p724
sa(dp725
g8
I71
sg9
S'Internet_Archive'
p726
sa(dp727
g8
I79
sg9
S'Harvard_University'
p728
sa(dp729
g8
I84
sg9
S'Mathematics'
p730
sa(dp731
g8
I92
sg9
S'Public_domain'
p732
sa(dp733
g8
I94
sg9
S'Library_of_Congress'
p734
sa(dp735
g8
I100
sg9
S'Geography'
p736
sa(dp737
g8
I119
sg9
S'Biblioth\xc3\xa8que_nationale_de_France'
p738
sa(dp739
g8
I121
sg9
S'Union_List_of_Artist_Names'
p740
sa(dp741
g8
I122
sg9
S'National_Library_of_the_Czech_Republic'
p742
sa(dp743
g8
I138
sg9
S'JSTOR'
p744
sa(dp745
g8
I152
sg9
S'Physics'
p746
sa(dp747
g8
I171
sg9
S'International_Standard_Serial_Number'
p748
sa(dp749
g8
I172
sg9
S'Wayback_Machine'
p750
sa(dp751
g8
I200
sg9
S'Encyclop\xc3\xa6dia_Britannica_Eleventh_Edition'
p752
sa(dp753
g8
I228
sg9
S'PubMed_Central'
p754
sa(dp755
g8
I262
sg9
S'Syst\xc3\xa8me_universitaire_de_documentation'
p756
sa(dp757
g8
I277
sg9
S'Integrated_Authority_File'
p758
sa(dp759
g8
I281
sg9
S'National_Diet_Library'
p760
sa(dp761
g8
I294
sg9
S'Wikisource'
p762
sa(dp763
g8
I296
sg9
S'Digital_object_identifier'
p764
sa(dp765
g8
I305
sg9
S'Copyright_status_of_work_by_the_U.S._government'
p766
sa(dp767
g8
I356
sg9
S'Sea_level'
p768
sa(dp769
g8
I376
sg9
S'Encyclop\xc3\xa6dia_Britannica_Eleventh_Edition'
p770
sa(dp771
g8
I377
sg9
S'Cambridge_University_Press'
p772
sa(dp773
g8
I393
sg9
S'OCLC'
p774
sa(dp775
g8
I397
sg9
S'Economics'
p776
sasg8
I417
sg9
S'Digital_object_identifier'
p777
sasg8
I421
sg9
S'Wikisource'
p778
sa(dp779
g1
(lp780
(dp781
g1
(lp782
(dp783
g8
I8
sg9
S'Animal'
p784
sa(dp785
g8
I50
sg9
S'IUCN_Red_List'
p786
sa(dp787
g8
I86
sg9
S'Mammal'
p788
sa(dp789
g8
I101
sg9
S'Flowering_plant'
p790
sa(dp791
g8
I115
sg9
S'Mollusca'
p792
sa(dp793
g8
I116
sg9
S'Arthropod'
p794
sa(dp795
g8
I117
sg9
S'Plant'
p796
sa(dp797
g8
I118
sg9
S'Plantae'
p798
sa(dp799
g8
I142
sg9
S'Species'
p800
sa(dp801
g8
I167
sg9
S'Insect'
p802
sa(dp803
g8
I168
sg9
S'Biological_classification'
p804
sa(dp805
g8
I175
sg9
S'Protein'
p806
sa(dp807
g8
I227
sg9
S'Eudicots'
p808
sa(dp809
g8
I266
sg9
S'Bird'
p810
sa(dp811
g8
I286
sg9
S'Genus'
p812
sa(dp813
g8
I289
sg9
S'Binomial_nomenclature'
p814
sa(dp815
g8
I293
sg9
S'Animalia'
p816
sa(dp817
g8
I297
sg9
S'Gene'
p818
sa(dp819
g8
I302
sg9
S'Angiosperms'
p820
sa(dp821
g8
I324
sg9
S'Chordate'
p822
sa(dp823
g8
I331
sg9
S'Carl_Linnaeus'
p824
sa(dp825
g8
I338
sg9
S'Lepidoptera'
p826
sa(dp827
g8
I349
sg9
S'Family_(biology)'
p828
sa(dp829
g8
I357
sg9
S'Human_Genome_Organisation'
p830
sa(dp831
g8
I365
sg9
S'Moth'
p832
sa(dp833
g8
I383
sg9
S'Chordata'
p834
sa(dp835
g8
I387
sg9
S'Synonym_(taxonomy)'
p836
sa(dp837
g8
I407
sg9
S'Wikispecies'
p838
sasg8
I415
sg9
S'Gene'
p839
sa(dp840
g1
(lp841
(dp842
g8
I10
sg9
S'ISO_4'
p843
sa(dp844
g8
I17
sg9
S'ISO/IEC_27000-series'
p845
sa(dp846
g8
I49
sg9
S'International_Organization_for_Standardization'
p847
sa(dp848
g8
I60
sg9
S'ISO_639'
p849
sa(dp850
g8
I61
sg9
S'Film_speed'
p851
sa(dp852
g8
I66
sg9
S'ISO_639-3'
p853
sa(dp854
g8
I87
sg9
S'International_Standard_Name_Identifier'
p855
sa(dp856
g8
I104
sg9
S'Library_catalog'
p857
sa(dp858
g8
I173
sg9
S'Pinyin'
p859
sa(dp860
g8
I179
sg9
S'Portable_Document_Format'
p861
sa(dp862
g8
I276
sg9
S'Wikidata'
p863
sa(dp864
g8
I318
sg9
S'PubMed'
p865
sasg8
I416
sg9
S'International_Standard_Name_Identifier'
p866
sasg8
I422
sg9
S'Insect'
p867
sasg8
I424
sg9
S'International_Standard_Book_Number'
p868
sasg8
I425
sg9
S'Europe'
p869
s(dp870
I0
(dp871
g8
I0
sg9
g10
ssI1
(dp872
g8
I1
sg9
g103
ssI2
(dp873
g8
I2
sg9
g348
ssI3
(dp874
g8
I3
sg9
g232
ssI4
(dp875
g8
I4
sg9
g12
ssI5
(dp876
g8
I5
sg9
g629
ssI6
(dp877
g8
I6
sg9
g417
ssI7
(dp878
g8
I7
sg9
g510
ssI8
(dp879
g8
I8
sg9
g784
ssI9
(dp880
g8
I9
sg9
g234
ssI10
(dp881
g8
I10
sg9
g843
ssI11
(dp882
g8
I11
sg9
g236
ssI12
(dp883
g8
I12
sg9
g631
ssI13
(dp884
g8
I13
sg9
g238
ssI14
(dp885
g8
I14
sg9
g633
ssI15
(dp886
g8
I15
sg9
g635
ssI16
(dp887
g8
I16
sg9
g14
ssI17
(dp888
g8
I17
sg9
g845
ssI18
(dp889
g8
I18
sg9
g637
ssI19
(dp890
g8
I19
sg9
g512
ssI20
(dp891
g8
I20
sg9
g105
ssI21
(dp892
g8
I21
sg9
g107
ssI22
(dp893
g8
I22
sg9
g639
ssI23
(dp894
g8
I23
sg9
g419
ssI24
(dp895
g8
I24
sg9
g712
ssI25
(dp896
g8
I25
sg9
g421
ssI26
(dp897
g8
I26
sg9
g16
ssI27
(dp898
g8
I27
sg9
g109
ssI28
(dp899
g8
I28
sg9
g641
ssI29
(dp900
g8
I29
sg9
g111
ssI30
(dp901
g8
I30
sg9
g714
ssI31
(dp902
g8
I31
sg9
g716
ssI32
(dp903
g8
I32
sg9
g18
ssI33
(dp904
g8
I33
sg9
g240
ssI34
(dp905
g8
I34
sg9
g113
ssI35
(dp906
g8
I35
sg9
g514
ssI36
(dp907
g8
I36
sg9
g242
ssI37
(dp908
g8
I37
sg9
g115
ssI38
(dp909
g8
I38
sg9
g117
ssI39
(dp910
g8
I39
sg9
g643
ssI40
(dp911
g8
I40
sg9
g516
ssI41
(dp912
g8
I41
sg9
g244
ssI42
(dp913
g8
I42
sg9
g350
ssI43
(dp914
g8
I43
sg9
g645
ssI44
(dp915
g8
I44
sg9
g423
ssI45
(dp916
g8
I45
sg9
g718
ssI46
(dp917
g8
I46
sg9
g119
ssI47
(dp918
g8
I47
sg9
g720
ssI48
(dp919
g8
I48
sg9
g722
ssI49
(dp920
g8
I49
sg9
g847
ssI50
(dp921
g8
I50
sg9
g786
ssI51
(dp922
g8
I51
sg9
g20
ssI52
(dp923
g8
I52
sg9
g246
ssI53
(dp924
g8
I53
sg9
g647
ssI54
(dp925
g8
I54
sg9
g352
ssI55
(dp926
g8
I55
sg9
g518
ssI56
(dp927
g8
I56
sg9
g425
ssI57
(dp928
g8
I57
sg9
g724
ssI58
(dp929
g8
I58
sg9
g427
ssI59
(dp930
g8
I59
sg9
g248
ssI60
(dp931
g8
I60
sg9
g849
ssI61
(dp932
g8
I61
sg9
g851
ssI62
(dp933
g8
I62
sg9
g354
ssI63
(dp934
g8
I63
sg9
g22
ssI64
(dp935
g8
I64
sg9
g121
ssI65
(dp936
g8
I65
sg9
g595
ssI66
(dp937
g8
I66
sg9
g853
ssI67
(dp938
g8
I67
sg9
g123
ssI68
(dp939
g8
I68
sg9
g24
ssI69
(dp940
g8
I69
sg9
g26
ssI70
(dp941
g8
I70
sg9
g28
ssI71
(dp942
g8
I71
sg9
g726
ssI72
(dp943
g8
I72
sg9
g649
ssI73
(dp944
g8
I73
sg9
g125
ssI74
(dp945
g8
I74
sg9
g597
ssI75
(dp946
g8
I75
sg9
g356
ssI76
(dp947
g8
I76
sg9
g651
ssI77
(dp948
g8
I77
sg9
g653
ssI78
(dp949
g8
I78
sg9
g520
ssI79
(dp950
g8
I79
sg9
g728
ssI80
(dp951
g8
I80
sg9
g358
ssI81
(dp952
g8
I81
sg9
g429
ssI82
(dp953
g8
I82
sg9
g431
ssI83
(dp954
g8
I83
sg9
g127
ssI84
(dp955
g8
I84
sg9
g730
ssI85
(dp956
g8
I85
sg9
g30
ssI86
(dp957
g8
I86
sg9
g788
ssI87
(dp958
g8
I87
sg9
g855
ssI88
(dp959
g8
I88
sg9
g433
ssI89
(dp960
g8
I89
sg9
g435
ssI90
(dp961
g8
I90
sg9
g522
ssI91
(dp962
g8
I91
sg9
g437
ssI92
(dp963
g8
I92
sg9
g732
ssI93
(dp964
g8
I93
sg9
g360
ssI94
(dp965
g8
I94
sg9
g734
ssI95
(dp966
g8
I95
sg9
g250
ssI96
(dp967
g8
I96
sg9
g362
ssI97
(dp968
g8
I97
sg9
g364
ssI98
(dp969
g8
I98
sg9
g252
ssI99
(dp970
g8
I99
sg9
g129
ssI100
(dp971
g8
I100
sg9
g736
ssI101
(dp972
g8
I101
sg9
g790
ssI102
(dp973
g8
I102
sg9
g599
ssI103
(dp974
g8
I103
sg9
g254
ssI104
(dp975
g8
I104
sg9
g857
ssI105
(dp976
g8
I105
sg9
g131
ssI106
(dp977
g8
I106
sg9
g655
ssI107
(dp978
g8
I107
sg9
g133
ssI108
(dp979
g8
I108
sg9
g256
ssI109
(dp980
g8
I109
sg9
g135
ssI110
(dp981
g8
I110
sg9
g137
ssI111
(dp982
g8
I111
sg9
g139
ssI112
(dp983
g8
I112
sg9
g439
ssI113
(dp984
g8
I113
sg9
g441
ssI114
(dp985
g8
I114
sg9
g258
ssI115
(dp986
g8
I115
sg9
g792
ssI116
(dp987
g8
I116
sg9
g794
ssI117
(dp988
g8
I117
sg9
g796
ssI118
(dp989
g8
I118
sg9
g798
ssI119
(dp990
g8
I119
sg9
g738
ssI120
(dp991
g8
I120
sg9
g657
ssI121
(dp992
g8
I121
sg9
g740
ssI122
(dp993
g8
I122
sg9
g742
ssI123
(dp994
g8
I123
sg9
g260
ssI124
(dp995
g8
I124
sg9
g443
ssI125
(dp996
g8
I125
sg9
g32
ssI126
(dp997
g8
I126
sg9
g524
ssI127
(dp998
g8
I127
sg9
g366
ssI128
(dp999
g8
I128
sg9
g262
ssI129
(dp1000
g8
I129
sg9
g34
ssI130
(dp1001
g8
I130
sg9
g36
ssI131
(dp1002
g8
I131
sg9
g38
ssI132
(dp1003
g8
I132
sg9
g141
ssI133
(dp1004
g8
I133
sg9
g143
ssI134
(dp1005
g8
I134
sg9
g264
ssI135
(dp1006
g8
I135
sg9
g526
ssI136
(dp1007
g8
I136
sg9
g528
ssI137
(dp1008
g8
I137
sg9
g368
ssI138
(dp1009
g8
I138
sg9
g744
ssI139
(dp1010
g8
I139
sg9
g445
ssI140
(dp1011
g8
I140
sg9
g447
ssI141
(dp1012
g8
I141
sg9
g601
ssI142
(dp1013
g8
I142
sg9
g800
ssI143
(dp1014
g8
I143
sg9
g266
ssI144
(dp1015
g8
I144
sg9
g530
ssI145
(dp1016
g8
I145
sg9
g532
ssI146
(dp1017
g8
I146
sg9
g534
ssI147
(dp1018
g8
I147
sg9
g449
ssI148
(dp1019
g8
I148
sg9
g659
ssI149
(dp1020
g8
I149
sg9
g40
ssI150
(dp1021
g8
I150
sg9
g603
ssI151
(dp1022
g8
I151
sg9
g42
ssI152
(dp1023
g8
I152
sg9
g746
ssI153
(dp1024
g8
I153
sg9
g145
ssI154
(dp1025
g8
I154
sg9
g661
ssI155
(dp1026
g8
I155
sg9
g605
ssI156
(dp1027
g8
I156
sg9
g268
ssI157
(dp1028
g8
I157
sg9
g370
ssI158
(dp1029
g8
I158
sg9
g147
ssI159
(dp1030
g8
I159
sg9
g44
ssI160
(dp1031
g8
I160
sg9
g372
ssI161
(dp1032
g8
I161
sg9
g46
ssI162
(dp1033
g8
I162
sg9
g48
ssI163
(dp1034
g8
I163
sg9
g536
ssI164
(dp1035
g8
I164
sg9
g270
ssI165
(dp1036
g8
I165
sg9
g149
ssI166
(dp1037
g8
I166
sg9
g451
ssI167
(dp1038
g8
I167
sg9
g802
ssI168
(dp1039
g8
I168
sg9
g804
ssI169
(dp1040
g8
I169
sg9
g151
ssI170
(dp1041
g8
I170
sg9
g663
ssI171
(dp1042
g8
I171
sg9
g748
ssI172
(dp1043
g8
I172
sg9
g750
ssI173
(dp1044
g8
I173
sg9
g859
ssI174
(dp1045
g8
I174
sg9
g153
ssI175
(dp1046
g8
I175
sg9
g806
ssI176
(dp1047
g8
I176
sg9
g453
ssI177
(dp1048
g8
I177
sg9
g374
ssI178
(dp1049
g8
I178
sg9
g665
ssI179
(dp1050
g8
I179
sg9
g861
ssI180
(dp1051
g8
I180
sg9
g455
ssI181
(dp1052
g8
I181
sg9
g376
ssI182
(dp1053
g8
I182
sg9
g272
ssI183
(dp1054
g8
I183
sg9
g457
ssI184
(dp1055
g8
I184
sg9
g538
ssI185
(dp1056
g8
I185
sg9
g667
ssI186
(dp1057
g8
I186
sg9
g459
ssI187
(dp1058
g8
I187
sg9
g378
ssI188
(dp1059
g8
I188
sg9
g274
ssI189
(dp1060
g8
I189
sg9
g540
ssI190
(dp1061
g8
I190
sg9
g669
ssI191
(dp1062
g8
I191
sg9
g50
ssI192
(dp1063
g8
I192
sg9
g276
ssI193
(dp1064
g8
I193
sg9
g607
ssI194
(dp1065
g8
I194
sg9
g278
ssI195
(dp1066
g8
I195
sg9
g52
ssI196
(dp1067
g8
I196
sg9
g155
ssI197
(dp1068
g8
I197
sg9
g157
ssI198
(dp1069
g8
I198
sg9
g280
ssI199
(dp1070
g8
I199
sg9
g282
ssI200
(dp1071
g8
I200
sg9
g752
ssI201
(dp1072
g8
I201
sg9
g159
ssI202
(dp1073
g8
I202
sg9
g161
ssI203
(dp1074
g8
I203
sg9
g163
ssI204
(dp1075
g8
I204
sg9
g609
ssI205
(dp1076
g8
I205
sg9
g54
ssI206
(dp1077
g8
I206
sg9
g56
ssI207
(dp1078
g8
I207
sg9
g380
ssI208
(dp1079
g8
I208
sg9
g165
ssI209
(dp1080
g8
I209
sg9
g284
ssI210
(dp1081
g8
I210
sg9
g611
ssI211
(dp1082
g8
I211
sg9
g58
ssI212
(dp1083
g8
I212
sg9
g167
ssI213
(dp1084
g8
I213
sg9
g169
ssI214
(dp1085
g8
I214
sg9
g286
ssI215
(dp1086
g8
I215
sg9
g671
ssI216
(dp1087
g8
I216
sg9
g60
ssI217
(dp1088
g8
I217
sg9
g62
ssI218
(dp1089
g8
I218
sg9
g461
ssI219
(dp1090
g8
I219
sg9
g171
ssI220
(dp1091
g8
I220
sg9
g173
ssI221
(dp1092
g8
I221
sg9
g175
ssI222
(dp1093
g8
I222
sg9
g463
ssI223
(dp1094
g8
I223
sg9
g542
ssI224
(dp1095
g8
I224
sg9
g64
ssI225
(dp1096
g8
I225
sg9
g613
ssI226
(dp1097
g8
I226
sg9
g66
ssI227
(dp1098
g8
I227
sg9
g808
ssI228
(dp1099
g8
I228
sg9
g754
ssI229
(dp1100
g8
I229
sg9
g615
ssI230
(dp1101
g8
I230
sg9
g68
ssI231
(dp1102
g8
I231
sg9
g544
ssI232
(dp1103
g8
I232
sg9
g382
ssI233
(dp1104
g8
I233
sg9
g384
ssI234
(dp1105
g8
I234
sg9
g70
ssI235
(dp1106
g8
I235
sg9
g465
ssI236
(dp1107
g8
I236
sg9
g546
ssI237
(dp1108
g8
I237
sg9
g548
ssI238
(dp1109
g8
I238
sg9
g673
ssI239
(dp1110
g8
I239
sg9
g617
ssI240
(dp1111
g8
I240
sg9
g177
ssI241
(dp1112
g8
I241
sg9
g386
ssI242
(dp1113
g8
I242
sg9
g388
ssI243
(dp1114
g8
I243
sg9
g390
ssI244
(dp1115
g8
I244
sg9
g550
ssI245
(dp1116
g8
I245
sg9
g288
ssI246
(dp1117
g8
I246
sg9
g467
ssI247
(dp1118
g8
I247
sg9
g72
ssI248
(dp1119
g8
I248
sg9
g469
ssI249
(dp1120
g8
I249
sg9
g290
ssI250
(dp1121
g8
I250
sg9
g292
ssI251
(dp1122
g8
I251
sg9
g552
ssI252
(dp1123
g8
I252
sg9
g392
ssI253
(dp1124
g8
I253
sg9
g471
ssI254
(dp1125
g8
I254
sg9
g554
ssI255
(dp1126
g8
I255
sg9
g179
ssI256
(dp1127
g8
I256
sg9
g473
ssI257
(dp1128
g8
I257
sg9
g181
ssI258
(dp1129
g8
I258
sg9
g294
ssI259
(dp1130
g8
I259
sg9
g183
ssI260
(dp1131
g8
I260
sg9
g74
ssI261
(dp1132
g8
I261
sg9
g619
ssI262
(dp1133
g8
I262
sg9
g756
ssI263
(dp1134
g8
I263
sg9
g185
ssI264
(dp1135
g8
I264
sg9
g675
ssI265
(dp1136
g8
I265
sg9
g475
ssI266
(dp1137
g8
I266
sg9
g810
ssI267
(dp1138
g8
I267
sg9
g76
ssI268
(dp1139
g8
I268
sg9
g394
ssI269
(dp1140
g8
I269
sg9
g477
ssI270
(dp1141
g8
I270
sg9
g187
ssI271
(dp1142
g8
I271
sg9
g78
ssI272
(dp1143
g8
I272
sg9
g80
ssI273
(dp1144
g8
I273
sg9
g189
ssI274
(dp1145
g8
I274
sg9
g479
ssI275
(dp1146
g8
I275
sg9
g296
ssI276
(dp1147
g8
I276
sg9
g863
ssI277
(dp1148
g8
I277
sg9
g758
ssI278
(dp1149
g8
I278
sg9
g298
ssI279
(dp1150
g8
I279
sg9
g191
ssI280
(dp1151
g8
I280
sg9
g556
ssI281
(dp1152
g8
I281
sg9
g760
ssI282
(dp1153
g8
I282
sg9
g677
ssI283
(dp1154
g8
I283
sg9
g679
ssI284
(dp1155
g8
I284
sg9
g558
ssI285
(dp1156
g8
I285
sg9
g681
ssI286
(dp1157
g8
I286
sg9
g812
ssI287
(dp1158
g8
I287
sg9
g396
ssI288
(dp1159
g8
I288
sg9
g193
ssI289
(dp1160
g8
I289
sg9
g814
ssI290
(dp1161
g8
I290
sg9
g560
ssI291
(dp1162
g8
I291
sg9
g300
ssI292
(dp1163
g8
I292
sg9
g683
ssI293
(dp1164
g8
I293
sg9
g816
ssI294
(dp1165
g8
I294
sg9
g762
ssI295
(dp1166
g8
I295
sg9
g685
ssI296
(dp1167
g8
I296
sg9
g764
ssI297
(dp1168
g8
I297
sg9
g818
ssI298
(dp1169
g8
I298
sg9
g195
ssI299
(dp1170
g8
I299
sg9
g197
ssI300
(dp1171
g8
I300
sg9
g562
ssI301
(dp1172
g8
I301
sg9
g481
ssI302
(dp1173
g8
I302
sg9
g820
ssI303
(dp1174
g8
I303
sg9
g398
ssI304
(dp1175
g8
I304
sg9
g483
ssI305
(dp1176
g8
I305
sg9
g766
ssI306
(dp1177
g8
I306
sg9
g485
ssI307
(dp1178
g8
I307
sg9
g302
ssI308
(dp1179
g8
I308
sg9
g304
ssI309
(dp1180
g8
I309
sg9
g306
ssI310
(dp1181
g8
I310
sg9
g400
ssI311
(dp1182
g8
I311
sg9
g687
ssI312
(dp1183
g8
I312
sg9
g308
ssI313
(dp1184
g8
I313
sg9
g199
ssI314
(dp1185
g8
I314
sg9
g564
ssI315
(dp1186
g8
I315
sg9
g487
ssI316
(dp1187
g8
I316
sg9
g489
ssI317
(dp1188
g8
I317
sg9
g402
ssI318
(dp1189
g8
I318
sg9
g865
ssI319
(dp1190
g8
I319
sg9
g201
ssI320
(dp1191
g8
I320
sg9
g203
ssI321
(dp1192
g8
I321
sg9
g491
ssI322
(dp1193
g8
I322
sg9
g493
ssI323
(dp1194
g8
I323
sg9
g82
ssI324
(dp1195
g8
I324
sg9
g822
ssI325
(dp1196
g8
I325
sg9
g495
ssI326
(dp1197
g8
I326
sg9
g497
ssI327
(dp1198
g8
I327
sg9
g310
ssI328
(dp1199
g8
I328
sg9
g84
ssI329
(dp1200
g8
I329
sg9
g205
ssI330
(dp1201
g8
I330
sg9
g566
ssI331
(dp1202
g8
I331
sg9
g824
ssI332
(dp1203
g8
I332
sg9
g312
ssI333
(dp1204
g8
I333
sg9
g86
ssI334
(dp1205
g8
I334
sg9
g568
ssI335
(dp1206
g8
I335
sg9
g689
ssI336
(dp1207
g8
I336
sg9
g570
ssI337
(dp1208
g8
I337
sg9
g88
ssI338
(dp1209
g8
I338
sg9
g826
ssI339
(dp1210
g8
I339
sg9
g207
ssI340
(dp1211
g8
I340
sg9
g691
ssI341
(dp1212
g8
I341
sg9
g693
ssI342
(dp1213
g8
I342
sg9
g209
ssI343
(dp1214
g8
I343
sg9
g499
ssI344
(dp1215
g8
I344
sg9
g211
ssI345
(dp1216
g8
I345
sg9
g572
ssI346
(dp1217
g8
I346
sg9
g90
ssI347
(dp1218
g8
I347
sg9
g92
ssI348
(dp1219
g8
I348
sg9
g314
ssI349
(dp1220
g8
I349
sg9
g828
ssI350
(dp1221
g8
I350
sg9
g213
ssI351
(dp1222
g8
I351
sg9
g501
ssI352
(dp1223
g8
I352
sg9
g695
ssI353
(dp1224
g8
I353
sg9
g316
ssI354
(dp1225
g8
I354
sg9
g318
ssI355
(dp1226
g8
I355
sg9
g320
ssI356
(dp1227
g8
I356
sg9
g768
ssI357
(dp1228
g8
I357
sg9
g830
ssI358
(dp1229
g8
I358
sg9
g215
ssI359
(dp1230
g8
I359
sg9
g404
ssI360
(dp1231
g8
I360
sg9
g406
ssI361
(dp1232
g8
I361
sg9
g408
ssI362
(dp1233
g8
I362
sg9
g410
ssI363
(dp1234
g8
I363
sg9
g621
ssI364
(dp1235
g8
I364
sg9
g574
ssI365
(dp1236
g8
I365
sg9
g832
ssI366
(dp1237
g8
I366
sg9
g322
ssI367
(dp1238
g8
I367
sg9
g412
ssI368
(dp1239
g8
I368
sg9
g697
ssI369
(dp1240
g8
I369
sg9
g324
ssI370
(dp1241
g8
I370
sg9
g576
ssI371
(dp1242
g8
I371
sg9
g217
ssI372
(dp1243
g8
I372
sg9
g219
ssI373
(dp1244
g8
I373
sg9
g326
ssI374
(dp1245
g8
I374
sg9
g578
ssI375
(dp1246
g8
I375
sg9
g699
ssI376
(dp1247
g8
I376
sg9
g770
ssI377
(dp1248
g8
I377
sg9
g772
ssI378
(dp1249
g8
I378
sg9
g221
ssI379
(dp1250
g8
I379
sg9
g328
ssI380
(dp1251
g8
I380
sg9
g330
ssI381
(dp1252
g8
I381
sg9
g223
ssI382
(dp1253
g8
I382
sg9
g94
ssI383
(dp1254
g8
I383
sg9
g834
ssI384
(dp1255
g8
I384
sg9
g701
ssI385
(dp1256
g8
I385
sg9
g703
ssI386
(dp1257
g8
I386
sg9
g332
ssI387
(dp1258
g8
I387
sg9
g836
ssI388
(dp1259
g8
I388
sg9
g503
ssI389
(dp1260
g8
I389
sg9
g580
ssI390
(dp1261
g8
I390
sg9
g582
ssI391
(dp1262
g8
I391
sg9
g705
ssI392
(dp1263
g8
I392
sg9
g505
ssI393
(dp1264
g8
I393
sg9
g774
ssI394
(dp1265
g8
I394
sg9
g584
ssI395
(dp1266
g8
I395
sg9
g586
ssI396
(dp1267
g8
I396
sg9
g96
ssI397
(dp1268
g8
I397
sg9
g776
ssI398
(dp1269
g8
I398
sg9
g225
ssI399
(dp1270
g8
I399
sg9
g98
ssI400
(dp1271
g8
I400
sg9
g334
ssI401
(dp1272
g8
I401
sg9
g336
ssI402
(dp1273
g8
I402
sg9
g227
ssI403
(dp1274
g8
I403
sg9
g338
ssI404
(dp1275
g8
I404
sg9
g588
ssI405
(dp1276
g8
I405
sg9
g707
ssI406
(dp1277
g8
I406
sg9
g590
ssI407
(dp1278
g8
I407
sg9
g838
ssI408
(dp1279
g1
(lp1280
(dp1281
g8
I0
sg9
g10
sa(dp1282
g8
I4
sg9
g12
sa(dp1283
g8
I16
sg9
g14
sa(dp1284
g8
I26
sg9
g16
sa(dp1285
g8
I32
sg9
g18
sa(dp1286
g8
I51
sg9
g20
sa(dp1287
g8
I63
sg9
g22
sa(dp1288
g8
I68
sg9
g24
sa(dp1289
g8
I69
sg9
g26
sa(dp1290
g8
I70
sg9
g28
sa(dp1291
g8
I85
sg9
g30
sa(dp1292
g8
I125
sg9
g32
sa(dp1293
g8
I129
sg9
g34
sa(dp1294
g8
I130
sg9
g36
sa(dp1295
g8
I131
sg9
g38
sa(dp1296
g8
I149
sg9
g40
sa(dp1297
g8
I151
sg9
g42
sa(dp1298
g8
I159
sg9
g44
sa(dp1299
g8
I161
sg9
g46
sa(dp1300
g8
I162
sg9
g48
sa(dp1301
g8
I191
sg9
g50
sa(dp1302
g8
I195
sg9
g52
sa(dp1303
g8
I205
sg9
g54
sa(dp1304
g8
I206
sg9
g56
sa(dp1305
g8
I211
sg9
g58
sa(dp1306
g8
I216
sg9
g60
sa(dp1307
g8
I217
sg9
g62
sa(dp1308
g8
I224
sg9
g64
sa(dp1309
g8
I226
sg9
g66
sa(dp1310
g8
I230
sg9
g68
sa(dp1311
g8
I234
sg9
g70
sa(dp1312
g8
I247
sg9
g72
sa(dp1313
g8
I260
sg9
g74
sa(dp1314
g8
I267
sg9
g76
sa(dp1315
g8
I271
sg9
g78
sa(dp1316
g8
I272
sg9
g80
sa(dp1317
g8
I323
sg9
g82
sa(dp1318
g8
I328
sg9
g84
sa(dp1319
g8
I333
sg9
g86
sa(dp1320
g8
I337
sg9
g88
sa(dp1321
g8
I346
sg9
g90
sa(dp1322
g8
I347
sg9
g92
sa(dp1323
g8
I382
sg9
g94
sa(dp1324
g8
I396
sg9
g96
sa(dp1325
g8
I399
sg9
g98
sasg8
I408
sg9
g99
ssI409
(dp1326
g1
(lp1327
(dp1328
g8
I1
sg9
g103
sa(dp1329
g8
I20
sg9
g105
sa(dp1330
g8
I21
sg9
g107
sa(dp1331
g8
I27
sg9
g109
sa(dp1332
g8
I29
sg9
g111
sa(dp1333
g8
I34
sg9
g113
sa(dp1334
g8
I37
sg9
g115
sa(dp1335
g8
I38
sg9
g117
sa(dp1336
g8
I46
sg9
g119
sa(dp1337
g8
I64
sg9
g121
sa(dp1338
g8
I67
sg9
g123
sa(dp1339
g8
I73
sg9
g125
sa(dp1340
g8
I83
sg9
g127
sa(dp1341
g8
I99
sg9
g129
sa(dp1342
g8
I105
sg9
g131
sa(dp1343
g8
I107
sg9
g133
sa(dp1344
g8
I109
sg9
g135
sa(dp1345
g8
I110
sg9
g137
sa(dp1346
g8
I111
sg9
g139
sa(dp1347
g8
I132
sg9
g141
sa(dp1348
g8
I133
sg9
g143
sa(dp1349
g8
I153
sg9
g145
sa(dp1350
g8
I158
sg9
g147
sa(dp1351
g8
I165
sg9
g149
sa(dp1352
g8
I169
sg9
g151
sa(dp1353
g8
I174
sg9
g153
sa(dp1354
g8
I196
sg9
g155
sa(dp1355
g8
I197
sg9
g157
sa(dp1356
g8
I201
sg9
g159
sa(dp1357
g8
I202
sg9
g161
sa(dp1358
g8
I203
sg9
g163
sa(dp1359
g8
I208
sg9
g165
sa(dp1360
g8
I212
sg9
g167
sa(dp1361
g8
I213
sg9
g169
sa(dp1362
g8
I219
sg9
g171
sa(dp1363
g8
I220
sg9
g173
sa(dp1364
g8
I221
sg9
g175
sa(dp1365
g8
I240
sg9
g177
sa(dp1366
g8
I255
sg9
g179
sa(dp1367
g8
I257
sg9
g181
sa(dp1368
g8
I259
sg9
g183
sa(dp1369
g8
I263
sg9
g185
sa(dp1370
g8
I270
sg9
g187
sa(dp1371
g8
I273
sg9
g189
sa(dp1372
g8
I279
sg9
g191
sa(dp1373
g8
I288
sg9
g193
sa(dp1374
g8
I298
sg9
g195
sa(dp1375
g8
I299
sg9
g197
sa(dp1376
g8
I313
sg9
g199
sa(dp1377
g8
I319
sg9
g201
sa(dp1378
g8
I320
sg9
g203
sa(dp1379
g8
I329
sg9
g205
sa(dp1380
g8
I339
sg9
g207
sa(dp1381
g8
I342
sg9
g209
sa(dp1382
g8
I344
sg9
g211
sa(dp1383
g8
I350
sg9
g213
sa(dp1384
g8
I358
sg9
g215
sa(dp1385
g8
I371
sg9
g217
sa(dp1386
g8
I372
sg9
g219
sa(dp1387
g8
I378
sg9
g221
sa(dp1388
g8
I381
sg9
g223
sa(dp1389
g8
I398
sg9
g225
sa(dp1390
g8
I402
sg9
g227
sasg8
I409
sg9
g228
ssI410
(dp1391
g1
(lp1392
(dp1393
g8
I2
sg9
g348
sa(dp1394
g8
I42
sg9
g350
sa(dp1395
g8
I54
sg9
g352
sa(dp1396
g8
I62
sg9
g354
sa(dp1397
g8
I75
sg9
g356
sa(dp1398
g8
I80
sg9
g358
sa(dp1399
g8
I93
sg9
g360
sa(dp1400
g8
I96
sg9
g362
sa(dp1401
g8
I97
sg9
g364
sa(dp1402
g8
I127
sg9
g366
sa(dp1403
g8
I137
sg9
g368
sa(dp1404
g8
I157
sg9
g370
sa(dp1405
g8
I160
sg9
g372
sa(dp1406
g8
I177
sg9
g374
sa(dp1407
g8
I181
sg9
g376
sa(dp1408
g8
I187
sg9
g378
sa(dp1409
g8
I207
sg9
g380
sa(dp1410
g8
I232
sg9
g382
sa(dp1411
g8
I233
sg9
g384
sa(dp1412
g8
I241
sg9
g386
sa(dp1413
g8
I242
sg9
g388
sa(dp1414
g8
I243
sg9
g390
sa(dp1415
g8
I252
sg9
g392
sa(dp1416
g8
I268
sg9
g394
sa(dp1417
g8
I287
sg9
g396
sa(dp1418
g8
I303
sg9
g398
sa(dp1419
g8
I310
sg9
g400
sa(dp1420
g8
I317
sg9
g402
sa(dp1421
g8
I359
sg9
g404
sa(dp1422
g8
I360
sg9
g406
sa(dp1423
g8
I361
sg9
g408
sa(dp1424
g8
I362
sg9
g410
sa(dp1425
g8
I367
sg9
g412
sasg8
I410
sg9
g413
ssI411
(dp1426
g1
(lp1427
(dp1428
g8
I3
sg9
g232
sa(dp1429
g8
I9
sg9
g234
sa(dp1430
g8
I11
sg9
g236
sa(dp1431
g8
I13
sg9
g238
sa(dp1432
g8
I33
sg9
g240
sa(dp1433
g8
I36
sg9
g242
sa(dp1434
g8
I41
sg9
g244
sa(dp1435
g8
I52
sg9
g246
sa(dp1436
g8
I59
sg9
g248
sa(dp1437
g8
I95
sg9
g250
sa(dp1438
g8
I98
sg9
g252
sa(dp1439
g8
I103
sg9
g254
sa(dp1440
g8
I108
sg9
g256
sa(dp1441
g8
I114
sg9
g258
sa(dp1442
g8
I123
sg9
g260
sa(dp1443
g8
I128
sg9
g262
sa(dp1444
g8
I134
sg9
g264
sa(dp1445
g8
I143
sg9
g266
sa(dp1446
g8
I156
sg9
g268
sa(dp1447
g8
I164
sg9
g270
sa(dp1448
g8
I182
sg9
g272
sa(dp1449
g8
I188
sg9
g274
sa(dp1450
g8
I192
sg9
g276
sa(dp1451
g8
I194
sg9
g278
sa(dp1452
g8
I198
sg9
g280
sa(dp1453
g8
I199
sg9
g282
sa(dp1454
g8
I209
sg9
g284
sa(dp1455
g8
I214
sg9
g286
sa(dp1456
g8
I245
sg9
g288
sa(dp1457
g8
I249
sg9
g290
sa(dp1458
g8
I250
sg9
g292
sa(dp1459
g8
I258
sg9
g294
sa(dp1460
g8
I275
sg9
g296
sa(dp1461
g8
I278
sg9
g298
sa(dp1462
g8
I291
sg9
g300
sa(dp1463
g8
I307
sg9
g302
sa(dp1464
g8
I308
sg9
g304
sa(dp1465
g8
I309
sg9
g306
sa(dp1466
g8
I312
sg9
g308
sa(dp1467
g8
I327
sg9
g310
sa(dp1468
g8
I332
sg9
g312
sa(dp1469
g8
I348
sg9
g314
sa(dp1470
g8
I353
sg9
g316
sa(dp1471
g8
I354
sg9
g318
sa(dp1472
g8
I355
sg9
g320
sa(dp1473
g8
I366
sg9
g322
sa(dp1474
g8
I369
sg9
g324
sa(dp1475
g8
I373
sg9
g326
sa(dp1476
g8
I379
sg9
g328
sa(dp1477
g8
I380
sg9
g330
sa(dp1478
g8
I386
sg9
g332
sa(dp1479
g8
I400
sg9
g334
sa(dp1480
g8
I401
sg9
g336
sa(dp1481
g8
I403
sg9
g338
sasg8
I411
sg9
g339
ssI412
(dp1482
g1
(lp1483
(dp1484
g8
I5
sg9
g629
sa(dp1485
g8
I12
sg9
g631
sa(dp1486
g8
I14
sg9
g633
sa(dp1487
g8
I15
sg9
g635
sa(dp1488
g8
I18
sg9
g637
sa(dp1489
g8
I22
sg9
g639
sa(dp1490
g8
I28
sg9
g641
sa(dp1491
g8
I39
sg9
g643
sa(dp1492
g8
I43
sg9
g645
sa(dp1493
g8
I53
sg9
g647
sa(dp1494
g8
I72
sg9
g649
sa(dp1495
g8
I76
sg9
g651
sa(dp1496
g8
I77
sg9
g653
sa(dp1497
g8
I106
sg9
g655
sa(dp1498
g8
I120
sg9
g657
sa(dp1499
g8
I148
sg9
g659
sa(dp1500
g8
I154
sg9
g661
sa(dp1501
g8
I170
sg9
g663
sa(dp1502
g8
I178
sg9
g665
sa(dp1503
g8
I185
sg9
g667
sa(dp1504
g8
I190
sg9
g669
sa(dp1505
g8
I215
sg9
g671
sa(dp1506
g8
I238
sg9
g673
sa(dp1507
g8
I264
sg9
g675
sa(dp1508
g8
I282
sg9
g677
sa(dp1509
g8
I283
sg9
g679
sa(dp1510
g8
I285
sg9
g681
sa(dp1511
g8
I292
sg9
g683
sa(dp1512
g8
I295
sg9
g685
sa(dp1513
g8
I311
sg9
g687
sa(dp1514
g8
I335
sg9
g689
sa(dp1515
g8
I340
sg9
g691
sa(dp1516
g8
I341
sg9
g693
sa(dp1517
g8
I352
sg9
g695
sa(dp1518
g8
I368
sg9
g697
sa(dp1519
g8
I375
sg9
g699
sa(dp1520
g8
I384
sg9
g701
sa(dp1521
g8
I385
sg9
g703
sa(dp1522
g8
I391
sg9
g705
sa(dp1523
g8
I405
sg9
g707
sasg8
I412
sg9
g708
ssI413
(dp1524
g1
(lp1525
(dp1526
g8
I6
sg9
g417
sa(dp1527
g8
I23
sg9
g419
sa(dp1528
g8
I25
sg9
g421
sa(dp1529
g8
I44
sg9
g423
sa(dp1530
g8
I56
sg9
g425
sa(dp1531
g8
I58
sg9
g427
sa(dp1532
g8
I81
sg9
g429
sa(dp1533
g8
I82
sg9
g431
sa(dp1534
g8
I88
sg9
g433
sa(dp1535
g8
I89
sg9
g435
sa(dp1536
g8
I91
sg9
g437
sa(dp1537
g8
I112
sg9
g439
sa(dp1538
g8
I113
sg9
g441
sa(dp1539
g8
I124
sg9
g443
sa(dp1540
g8
I139
sg9
g445
sa(dp1541
g8
I140
sg9
g447
sa(dp1542
g8
I147
sg9
g449
sa(dp1543
g8
I166
sg9
g451
sa(dp1544
g8
I176
sg9
g453
sa(dp1545
g8
I180
sg9
g455
sa(dp1546
g8
I183
sg9
g457
sa(dp1547
g8
I186
sg9
g459
sa(dp1548
g8
I218
sg9
g461
sa(dp1549
g8
I222
sg9
g463
sa(dp1550
g8
I235
sg9
g465
sa(dp1551
g8
I246
sg9
g467
sa(dp1552
g8
I248
sg9
g469
sa(dp1553
g8
I253
sg9
g471
sa(dp1554
g8
I256
sg9
g473
sa(dp1555
g8
I265
sg9
g475
sa(dp1556
g8
I269
sg9
g477
sa(dp1557
g8
I274
sg9
g479
sa(dp1558
g8
I301
sg9
g481
sa(dp1559
g8
I304
sg9
g483
sa(dp1560
g8
I306
sg9
g485
sa(dp1561
g8
I315
sg9
g487
sa(dp1562
g8
I316
sg9
g489
sa(dp1563
g8
I321
sg9
g491
sa(dp1564
g8
I322
sg9
g493
sa(dp1565
g8
I325
sg9
g495
sa(dp1566
g8
I326
sg9
g497
sa(dp1567
g8
I343
sg9
g499
sa(dp1568
g8
I351
sg9
g501
sa(dp1569
g8
I388
sg9
g503
sa(dp1570
g8
I392
sg9
g505
sasg8
I413
sg9
g506
ssI414
(dp1571
g1
(lp1572
(dp1573
g8
I7
sg9
g510
sa(dp1574
g8
I19
sg9
g512
sa(dp1575
g8
I35
sg9
g514
sa(dp1576
g8
I40
sg9
g516
sa(dp1577
g8
I55
sg9
g518
sa(dp1578
g8
I78
sg9
g520
sa(dp1579
g8
I90
sg9
g522
sa(dp1580
g8
I126
sg9
g524
sa(dp1581
g8
I135
sg9
g526
sa(dp1582
g8
I136
sg9
g528
sa(dp1583
g8
I144
sg9
g530
sa(dp1584
g8
I145
sg9
g532
sa(dp1585
g8
I146
sg9
g534
sa(dp1586
g8
I163
sg9
g536
sa(dp1587
g8
I184
sg9
g538
sa(dp1588
g8
I189
sg9
g540
sa(dp1589
g8
I223
sg9
g542
sa(dp1590
g8
I231
sg9
g544
sa(dp1591
g8
I236
sg9
g546
sa(dp1592
g8
I237
sg9
g548
sa(dp1593
g8
I244
sg9
g550
sa(dp1594
g8
I251
sg9
g552
sa(dp1595
g8
I254
sg9
g554
sa(dp1596
g8
I280
sg9
g556
sa(dp1597
g8
I284
sg9
g558
sa(dp1598
g8
I290
sg9
g560
sa(dp1599
g8
I300
sg9
g562
sa(dp1600
g8
I314
sg9
g564
sa(dp1601
g8
I330
sg9
g566
sa(dp1602
g8
I334
sg9
g568
sa(dp1603
g8
I336
sg9
g570
sa(dp1604
g8
I345
sg9
g572
sa(dp1605
g8
I364
sg9
g574
sa(dp1606
g8
I370
sg9
g576
sa(dp1607
g8
I374
sg9
g578
sa(dp1608
g8
I389
sg9
g580
sa(dp1609
g8
I390
sg9
g582
sa(dp1610
g8
I394
sg9
g584
sa(dp1611
g8
I395
sg9
g586
sa(dp1612
g8
I404
sg9
g588
sa(dp1613
g8
I406
sg9
g590
sasg8
I414
sg9
g591
ssI415
(dp1614
g1
(lp1615
(dp1616
g8
I8
sg9
g784
sa(dp1617
g8
I50
sg9
g786
sa(dp1618
g8
I86
sg9
g788
sa(dp1619
g8
I101
sg9
g790
sa(dp1620
g8
I115
sg9
g792
sa(dp1621
g8
I116
sg9
g794
sa(dp1622
g8
I117
sg9
g796
sa(dp1623
g8
I118
sg9
g798
sa(dp1624
g8
I142
sg9
g800
sa(dp1625
g8
I167
sg9
g802
sa(dp1626
g8
I168
sg9
g804
sa(dp1627
g8
I175
sg9
g806
sa(dp1628
g8
I227
sg9
g808
sa(dp1629
g8
I266
sg9
g810
sa(dp1630
g8
I286
sg9
g812
sa(dp1631
g8
I289
sg9
g814
sa(dp1632
g8
I293
sg9
g816
sa(dp1633
g8
I297
sg9
g818
sa(dp1634
g8
I302
sg9
g820
sa(dp1635
g8
I324
sg9
g822
sa(dp1636
g8
I331
sg9
g824
sa(dp1637
g8
I338
sg9
g826
sa(dp1638
g8
I349
sg9
g828
sa(dp1639
g8
I357
sg9
g830
sa(dp1640
g8
I365
sg9
g832
sa(dp1641
g8
I383
sg9
g834
sa(dp1642
g8
I387
sg9
g836
sa(dp1643
g8
I407
sg9
g838
sasg8
I415
sg9
g839
ssI416
(dp1644
g1
(lp1645
(dp1646
g8
I10
sg9
g843
sa(dp1647
g8
I17
sg9
g845
sa(dp1648
g8
I49
sg9
g847
sa(dp1649
g8
I60
sg9
g849
sa(dp1650
g8
I61
sg9
g851
sa(dp1651
g8
I66
sg9
g853
sa(dp1652
g8
I87
sg9
g855
sa(dp1653
g8
I104
sg9
g857
sa(dp1654
g8
I173
sg9
g859
sa(dp1655
g8
I179
sg9
g861
sa(dp1656
g8
I276
sg9
g863
sa(dp1657
g8
I318
sg9
g865
sasg8
I416
sg9
g866
ssI417
(dp1658
g1
(lp1659
(dp1660
g8
I24
sg9
g712
sa(dp1661
g8
I30
sg9
g714
sa(dp1662
g8
I31
sg9
g716
sa(dp1663
g8
I45
sg9
g718
sa(dp1664
g8
I47
sg9
g720
sa(dp1665
g8
I48
sg9
g722
sa(dp1666
g8
I57
sg9
g724
sa(dp1667
g8
I71
sg9
g726
sa(dp1668
g8
I79
sg9
g728
sa(dp1669
g8
I84
sg9
g730
sa(dp1670
g8
I92
sg9
g732
sa(dp1671
g8
I94
sg9
g734
sa(dp1672
g8
I100
sg9
g736
sa(dp1673
g8
I119
sg9
g738
sa(dp1674
g8
I121
sg9
g740
sa(dp1675
g8
I122
sg9
g742
sa(dp1676
g8
I138
sg9
g744
sa(dp1677
g8
I152
sg9
g746
sa(dp1678
g8
I171
sg9
g748
sa(dp1679
g8
I172
sg9
g750
sa(dp1680
g8
I200
sg9
g752
sa(dp1681
g8
I228
sg9
g754
sa(dp1682
g8
I262
sg9
g756
sa(dp1683
g8
I277
sg9
g758
sa(dp1684
g8
I281
sg9
g760
sa(dp1685
g8
I294
sg9
g762
sa(dp1686
g8
I296
sg9
g764
sa(dp1687
g8
I305
sg9
g766
sa(dp1688
g8
I356
sg9
g768
sa(dp1689
g8
I376
sg9
g770
sa(dp1690
g8
I377
sg9
g772
sa(dp1691
g8
I393
sg9
g774
sa(dp1692
g8
I397
sg9
g776
sasg8
I417
sg9
g777
ssI418
(dp1693
g1
(lp1694
(dp1695
g8
I65
sg9
g595
sa(dp1696
g8
I74
sg9
g597
sa(dp1697
g8
I102
sg9
g599
sa(dp1698
g8
I141
sg9
g601
sa(dp1699
g8
I150
sg9
g603
sa(dp1700
g8
I155
sg9
g605
sa(dp1701
g8
I193
sg9
g607
sa(dp1702
g8
I204
sg9
g609
sa(dp1703
g8
I210
sg9
g611
sa(dp1704
g8
I225
sg9
g613
sa(dp1705
g8
I229
sg9
g615
sa(dp1706
g8
I239
sg9
g617
sa(dp1707
g8
I261
sg9
g619
sa(dp1708
g8
I363
sg9
g621
sasg8
I418
sg9
g622
ssI419
(dp1709
g1
(lp1710
(dp1711
g1
(lp1712
(dp1713
g8
I0
sg9
g10
sa(dp1714
g8
I4
sg9
g12
sa(dp1715
g8
I16
sg9
g14
sa(dp1716
g8
I26
sg9
g16
sa(dp1717
g8
I32
sg9
g18
sa(dp1718
g8
I51
sg9
g20
sa(dp1719
g8
I63
sg9
g22
sa(dp1720
g8
I68
sg9
g24
sa(dp1721
g8
I69
sg9
g26
sa(dp1722
g8
I70
sg9
g28
sa(dp1723
g8
I85
sg9
g30
sa(dp1724
g8
I125
sg9
g32
sa(dp1725
g8
I129
sg9
g34
sa(dp1726
g8
I130
sg9
g36
sa(dp1727
g8
I131
sg9
g38
sa(dp1728
g8
I149
sg9
g40
sa(dp1729
g8
I151
sg9
g42
sa(dp1730
g8
I159
sg9
g44
sa(dp1731
g8
I161
sg9
g46
sa(dp1732
g8
I162
sg9
g48
sa(dp1733
g8
I191
sg9
g50
sa(dp1734
g8
I195
sg9
g52
sa(dp1735
g8
I205
sg9
g54
sa(dp1736
g8
I206
sg9
g56
sa(dp1737
g8
I211
sg9
g58
sa(dp1738
g8
I216
sg9
g60
sa(dp1739
g8
I217
sg9
g62
sa(dp1740
g8
I224
sg9
g64
sa(dp1741
g8
I226
sg9
g66
sa(dp1742
g8
I230
sg9
g68
sa(dp1743
g8
I234
sg9
g70
sa(dp1744
g8
I247
sg9
g72
sa(dp1745
g8
I260
sg9
g74
sa(dp1746
g8
I267
sg9
g76
sa(dp1747
g8
I271
sg9
g78
sa(dp1748
g8
I272
sg9
g80
sa(dp1749
g8
I323
sg9
g82
sa(dp1750
g8
I328
sg9
g84
sa(dp1751
g8
I333
sg9
g86
sa(dp1752
g8
I337
sg9
g88
sa(dp1753
g8
I346
sg9
g90
sa(dp1754
g8
I347
sg9
g92
sa(dp1755
g8
I382
sg9
g94
sa(dp1756
g8
I396
sg9
g96
sa(dp1757
g8
I399
sg9
g98
sasg8
I408
sg9
g99
sa(dp1758
g1
(lp1759
(dp1760
g8
I1
sg9
g103
sa(dp1761
g8
I20
sg9
g105
sa(dp1762
g8
I21
sg9
g107
sa(dp1763
g8
I27
sg9
g109
sa(dp1764
g8
I29
sg9
g111
sa(dp1765
g8
I34
sg9
g113
sa(dp1766
g8
I37
sg9
g115
sa(dp1767
g8
I38
sg9
g117
sa(dp1768
g8
I46
sg9
g119
sa(dp1769
g8
I64
sg9
g121
sa(dp1770
g8
I67
sg9
g123
sa(dp1771
g8
I73
sg9
g125
sa(dp1772
g8
I83
sg9
g127
sa(dp1773
g8
I99
sg9
g129
sa(dp1774
g8
I105
sg9
g131
sa(dp1775
g8
I107
sg9
g133
sa(dp1776
g8
I109
sg9
g135
sa(dp1777
g8
I110
sg9
g137
sa(dp1778
g8
I111
sg9
g139
sa(dp1779
g8
I132
sg9
g141
sa(dp1780
g8
I133
sg9
g143
sa(dp1781
g8
I153
sg9
g145
sa(dp1782
g8
I158
sg9
g147
sa(dp1783
g8
I165
sg9
g149
sa(dp1784
g8
I169
sg9
g151
sa(dp1785
g8
I174
sg9
g153
sa(dp1786
g8
I196
sg9
g155
sa(dp1787
g8
I197
sg9
g157
sa(dp1788
g8
I201
sg9
g159
sa(dp1789
g8
I202
sg9
g161
sa(dp1790
g8
I203
sg9
g163
sa(dp1791
g8
I208
sg9
g165
sa(dp1792
g8
I212
sg9
g167
sa(dp1793
g8
I213
sg9
g169
sa(dp1794
g8
I219
sg9
g171
sa(dp1795
g8
I220
sg9
g173
sa(dp1796
g8
I221
sg9
g175
sa(dp1797
g8
I240
sg9
g177
sa(dp1798
g8
I255
sg9
g179
sa(dp1799
g8
I257
sg9
g181
sa(dp1800
g8
I259
sg9
g183
sa(dp1801
g8
I263
sg9
g185
sa(dp1802
g8
I270
sg9
g187
sa(dp1803
g8
I273
sg9
g189
sa(dp1804
g8
I279
sg9
g191
sa(dp1805
g8
I288
sg9
g193
sa(dp1806
g8
I298
sg9
g195
sa(dp1807
g8
I299
sg9
g197
sa(dp1808
g8
I313
sg9
g199
sa(dp1809
g8
I319
sg9
g201
sa(dp1810
g8
I320
sg9
g203
sa(dp1811
g8
I329
sg9
g205
sa(dp1812
g8
I339
sg9
g207
sa(dp1813
g8
I342
sg9
g209
sa(dp1814
g8
I344
sg9
g211
sa(dp1815
g8
I350
sg9
g213
sa(dp1816
g8
I358
sg9
g215
sa(dp1817
g8
I371
sg9
g217
sa(dp1818
g8
I372
sg9
g219
sa(dp1819
g8
I378
sg9
g221
sa(dp1820
g8
I381
sg9
g223
sa(dp1821
g8
I398
sg9
g225
sa(dp1822
g8
I402
sg9
g227
sasg8
I409
sg9
g228
sa(dp1823
g1
(lp1824
(dp1825
g8
I3
sg9
g232
sa(dp1826
g8
I9
sg9
g234
sa(dp1827
g8
I11
sg9
g236
sa(dp1828
g8
I13
sg9
g238
sa(dp1829
g8
I33
sg9
g240
sa(dp1830
g8
I36
sg9
g242
sa(dp1831
g8
I41
sg9
g244
sa(dp1832
g8
I52
sg9
g246
sa(dp1833
g8
I59
sg9
g248
sa(dp1834
g8
I95
sg9
g250
sa(dp1835
g8
I98
sg9
g252
sa(dp1836
g8
I103
sg9
g254
sa(dp1837
g8
I108
sg9
g256
sa(dp1838
g8
I114
sg9
g258
sa(dp1839
g8
I123
sg9
g260
sa(dp1840
g8
I128
sg9
g262
sa(dp1841
g8
I134
sg9
g264
sa(dp1842
g8
I143
sg9
g266
sa(dp1843
g8
I156
sg9
g268
sa(dp1844
g8
I164
sg9
g270
sa(dp1845
g8
I182
sg9
g272
sa(dp1846
g8
I188
sg9
g274
sa(dp1847
g8
I192
sg9
g276
sa(dp1848
g8
I194
sg9
g278
sa(dp1849
g8
I198
sg9
g280
sa(dp1850
g8
I199
sg9
g282
sa(dp1851
g8
I209
sg9
g284
sa(dp1852
g8
I214
sg9
g286
sa(dp1853
g8
I245
sg9
g288
sa(dp1854
g8
I249
sg9
g290
sa(dp1855
g8
I250
sg9
g292
sa(dp1856
g8
I258
sg9
g294
sa(dp1857
g8
I275
sg9
g296
sa(dp1858
g8
I278
sg9
g298
sa(dp1859
g8
I291
sg9
g300
sa(dp1860
g8
I307
sg9
g302
sa(dp1861
g8
I308
sg9
g304
sa(dp1862
g8
I309
sg9
g306
sa(dp1863
g8
I312
sg9
g308
sa(dp1864
g8
I327
sg9
g310
sa(dp1865
g8
I332
sg9
g312
sa(dp1866
g8
I348
sg9
g314
sa(dp1867
g8
I353
sg9
g316
sa(dp1868
g8
I354
sg9
g318
sa(dp1869
g8
I355
sg9
g320
sa(dp1870
g8
I366
sg9
g322
sa(dp1871
g8
I369
sg9
g324
sa(dp1872
g8
I373
sg9
g326
sa(dp1873
g8
I379
sg9
g328
sa(dp1874
g8
I380
sg9
g330
sa(dp1875
g8
I386
sg9
g332
sa(dp1876
g8
I400
sg9
g334
sa(dp1877
g8
I401
sg9
g336
sa(dp1878
g8
I403
sg9
g338
sasg8
I411
sg9
g339
sasg8
I419
sg9
g340
ssI420
(dp1879
g1
(lp1880
(dp1881
g1
(lp1882
(dp1883
g8
I2
sg9
g348
sa(dp1884
g8
I42
sg9
g350
sa(dp1885
g8
I54
sg9
g352
sa(dp1886
g8
I62
sg9
g354
sa(dp1887
g8
I75
sg9
g356
sa(dp1888
g8
I80
sg9
g358
sa(dp1889
g8
I93
sg9
g360
sa(dp1890
g8
I96
sg9
g362
sa(dp1891
g8
I97
sg9
g364
sa(dp1892
g8
I127
sg9
g366
sa(dp1893
g8
I137
sg9
g368
sa(dp1894
g8
I157
sg9
g370
sa(dp1895
g8
I160
sg9
g372
sa(dp1896
g8
I177
sg9
g374
sa(dp1897
g8
I181
sg9
g376
sa(dp1898
g8
I187
sg9
g378
sa(dp1899
g8
I207
sg9
g380
sa(dp1900
g8
I232
sg9
g382
sa(dp1901
g8
I233
sg9
g384
sa(dp1902
g8
I241
sg9
g386
sa(dp1903
g8
I242
sg9
g388
sa(dp1904
g8
I243
sg9
g390
sa(dp1905
g8
I252
sg9
g392
sa(dp1906
g8
I268
sg9
g394
sa(dp1907
g8
I287
sg9
g396
sa(dp1908
g8
I303
sg9
g398
sa(dp1909
g8
I310
sg9
g400
sa(dp1910
g8
I317
sg9
g402
sa(dp1911
g8
I359
sg9
g404
sa(dp1912
g8
I360
sg9
g406
sa(dp1913
g8
I361
sg9
g408
sa(dp1914
g8
I362
sg9
g410
sa(dp1915
g8
I367
sg9
g412
sasg8
I410
sg9
g413
sa(dp1916
g1
(lp1917
(dp1918
g8
I6
sg9
g417
sa(dp1919
g8
I23
sg9
g419
sa(dp1920
g8
I25
sg9
g421
sa(dp1921
g8
I44
sg9
g423
sa(dp1922
g8
I56
sg9
g425
sa(dp1923
g8
I58
sg9
g427
sa(dp1924
g8
I81
sg9
g429
sa(dp1925
g8
I82
sg9
g431
sa(dp1926
g8
I88
sg9
g433
sa(dp1927
g8
I89
sg9
g435
sa(dp1928
g8
I91
sg9
g437
sa(dp1929
g8
I112
sg9
g439
sa(dp1930
g8
I113
sg9
g441
sa(dp1931
g8
I124
sg9
g443
sa(dp1932
g8
I139
sg9
g445
sa(dp1933
g8
I140
sg9
g447
sa(dp1934
g8
I147
sg9
g449
sa(dp1935
g8
I166
sg9
g451
sa(dp1936
g8
I176
sg9
g453
sa(dp1937
g8
I180
sg9
g455
sa(dp1938
g8
I183
sg9
g457
sa(dp1939
g8
I186
sg9
g459
sa(dp1940
g8
I218
sg9
g461
sa(dp1941
g8
I222
sg9
g463
sa(dp1942
g8
I235
sg9
g465
sa(dp1943
g8
I246
sg9
g467
sa(dp1944
g8
I248
sg9
g469
sa(dp1945
g8
I253
sg9
g471
sa(dp1946
g8
I256
sg9
g473
sa(dp1947
g8
I265
sg9
g475
sa(dp1948
g8
I269
sg9
g477
sa(dp1949
g8
I274
sg9
g479
sa(dp1950
g8
I301
sg9
g481
sa(dp1951
g8
I304
sg9
g483
sa(dp1952
g8
I306
sg9
g485
sa(dp1953
g8
I315
sg9
g487
sa(dp1954
g8
I316
sg9
g489
sa(dp1955
g8
I321
sg9
g491
sa(dp1956
g8
I322
sg9
g493
sa(dp1957
g8
I325
sg9
g495
sa(dp1958
g8
I326
sg9
g497
sa(dp1959
g8
I343
sg9
g499
sa(dp1960
g8
I351
sg9
g501
sa(dp1961
g8
I388
sg9
g503
sa(dp1962
g8
I392
sg9
g505
sasg8
I413
sg9
g506
sa(dp1963
g1
(lp1964
(dp1965
g8
I7
sg9
g510
sa(dp1966
g8
I19
sg9
g512
sa(dp1967
g8
I35
sg9
g514
sa(dp1968
g8
I40
sg9
g516
sa(dp1969
g8
I55
sg9
g518
sa(dp1970
g8
I78
sg9
g520
sa(dp1971
g8
I90
sg9
g522
sa(dp1972
g8
I126
sg9
g524
sa(dp1973
g8
I135
sg9
g526
sa(dp1974
g8
I136
sg9
g528
sa(dp1975
g8
I144
sg9
g530
sa(dp1976
g8
I145
sg9
g532
sa(dp1977
g8
I146
sg9
g534
sa(dp1978
g8
I163
sg9
g536
sa(dp1979
g8
I184
sg9
g538
sa(dp1980
g8
I189
sg9
g540
sa(dp1981
g8
I223
sg9
g542
sa(dp1982
g8
I231
sg9
g544
sa(dp1983
g8
I236
sg9
g546
sa(dp1984
g8
I237
sg9
g548
sa(dp1985
g8
I244
sg9
g550
sa(dp1986
g8
I251
sg9
g552
sa(dp1987
g8
I254
sg9
g554
sa(dp1988
g8
I280
sg9
g556
sa(dp1989
g8
I284
sg9
g558
sa(dp1990
g8
I290
sg9
g560
sa(dp1991
g8
I300
sg9
g562
sa(dp1992
g8
I314
sg9
g564
sa(dp1993
g8
I330
sg9
g566
sa(dp1994
g8
I334
sg9
g568
sa(dp1995
g8
I336
sg9
g570
sa(dp1996
g8
I345
sg9
g572
sa(dp1997
g8
I364
sg9
g574
sa(dp1998
g8
I370
sg9
g576
sa(dp1999
g8
I374
sg9
g578
sa(dp2000
g8
I389
sg9
g580
sa(dp2001
g8
I390
sg9
g582
sa(dp2002
g8
I394
sg9
g584
sa(dp2003
g8
I395
sg9
g586
sa(dp2004
g8
I404
sg9
g588
sa(dp2005
g8
I406
sg9
g590
sasg8
I414
sg9
g591
sa(dp2006
g1
(lp2007
(dp2008
g8
I65
sg9
g595
sa(dp2009
g8
I74
sg9
g597
sa(dp2010
g8
I102
sg9
g599
sa(dp2011
g8
I141
sg9
g601
sa(dp2012
g8
I150
sg9
g603
sa(dp2013
g8
I155
sg9
g605
sa(dp2014
g8
I193
sg9
g607
sa(dp2015
g8
I204
sg9
g609
sa(dp2016
g8
I210
sg9
g611
sa(dp2017
g8
I225
sg9
g613
sa(dp2018
g8
I229
sg9
g615
sa(dp2019
g8
I239
sg9
g617
sa(dp2020
g8
I261
sg9
g619
sa(dp2021
g8
I363
sg9
g621
sasg8
I418
sg9
g622
sasg8
I420
sg9
g623
ssI421
(dp2022
g1
(lp2023
(dp2024
g1
(lp2025
(dp2026
g8
I5
sg9
g629
sa(dp2027
g8
I12
sg9
g631
sa(dp2028
g8
I14
sg9
g633
sa(dp2029
g8
I15
sg9
g635
sa(dp2030
g8
I18
sg9
g637
sa(dp2031
g8
I22
sg9
g639
sa(dp2032
g8
I28
sg9
g641
sa(dp2033
g8
I39
sg9
g643
sa(dp2034
g8
I43
sg9
g645
sa(dp2035
g8
I53
sg9
g647
sa(dp2036
g8
I72
sg9
g649
sa(dp2037
g8
I76
sg9
g651
sa(dp2038
g8
I77
sg9
g653
sa(dp2039
g8
I106
sg9
g655
sa(dp2040
g8
I120
sg9
g657
sa(dp2041
g8
I148
sg9
g659
sa(dp2042
g8
I154
sg9
g661
sa(dp2043
g8
I170
sg9
g663
sa(dp2044
g8
I178
sg9
g665
sa(dp2045
g8
I185
sg9
g667
sa(dp2046
g8
I190
sg9
g669
sa(dp2047
g8
I215
sg9
g671
sa(dp2048
g8
I238
sg9
g673
sa(dp2049
g8
I264
sg9
g675
sa(dp2050
g8
I282
sg9
g677
sa(dp2051
g8
I283
sg9
g679
sa(dp2052
g8
I285
sg9
g681
sa(dp2053
g8
I292
sg9
g683
sa(dp2054
g8
I295
sg9
g685
sa(dp2055
g8
I311
sg9
g687
sa(dp2056
g8
I335
sg9
g689
sa(dp2057
g8
I340
sg9
g691
sa(dp2058
g8
I341
sg9
g693
sa(dp2059
g8
I352
sg9
g695
sa(dp2060
g8
I368
sg9
g697
sa(dp2061
g8
I375
sg9
g699
sa(dp2062
g8
I384
sg9
g701
sa(dp2063
g8
I385
sg9
g703
sa(dp2064
g8
I391
sg9
g705
sa(dp2065
g8
I405
sg9
g707
sasg8
I412
sg9
g708
sa(dp2066
g1
(lp2067
(dp2068
g8
I24
sg9
g712
sa(dp2069
g8
I30
sg9
g714
sa(dp2070
g8
I31
sg9
g716
sa(dp2071
g8
I45
sg9
g718
sa(dp2072
g8
I47
sg9
g720
sa(dp2073
g8
I48
sg9
g722
sa(dp2074
g8
I57
sg9
g724
sa(dp2075
g8
I71
sg9
g726
sa(dp2076
g8
I79
sg9
g728
sa(dp2077
g8
I84
sg9
g730
sa(dp2078
g8
I92
sg9
g732
sa(dp2079
g8
I94
sg9
g734
sa(dp2080
g8
I100
sg9
g736
sa(dp2081
g8
I119
sg9
g738
sa(dp2082
g8
I121
sg9
g740
sa(dp2083
g8
I122
sg9
g742
sa(dp2084
g8
I138
sg9
g744
sa(dp2085
g8
I152
sg9
g746
sa(dp2086
g8
I171
sg9
g748
sa(dp2087
g8
I172
sg9
g750
sa(dp2088
g8
I200
sg9
g752
sa(dp2089
g8
I228
sg9
g754
sa(dp2090
g8
I262
sg9
g756
sa(dp2091
g8
I277
sg9
g758
sa(dp2092
g8
I281
sg9
g760
sa(dp2093
g8
I294
sg9
g762
sa(dp2094
g8
I296
sg9
g764
sa(dp2095
g8
I305
sg9
g766
sa(dp2096
g8
I356
sg9
g768
sa(dp2097
g8
I376
sg9
g770
sa(dp2098
g8
I377
sg9
g772
sa(dp2099
g8
I393
sg9
g774
sa(dp2100
g8
I397
sg9
g776
sasg8
I417
sg9
g777
sasg8
I421
sg9
g778
ssI422
(dp2101
g1
(lp2102
(dp2103
g1
(lp2104
(dp2105
g8
I8
sg9
g784
sa(dp2106
g8
I50
sg9
g786
sa(dp2107
g8
I86
sg9
g788
sa(dp2108
g8
I101
sg9
g790
sa(dp2109
g8
I115
sg9
g792
sa(dp2110
g8
I116
sg9
g794
sa(dp2111
g8
I117
sg9
g796
sa(dp2112
g8
I118
sg9
g798
sa(dp2113
g8
I142
sg9
g800
sa(dp2114
g8
I167
sg9
g802
sa(dp2115
g8
I168
sg9
g804
sa(dp2116
g8
I175
sg9
g806
sa(dp2117
g8
I227
sg9
g808
sa(dp2118
g8
I266
sg9
g810
sa(dp2119
g8
I286
sg9
g812
sa(dp2120
g8
I289
sg9
g814
sa(dp2121
g8
I293
sg9
g816
sa(dp2122
g8
I297
sg9
g818
sa(dp2123
g8
I302
sg9
g820
sa(dp2124
g8
I324
sg9
g822
sa(dp2125
g8
I331
sg9
g824
sa(dp2126
g8
I338
sg9
g826
sa(dp2127
g8
I349
sg9
g828
sa(dp2128
g8
I357
sg9
g830
sa(dp2129
g8
I365
sg9
g832
sa(dp2130
g8
I383
sg9
g834
sa(dp2131
g8
I387
sg9
g836
sa(dp2132
g8
I407
sg9
g838
sasg8
I415
sg9
g839
sa(dp2133
g1
(lp2134
(dp2135
g8
I10
sg9
g843
sa(dp2136
g8
I17
sg9
g845
sa(dp2137
g8
I49
sg9
g847
sa(dp2138
g8
I60
sg9
g849
sa(dp2139
g8
I61
sg9
g851
sa(dp2140
g8
I66
sg9
g853
sa(dp2141
g8
I87
sg9
g855
sa(dp2142
g8
I104
sg9
g857
sa(dp2143
g8
I173
sg9
g859
sa(dp2144
g8
I179
sg9
g861
sa(dp2145
g8
I276
sg9
g863
sa(dp2146
g8
I318
sg9
g865
sasg8
I416
sg9
g866
sasg8
I422
sg9
g867
ssI424
(dp2147
g1
(lp2148
(dp2149
g1
(lp2150
(dp2151
g8
I410
sg9
g413
sa(dp2152
g8
I413
sg9
g506
sa(dp2153
g8
I414
sg9
g591
sa(dp2154
g8
I418
sg9
g622
sasg8
I420
sg9
g623
sa(dp2155
g1
(lp2156
(dp2157
g8
I412
sg9
g708
sa(dp2158
g8
I417
sg9
g777
sasg8
I421
sg9
g778
sa(dp2159
g1
(lp2160
(dp2161
g8
I415
sg9
g839
sa(dp2162
g8
I416
sg9
g866
sasg8
I422
sg9
g867
sasg8
I424
sg9
g868
ssI425
(dp2163
g1
(lp2164
(dp2165
g1
(lp2166
(dp2167
g8
I408
sg9
g99
sa(dp2168
g8
I409
sg9
g228
sa(dp2169
g8
I411
sg9
g339
sasg8
I419
sg9
g340
sa(dp2170
g1
(lp2171
(dp2172
g8
I420
sg9
g623
sa(dp2173
g8
I421
sg9
g778
sa(dp2174
g8
I422
sg9
g867
sasg8
I424
sg9
g868
sasg8
I425
sg9
g869
sstp2175
.