((dp0
S'children'
p1
(lp2
(dp3
g1
(lp4
(dp5
g1
(lp6
(dp7
g1
(lp8
(dp9
g1
(lp10
(dp11
g1
(lp12
(dp13
S'id'
p14
I13676
sS'name'
p15
S'Science_technology_and_society'
p16
sa(dp17
g14
I13940
sg15
S'Fisheries_science'
p18
sasg14
I14153
sg15
S'Technology'
p19
sa(dp20
g1
(lp21
(dp22
g14
I13741
sg15
S'Linear_algebra'
p23
sa(dp24
g14
I13822
sg15
S'List_of_online_encyclopedias'
p25
sa(dp26
g14
I13914
sg15
S'1_(number)'
p27
sa(dp28
g14
I13961
sg15
S'Sphere'
p29
sa(dp30
g14
I13977
sg15
S'Graph_theory'
p31
sa(dp32
g14
I14058
sg15
S'Chaos_theory'
p33
sasg14
I14205
sg15
S'Springer_Science+Business_Media'
p34
sa(dp35
g1
(lp36
(dp37
g14
I13866
sg15
S'Universal_Transverse_Mercator_coordinate_system'
p38
sa(dp39
g14
I13952
sg15
S'Satellite_navigation'
p40
sa(dp41
g14
I13983
sg15
S'Cartography'
p42
sa(dp43
g14
I14040
sg15
S'Regression_analysis'
p44
sa(dp45
g14
I14128
sg15
S'Statistics'
p46
sasg14
I14253
sg15
S'Geodetic_datum'
p47
sa(dp48
g1
(lp49
(dp50
g14
I13934
sg15
S'Engineering'
p51
sa(dp52
g14
I13981
sg15
S'Bioinformatics'
p53
sasg14
I14267
sg15
S'Nanotechnology'
p54
sasg14
I14298
sg15
S'Zentralblatt_MATH'
p55
sa(dp56
g1
(lp57
(dp58
g1
(lp59
(dp60
g14
I13714
sg15
S'ArXiv'
p61
sa(dp62
g14
I13836
sg15
S'Astronomy'
p63
sa(dp64
g14
I13960
sg15
S'Metre'
p65
sasg14
I14187
sg15
S'International_System_of_Units'
p66
sa(dp67
g1
(lp68
(dp69
g14
I13736
sg15
S'Momentum'
p70
sa(dp71
g14
I13759
sg15
S'Royal_Society'
p72
sa(dp73
g14
I13794
sg15
S'Alternating_current'
p74
sa(dp75
g14
I13874
sg15
S'Epoch_(astronomy)'
p76
sa(dp77
g14
I13877
sg15
S'General_relativity'
p78
sa(dp79
g14
I13922
sg15
S'MacTutor_History_of_Mathematics_archive'
p80
sa(dp81
g14
I14077
sg15
S'Infrared'
p82
sa(dp83
g14
I14088
sg15
S'Minor-planet_moon'
p84
sasg14
I14202
sg15
S'Physics'
p85
sasg14
I14325
sg15
S'1000000000'
p86
sa(dp87
g1
(lp88
(dp89
g1
(lp90
(dp91
g14
I13763
sg15
S'Foundational_Model_of_Anatomy'
p92
sa(dp93
g14
I13766
sg15
S'Methadone'
p94
sasg14
I14215
sg15
S'Morphine'
p95
sa(dp96
g1
(lp97
(dp98
g14
I13773
sg15
S'Evolution'
p99
sa(dp100
g14
I14054
sg15
S'Georges_Cuvier'
p101
sasg14
I14220
sg15
S'Charles_Darwin'
p102
sa(dp103
g1
(lp104
(dp105
g14
I13774
sg15
S'Medicine'
p106
sa(dp107
g14
I13900
sg15
S'Radiology'
p108
sa(dp109
g14
I14111
sg15
S'Mortality_rate'
p110
sasg14
I14221
sg15
S'Psychiatry'
p111
sa(dp112
g1
(lp113
(dp114
g14
I13793
sg15
S'ICD-10'
p115
sa(dp116
g14
I13840
sg15
S'Muscle'
p117
sasg14
I14229
sg15
S'Anatomical_terminology'
p118
sasg14
I14338
sg15
S'Terminologia_Anatomica'
p119
sasg14
I14352
sg15
S'Mathematics'
p120
sasg14
I14373
sg15
S'Bibcode'
p121
sa(dp122
g1
(lp123
(dp124
g1
(lp125
(dp126
g1
(lp127
(dp128
g1
(lp129
(dp130
g14
I13686
sg15
S'ISO/IEC_27000-series'
p131
sa(dp132
g14
I13718
sg15
S'Delivery_Multimedia_Integration_Framework'
p133
sasg14
I14162
sg15
S'Torx'
p134
sa(dp135
g1
(lp136
(dp137
g14
I13824
sg15
S'Universal_Character_Set'
p138
sasg14
I14238
sg15
S'ISO/IEC_8859'
p139
sasg14
I14306
sg15
S'Standardization'
p140
sa(dp141
g1
(lp142
(dp143
g1
(lp144
(dp145
g14
I13784
sg15
S'Turkish_Braille'
p146
sa(dp147
g14
I13945
sg15
S'Nasal_consonant'
p148
sa(dp149
g14
I14023
sg15
S'Tone_letter'
p150
sasg14
I14225
sg15
S'IPA_Braille'
p151
sa(dp152
g1
(lp153
(dp154
g14
I13884
sg15
S'Medical_record'
p155
sa(dp156
g14
I13946
sg15
S'MHealth'
p157
sasg14
I14257
sg15
S'Telehealth'
p158
sasg14
I14342
sg15
S'Segment_(linguistics)'
p159
sasg14
I14357
sg15
S'International_standard'
p160
sa(dp161
g1
(lp162
(dp163
g1
(lp164
(dp165
g1
(lp166
(dp167
g14
I13726
sg15
S'Tony_Hsieh'
p168
sasg14
I14193
sg15
S'Amazon_Prime'
p169
sasg14
I14329
sg15
S'Amazon_Vine'
p170
sa(dp171
g1
(lp172
(dp173
g1
(lp174
(dp175
g14
I13732
sg15
S'Royal_Library_of_Belgium'
p176
sasg14
I14198
sg15
S'National_Library_of_Ireland'
p177
sa(dp178
g1
(lp179
(dp180
g14
I14043
sg15
S'Amazon_Standard_Identification_Number'
p181
sa(dp182
g14
I14046
sg15
S'Amazon_Silk'
p183
sasg14
I14281
sg15
S'Jeff_Bezos'
p184
sa(dp185
g1
(lp186
(dp187
g14
I14051
sg15
S'Twitch.tv'
p188
sasg14
I14283
sg15
S'Fire_OS'
p189
sa(dp190
g1
(lp191
(dp192
g14
I14094
sg15
S'Authority_file'
p193
sasg14
I14288
sg15
S'National_library'
p194
sasg14
I14332
sg15
S'Amazon_Kindle'
p195
sasg14
I14367
sg15
S'Alexa_Internet'
p196
sa(dp197
g1
(lp198
(dp199
g1
(lp200
(dp201
g1
(lp202
(dp203
g14
I13734
sg15
S'List_of_military_time_zones'
p204
sa(dp205
g14
I13820
sg15
S'UTC\xe2\x88\x9203:00'
p206
sa(dp207
g14
I13935
sg15
S'Eastern_European_Time'
p208
sa(dp209
g14
I13999
sg15
S'Greenwich_Mean_Time'
p210
sa(dp211
g14
I14056
sg15
S'Daylight_saving_time'
p212
sasg14
I14200
sg15
S'Time_zone'
p213
sasg14
I14333
sg15
S'Coordinated_Universal_Time'
p214
sa(dp215
g1
(lp216
(dp217
g1
(lp218
(dp219
g14
I13919
sg15
S'50th_parallel_north'
p220
sasg14
I14263
sg15
S'100th_meridian_west'
p221
sa(dp222
g1
(lp223
(dp224
g14
I14009
sg15
S'20th_meridian_west'
p225
sasg14
I14277
sg15
S'160th_meridian_east'
p226
sasg14
I14348
sg15
S'Prime_Meridian'
p227
sasg14
I14368
sg15
S'180th_meridian'
p228
sasg14
I14377
sg15
S'International_Organization_for_Standardization'
p229
sa(dp230
g1
(lp231
(dp232
g1
(lp233
(dp234
g1
(lp235
(dp236
g1
(lp237
(dp238
g14
I13805
sg15
S'International_Music_Score_Library_Project'
p239
sa(dp240
g14
I14122
sg15
S'International_Standard_Name_Identifier'
p241
sasg14
I14169
sg15
S'Internet_Archive'
p242
sa(dp243
g1
(lp244
(dp245
g14
I14045
sg15
S'Southern_Hemisphere'
p246
sasg14
I14282
sg15
S'Northern_Hemisphere'
p247
sa(dp248
g1
(lp249
(dp250
g14
I14106
sg15
S'Kanagawa_Prefecture'
p251
sa(dp252
g14
I14141
sg15
S'Districts_of_Japan'
p253
sasg14
I14290
sg15
S'Prefectures_of_Japan'
p254
sa(dp255
g1
(lp256
(dp257
g14
I14146
sg15
S'Find_a_Grave'
p258
sasg14
I14296
sg15
S'Project_Gutenberg'
p259
sasg14
I14313
sg15
S'Hokkaido'
p260
sa(dp261
g1
(lp262
(dp263
g1
(lp264
(dp265
g14
I13706
sg15
S'Dating_methodologies_in_archaeology'
p266
sasg14
I14181
sg15
S'Astronomical_chronology'
p267
sa(dp268
g1
(lp269
(dp270
g14
I13813
sg15
S'Clock'
p271
sa(dp272
g14
I13849
sg15
S'History'
p273
sa(dp274
g14
I13932
sg15
S'Geochronology'
p275
sa(dp276
g14
I14032
sg15
S'Maya_calendar'
p277
sa(dp278
g14
I14038
sg15
S'Anno_Domini'
p279
sa(dp280
g14
I14066
sg15
S'Islamic_calendar'
p281
sa(dp282
g14
I14134
sg15
S'Time_travel'
p283
sasg14
I14235
sg15
S'Time'
p284
sasg14
I14323
sg15
S'Geologic_time_scale'
p285
sa(dp286
g1
(lp287
(dp288
g1
(lp289
(dp290
g14
I14071
sg15
S'International_Electrotechnical_Commission'
p291
sasg14
I14285
sg15
S'ISO_4217'
p292
sa(dp293
g1
(lp294
(dp295
g14
I14145
sg15
S'ISO_3166-3'
p296
sasg14
I14295
sg15
S'ISO_3166-2'
p297
sasg14
I14350
sg15
S'ISO_3166'
p298
sasg14
I14361
sg15
S'International_Bank_Account_Number'
p299
sa(dp300
g1
(lp301
(dp302
g1
(lp303
(dp304
g1
(lp305
(dp306
g14
I13724
sg15
S'Yue_Chinese'
p307
sa(dp308
g14
I13851
sg15
S'Sanskrit'
p309
sa(dp310
g14
I13910
sg15
S'Malayalam'
p311
sa(dp312
g14
I13995
sg15
S'Turkic_languages'
p313
sa(dp314
g14
I14019
sg15
S'Hebrew_language'
p315
sa(dp316
g14
I14084
sg15
S'Ming_Dynasty'
p317
sa(dp318
g14
I14144
sg15
S'Armenian_language'
p319
sasg14
I14192
sg15
S'Arabic_language'
p320
sa(dp321
g1
(lp322
(dp323
g14
I13742
sg15
S'Serbian_language'
p324
sa(dp325
g14
I13743
sg15
S'Old_English'
p326
sa(dp327
g14
I13768
sg15
S'Dialect'
p328
sa(dp329
g14
I13821
sg15
S'German_language'
p330
sa(dp331
g14
I13907
sg15
S'Noun'
p332
sasg14
I14206
sg15
S'French_language'
p333
sasg14
I14328
sg15
S'Glottolog'
p334
sa(dp335
g1
(lp336
(dp337
g1
(lp338
(dp339
g14
I13857
sg15
S'Cedilla'
p340
sa(dp341
g14
I13936
sg15
S'ASCII'
p342
sa(dp343
g14
I13991
sg15
S'Linguistics'
p344
sa(dp345
g14
I14001
sg15
S'Alphabet'
p346
sa(dp347
g14
I14005
sg15
S'Hyphen'
p348
sasg14
I14250
sg15
S'Diacritic'
p349
sa(dp350
g1
(lp351
(dp352
g14
I13954
sg15
S'Logogram'
p353
sasg14
I14271
sg15
S'Syllabary'
p354
sasg14
I14347
sg15
S'International_Phonetic_Alphabet'
p355
sasg14
I14366
sg15
S'Unicode'
p356
sa(dp357
g1
(lp358
(dp359
g1
(lp360
(dp361
g1
(lp362
(dp363
g14
I13745
sg15
S'Stanford_University_Press'
p364
sa(dp365
g14
I13860
sg15
S'OCLC'
p366
sa(dp367
g14
I13892
sg15
S'Wikimedia_project'
p368
sa(dp369
g14
I13898
sg15
S"Webster's_Dictionary"
p370
sa(dp371
g14
I13990
sg15
S'Nature_(journal)'
p372
sa(dp373
g14
I14073
sg15
S'PDF'
p374
sa(dp375
g14
I14126
sg15
S'DMOZ'
p376
sasg14
I14208
sg15
S'International_Standard_Serial_Number'
p377
sasg14
I14335
sg15
S'Wikisource'
p378
sa(dp379
g1
(lp380
(dp381
g1
(lp382
(dp383
g14
I13693
sg15
S'Academic_journal'
p384
sa(dp385
g14
I13780
sg15
S'Publishing'
p386
sa(dp387
g14
I13806
sg15
S'Typewriter'
p388
sa(dp389
g14
I13998
sg15
S'Art_&_Architecture_Thesaurus'
p390
sa(dp391
g14
I14002
sg15
S'Typography'
p392
sa(dp393
g14
I14027
sg15
S'Archive'
p394
sa(dp395
g14
I14039
sg15
S'Universal_Product_Code'
p396
sa(dp397
g14
I14124
sg15
S'British_Library'
p398
sasg14
I14224
sg15
S'Library'
p399
sa(dp400
g1
(lp401
(dp402
g14
I14017
sg15
S'Integrated_Authority_File'
p403
sa(dp404
g14
I14115
sg15
S'Netherlands_Institute_for_Art_History'
p405
sasg14
I14278
sg15
S'National_Library_of_the_Czech_Republic'
p406
sasg14
I14341
sg15
S'Book'
p407
sasg14
I14370
sg15
S'Encyclop\xc3\xa6dia_Britannica_Eleventh_Edition'
p408
sasg14
I14381
sg15
S'English_language'
p409
sasg14
I14383
sg15
S'Digital_object_identifier'
p410
sa(dp411
g1
(lp412
(dp413
g1
(lp414
(dp415
g1
(lp416
(dp417
g1
(lp418
(dp419
g1
(lp420
(dp421
g14
I13677
sg15
S'AllMusic'
p422
sa(dp423
g14
I13755
sg15
S'Bass_guitar'
p424
sa(dp425
g14
I13843
sg15
S'ARIA_Charts'
p426
sasg14
I14154
sg15
S'Billboard_(magazine)'
p427
sa(dp428
g1
(lp429
(dp430
g14
I13683
sg15
S'Newspaper_circulation'
p431
sa(dp432
g14
I13701
sg15
S'Paramount_Pictures'
p433
sa(dp434
g14
I13748
sg15
S'Subsidiary'
p435
sasg14
I14159
sg15
S'The_Wall_Street_Journal'
p436
sasg14
I14299
sg15
S'Net_income'
p437
sa(dp438
g1
(lp439
(dp440
g1
(lp441
(dp442
g14
I13680
sg15
S'Anime'
p443
sa(dp444
g14
I13681
sg15
S'Academy_Award_for_Best_Foreign_Language_Film'
p445
sa(dp446
g14
I13811
sg15
S'Film'
p447
sasg14
I14157
sg15
S'Viking_Press'
p448
sa(dp449
g1
(lp450
(dp451
g14
I13709
sg15
S'Dictionary_of_National_Biography'
p452
sa(dp453
g14
I13749
sg15
S'Genre'
p454
sasg14
I14183
sg15
S'William_Shakespeare'
p455
sa(dp456
g1
(lp457
(dp458
g14
I13710
sg15
S'Edo_period'
p459
sa(dp460
g14
I13752
sg15
S'Modern_art'
p461
sa(dp462
g14
I13838
sg15
S'Leonardo_da_Vinci'
p463
sa(dp464
g14
I13853
sg15
S'Ludwig_van_Beethoven'
p465
sa(dp466
g14
I13970
sg15
S'Dance'
p467
sa(dp468
g14
I14118
sg15
S'Neoclassicism'
p469
sasg14
I14184
sg15
S'Louvre'
p470
sa(dp471
g1
(lp472
(dp473
g14
I13812
sg15
S'Musical_instrument'
p474
sa(dp475
g14
I13815
sg15
S'Music_of_Russia'
p476
sa(dp477
g14
I13918
sg15
S'Counterpoint'
p478
sa(dp479
g14
I13950
sg15
S'Pitch_(music)'
p480
sa(dp481
g14
I13993
sg15
S'Album'
p482
sa(dp483
g14
I14052
sg15
S'Music_of_India'
p484
sasg14
I14234
sg15
S'Classical_music'
p485
sa(dp486
g1
(lp487
(dp488
g14
I13848
sg15
S'Movie_theater'
p489
sa(dp490
g14
I13883
sg15
S'Newspaper'
p491
sa(dp492
g14
I13889
sg15
S'Propaganda'
p493
sa(dp494
g14
I14075
sg15
S"Maclean's"
p495
sasg14
I14247
sg15
S'High-definition_television'
p496
sasg14
I14302
sg15
S"King's_College_Cambridge"
p497
sa(dp498
g1
(lp499
(dp500
g1
(lp501
(dp502
g14
I13694
sg15
S'University_College_Dublin'
p503
sa(dp504
g14
I13756
sg15
S"Bachelor's_degree"
p505
sa(dp506
g14
I13833
sg15
S'State_school'
p507
sa(dp508
g14
I13951
sg15
S'Imperial_College_London'
p509
sa(dp510
g14
I14050
sg15
S'International_Baccalaureate'
p511
sasg14
I14170
sg15
S'University_of_Cambridge'
p512
sa(dp513
g1
(lp514
(dp515
g14
I13721
sg15
S'U.S._News_&_World_Report'
p516
sa(dp517
g14
I13992
sg15
S'College_and_university_rankings'
p518
sa(dp519
g14
I14037
sg15
S'University_of_Michigan'
p520
sa(dp521
g14
I14057
sg15
S'University_College_London'
p522
sa(dp523
g14
I14085
sg15
S'University_of_California_Santa_Barbara'
p524
sa(dp525
g14
I14092
sg15
S'University_of_California_Berkeley'
p526
sa(dp527
g14
I14135
sg15
S'Nobel_Prize'
p528
sasg14
I14191
sg15
S'University_of_California_Los_Angeles'
p529
sa(dp530
g1
(lp531
(dp532
g14
I13913
sg15
S'Athletic_nickname'
p533
sasg14
I14261
sg15
S'University_of_Maryland_College_Park'
p534
sasg14
I14314
sg15
S'University'
p535
sasg14
I14353
sg15
S'The_New_York_Times'
p536
sa(dp537
g1
(lp538
(dp539
g1
(lp540
(dp541
g1
(lp542
(dp543
g14
I13682
sg15
S'Ramayana'
p544
sa(dp545
g14
I13982
sg15
S'Mantra'
p546
sa(dp547
g14
I13997
sg15
S'Islam'
p548
sasg14
I14158
sg15
S'Satya'
p549
sa(dp550
g1
(lp551
(dp552
g14
I13929
sg15
S'New_York_Times'
p553
sasg14
I14266
sg15
S'Second_World_War'
p554
sasg14
I14303
sg15
S'Hinduism'
p555
sa(dp556
g1
(lp557
(dp558
g1
(lp559
(dp560
g14
I13685
sg15
S'Anarchism'
p561
sa(dp562
g14
I13723
sg15
S'Metaphysics'
p563
sa(dp564
g14
I13789
sg15
S'Psychology'
p565
sa(dp566
g14
I13835
sg15
S'Immanuel_Kant'
p567
sa(dp568
g14
I13905
sg15
S'Ethics'
p569
sasg14
I14161
sg15
S'Plato'
p570
sasg14
I14305
sg15
S'Aristotle'
p571
sa(dp572
g1
(lp573
(dp574
g1
(lp575
(dp576
g14
I13688
sg15
S'Erosion'
p577
sasg14
I14164
sg15
S'Estuary'
p578
sa(dp579
g1
(lp580
(dp581
g14
I13949
sg15
S'Social_stratification'
p582
sa(dp583
g14
I14011
sg15
S'Sociology'
p584
sa(dp585
g14
I14028
sg15
S'Mahatma_Gandhi'
p586
sasg14
I14269
sg15
S'Demography'
p587
sa(dp588
g1
(lp589
(dp590
g14
I14029
sg15
S'Petroglyph'
p591
sa(dp592
g14
I14061
sg15
S'Neolithic'
p593
sasg14
I14280
sg15
S'Cave_painting'
p594
sasg14
I14308
sg15
S'Water_well'
p595
sasg14
I14355
sg15
S'Philosophy'
p596
sa(dp597
g1
(lp598
(dp599
g1
(lp600
(dp601
g1
(lp602
(dp603
g14
I13696
sg15
S'New_Testament'
p604
sa(dp605
g14
I13715
sg15
S'Papal_conclave_2013'
p606
sa(dp607
g14
I13722
sg15
S'Saint_Peter'
p608
sa(dp609
g14
I13764
sg15
S'Wicca'
p610
sa(dp611
g14
I13882
sg15
S'Philosophy_of_religion'
p612
sasg14
I14172
sg15
S'Paul_the_Apostle'
p613
sa(dp614
g1
(lp615
(dp616
g14
I13730
sg15
S'Monastery'
p617
sa(dp618
g14
I13776
sg15
S'Pope_John_Paul_II'
p619
sa(dp620
g14
I13782
sg15
S'Lutheranism'
p621
sa(dp622
g14
I13837
sg15
S'Protestant_Reformation'
p623
sa(dp624
g14
I13869
sg15
S'Jesus'
p625
sa(dp626
g14
I13881
sg15
S'Tithe'
p627
sa(dp628
g14
I13985
sg15
S'Buddhism'
p629
sa(dp630
g14
I14105
sg15
S'Separation_of_church_and_state'
p631
sasg14
I14196
sg15
S'Christianity'
p632
sasg14
I14316
sg15
S'Eastern_Orthodox_Church'
p633
sa(dp634
g1
(lp635
(dp636
g1
(lp637
(dp638
g14
I13704
sg15
S'Contract'
p639
sa(dp640
g14
I13758
sg15
S'Appellate_court'
p641
sa(dp642
g14
I13792
sg15
S'Administrative_law'
p643
sa(dp644
g14
I13797
sg15
S'Civil_law_(legal_system)'
p645
sa(dp646
g14
I14034
sg15
S'Halakha'
p647
sa(dp648
g14
I14099
sg15
S'Natural_law'
p649
sasg14
I14179
sg15
S'Law'
p650
sa(dp651
g1
(lp652
(dp653
g14
I13767
sg15
S'Microeconomics'
p654
sa(dp655
g14
I13803
sg15
S'Profession'
p656
sa(dp657
g14
I13825
sg15
S'Public_sector'
p658
sa(dp659
g14
I13880
sg15
S'Socialism'
p660
sa(dp661
g14
I13897
sg15
S'Accounting'
p662
sasg14
I14216
sg15
S'Economics'
p663
sasg14
I14322
sg15
S'Common_law'
p664
sasg14
I14362
sg15
S'Catholic_Church'
p665
sasg14
I14374
sg15
S'United_States'
p666
sa(dp667
g1
(lp668
(dp669
g1
(lp670
(dp671
g1
(lp672
(dp673
g1
(lp674
(dp675
g14
I13678
sg15
S'Kazakhstan'
p676
sasg14
I14155
sg15
S'Armenia'
p677
sa(dp678
g1
(lp679
(dp680
g14
I13804
sg15
S'The_World_Factbook'
p681
sasg14
I14232
sg15
S'Macedonia_naming_dispute'
p682
sa(dp683
g1
(lp684
(dp685
g14
I13831
sg15
S'Association_of_Southeast_Asian_Nations'
p686
sa(dp687
g14
I13862
sg15
S'Council_of_Europe'
p688
sa(dp689
g14
I13885
sg15
S'Food_and_Agriculture_Organization'
p690
sa(dp691
g14
I14068
sg15
S'United_Nations_High_Commissioner_for_Refugees'
p692
sa(dp693
g14
I14101
sg15
S'European_Economic_Community'
p694
sasg14
I14242
sg15
S'International_Monetary_Fund'
p695
sa(dp696
g1
(lp697
(dp698
g14
I13855
sg15
S'List_of_sovereign_states'
p699
sa(dp700
g14
I13972
sg15
S'Decolonization'
p701
sa(dp702
g14
I14082
sg15
S'Aircraft_registration'
p703
sasg14
I14248
sg15
S'Member_states_of_the_United_Nations'
p704
sa(dp705
g1
(lp706
(dp707
g14
I13872
sg15
S'Elizabeth_II'
p708
sa(dp709
g14
I13937
sg15
S'Union_of_South_Africa'
p710
sa(dp711
g14
I14062
sg15
S'Royal_Navy'
p712
sasg14
I14254
sg15
S'Commonwealth_realm'
p713
sa(dp714
g1
(lp715
(dp716
g14
I13958
sg15
S'Economy_of_Germany'
p717
sa(dp718
g14
I13969
sg15
S'Economy_of_Greece'
p719
sa(dp720
g14
I14003
sg15
S'Economy_of_Egypt'
p721
sa(dp722
g14
I14086
sg15
S'Economy_of_the_Philippines'
p723
sasg14
I14272
sg15
S'Economy_of_Nigeria'
p724
sasg14
I14300
sg15
S'United_Nations'
p725
sa(dp726
g1
(lp727
(dp728
g1
(lp729
(dp730
g14
I13738
sg15
S'Royal_Observatory_Greenwich'
p731
sa(dp732
g14
I13886
sg15
S'List_of_law_enforcement_agencies_in_the_United_Kingdom'
p733
sa(dp734
g14
I13902
sg15
S'Listed_building'
p735
sa(dp736
g14
I14008
sg15
S'10_Downing_Street'
p737
sasg14
I14156
sg15
S'Royal_Botanic_Gardens_Kew'
p738
sa(dp739
g1
(lp740
(dp741
g14
I13679
sg15
S'Administrative_geography_of_the_United_Kingdom'
p742
sa(dp743
g14
I13705
sg15
S'Queen_Victoria'
p744
sa(dp745
g14
I13713
sg15
S'Henry_VIII_of_England'
p746
sa(dp747
g14
I13747
sg15
S'William_Pitt_the_Younger'
p748
sa(dp749
g14
I13799
sg15
S'Acts_of_Union_1707'
p750
sasg14
I14180
sg15
S'Parliament_of_the_United_Kingdom'
p751
sa(dp752
g1
(lp753
(dp754
g14
I13777
sg15
S'Bath_Somerset'
p755
sa(dp756
g14
I14033
sg15
S'Hampshire'
p757
sasg14
I14222
sg15
S'Bristol'
p758
sa(dp759
g1
(lp760
(dp761
g14
I14024
sg15
S'Ireland'
p762
sa(dp763
g14
I14035
sg15
S'Belfast'
p764
sa(dp765
g14
I14136
sg15
S'Wales'
p766
sasg14
I14279
sg15
S'Northern_Ireland'
p767
sasg14
I14301
sg15
S'Scotland'
p768
sa(dp769
g1
(lp770
(dp771
g1
(lp772
(dp773
g14
I13689
sg15
S'List_of_aircraft_accidents_and_incidents_resulting_in_at_least_50_fatalities'
p774
sa(dp775
g14
I13867
sg15
S'Aviation'
p776
sa(dp777
g14
I13920
sg15
S'Navy'
p778
sa(dp779
g14
I13928
sg15
S'Major_general'
p780
sasg14
I14165
sg15
S'General_officer'
p781
sa(dp782
g1
(lp783
(dp784
g14
I13703
sg15
S'Federal_subjects_of_Russia'
p785
sa(dp786
g14
I13847
sg15
S'Arrondissements_of_France'
p787
sa(dp788
g14
I14016
sg15
S'Russian_Soviet_Federative_Socialist_Republic'
p789
sa(dp790
g14
I14078
sg15
S'Municipalities_of_Slovenia'
p791
sasg14
I14178
sg15
S'Metropolitan_France'
p792
sa(dp793
g1
(lp794
(dp795
g14
I13712
sg15
S'Municipal_corporation'
p796
sa(dp797
g14
I13927
sg15
S'Humid_subtropical_climate'
p798
sa(dp799
g14
I14137
sg15
S'Google_Earth'
p800
sa(dp801
g14
I14147
sg15
S'Continental_climate'
p802
sasg14
I14186
sg15
S'Consul_(representative)'
p803
sa(dp804
g1
(lp805
(dp806
g14
I13802
sg15
S'Administrative_divisions_of_China'
p807
sa(dp808
g14
I13984
sg15
S'Rajasthan'
p809
sasg14
I14231
sg15
S'Punjab_India'
p810
sa(dp811
g1
(lp812
(dp813
g14
I13845
sg15
S'The_Times_of_India'
p814
sa(dp815
g14
I13988
sg15
S'Guangzhou'
p816
sa(dp817
g14
I14041
sg15
S'States_and_union_territories_of_India'
p818
sa(dp819
g14
I14080
sg15
S'Time_in_China'
p820
sasg14
I14246
sg15
S'British_Raj'
p821
sa(dp822
g1
(lp823
(dp824
g14
I13917
sg15
S'Federated_States_of_Micronesia'
p825
sa(dp826
g14
I13923
sg15
S'Hydroelectricity'
p827
sa(dp828
g14
I13941
sg15
S'Diesel_engine'
p829
sa(dp830
g14
I14012
sg15
S'Pickup_truck'
p831
sa(dp832
g14
I14031
sg15
S'Hull_(watercraft)'
p833
sa(dp834
g14
I14059
sg15
S'Nuclear_weapon'
p835
sa(dp836
g14
I14093
sg15
S'Oil_refinery'
p837
sasg14
I14264
sg15
S'Car'
p838
sa(dp839
g1
(lp840
(dp841
g14
I13962
sg15
S'Guam'
p842
sa(dp843
g14
I14018
sg15
S'United_States_Minor_Outlying_Islands'
p844
sa(dp845
g14
I14132
sg15
S'KwaZulu-Natal'
p846
sasg14
I14273
sg15
S'Midway_Atoll'
p847
sasg14
I14309
sg15
S'Petroleum'
p848
sa(dp849
g1
(lp850
(dp851
g1
(lp852
(dp853
g14
I13698
sg15
S'Environment_Canada'
p854
sa(dp855
g14
I13729
sg15
S'New_Brunswick'
p856
sa(dp857
g14
I13765
sg15
S'Great_Lakes'
p858
sa(dp859
g14
I13964
sg15
S'British_Columbia'
p860
sa(dp861
g14
I13976
sg15
S'Constitution_Act_1867'
p862
sa(dp863
g14
I14044
sg15
S'Vancouver'
p864
sasg14
I14174
sg15
S'Ontario'
p865
sa(dp866
g1
(lp867
(dp868
g14
I13754
sg15
S'Country_code_top-level_domain'
p869
sa(dp870
g14
I13844
sg15
S'Madeira'
p871
sa(dp872
g14
I13854
sg15
S'Organisation_of_African_Unity'
p873
sa(dp874
g14
I13956
sg15
S'Australian_English'
p875
sasg14
I14211
sg15
S'Economic_Social_and_Cultural_Council'
p876
sa(dp877
g1
(lp878
(dp879
g14
I13841
sg15
S'Norfolk_Island'
p880
sa(dp881
g14
I13859
sg15
S'British_Antarctic_Territory'
p882
sa(dp883
g14
I13955
sg15
S'The_Bahamas'
p884
sasg14
I14245
sg15
S'Languages_of_Africa'
p885
sa(dp886
g1
(lp887
(dp888
g14
I13989
sg15
S'El_Salvador'
p889
sasg14
I14276
sg15
S'Panama'
p890
sasg14
I14318
sg15
S'Papua_New_Guinea'
p891
sa(dp892
g1
(lp893
(dp894
g1
(lp895
(dp896
g14
I13728
sg15
S'States_of_Germany'
p897
sa(dp898
g14
I13873
sg15
S'Frankfurt'
p899
sa(dp900
g14
I13986
sg15
S'Tehran'
p901
sa(dp902
g14
I14072
sg15
S'Santiago'
p903
sa(dp904
g14
I14100
sg15
S'Kinshasa'
p905
sasg14
I14195
sg15
S'Tokyo'
p906
sa(dp907
g1
(lp908
(dp909
g14
I13814
sg15
S'Australian_federal_election_2013'
p910
sa(dp911
g14
I13901
sg15
S'Indigenous_Australians'
p912
sa(dp913
g14
I13921
sg15
S'Launceston_Tasmania'
p914
sa(dp915
g14
I13939
sg15
S'Industrial_Revolution'
p916
sa(dp917
g14
I13979
sg15
S'Guild'
p918
sa(dp919
g14
I13980
sg15
S'Interchange_(road)'
p920
sa(dp921
g14
I14021
sg15
S'Train_station'
p922
sa(dp923
g14
I14079
sg15
S'Infrastructure'
p924
sasg14
I14236
sg15
S'Victoria_(Australia)'
p925
sasg14
I14331
sg15
S'Lima'
p926
sa(dp927
g1
(lp928
(dp929
g1
(lp930
(dp931
g14
I13826
sg15
S'Ivory_Coast'
p932
sa(dp933
g14
I13965
sg15
S'Burma'
p934
sasg14
I14239
sg15
S'Egypt'
p935
sasg14
I14345
sg15
S'Indonesia'
p936
sasg14
I14354
sg15
S'Gross_domestic_product'
p937
sasg14
I14375
sg15
S'India'
p938
sa(dp939
g1
(lp940
(dp941
g1
(lp942
(dp943
g1
(lp944
(dp945
g1
(lp946
(dp947
g14
I13691
sg15
S'Enzyme'
p948
sa(dp949
g14
I13737
sg15
S'Tungsten'
p950
sa(dp951
g14
I13795
sg15
S'Risk_and_Safety_Statements'
p952
sa(dp953
g14
I13894
sg15
S'Copper'
p954
sa(dp955
g14
I13978
sg15
S'Polyurethane'
p956
sa(dp957
g14
I14015
sg15
S'Hydrogen'
p958
sasg14
I14167
sg15
S'International_Union_of_Pure_and_Applied_Chemistry'
p959
sa(dp960
g1
(lp961
(dp962
g14
I13708
sg15
S'Rock_(geology)'
p963
sa(dp964
g14
I13817
sg15
S'Coriolis_effect'
p965
sa(dp966
g14
I13973
sg15
S'Meteorology'
p967
sa(dp968
g14
I13975
sg15
S'Tropics'
p969
sa(dp970
g14
I14095
sg15
S'Ecosystem'
p971
sasg14
I14182
sg15
S'Earth'
p972
sa(dp973
g1
(lp974
(dp975
g14
I13731
sg15
S'Conservation_status'
p976
sa(dp977
g14
I13828
sg15
S'Evergreen'
p978
sa(dp979
g14
I13942
sg15
S'Cocoa_bean'
p980
sasg14
I14197
sg15
S'International_Union_for_Conservation_of_Nature'
p981
sa(dp982
g1
(lp983
(dp984
g14
I13830
sg15
S'Global_warming'
p985
sa(dp986
g14
I13868
sg15
S'Ice'
p987
sa(dp988
g14
I13911
sg15
S'Tidal_power'
p989
sa(dp990
g14
I14010
sg15
S'Granite'
p991
sa(dp992
g14
I14042
sg15
S'Agriculture'
p993
sa(dp994
g14
I14049
sg15
S'Ecological_economics'
p995
sa(dp996
g14
I14121
sg15
S'Tragedy_of_the_commons'
p997
sasg14
I14241
sg15
S'Overexploitation'
p998
sasg14
I14311
sg15
S'Oxygen'
p999
sasg14
I14360
sg15
S'Water'
p1000
sa(dp1001
g1
(lp1002
(dp1003
g1
(lp1004
(dp1005
g1
(lp1006
(dp1007
g14
I13739
sg15
S'International_Tennis_Federation'
p1008
sa(dp1009
g14
I13834
sg15
S'Cricket'
p1010
sa(dp1011
g14
I13863
sg15
S'Cycle_sport'
p1012
sa(dp1013
g14
I13896
sg15
S'Alpine_skiing'
p1014
sa(dp1015
g14
I13909
sg15
S'Summer_Olympic_Games'
p1016
sasg14
I14203
sg15
S'International_Olympic_Committee'
p1017
sasg14
I14334
sg15
S'Olympic_Games'
p1018
sa(dp1019
g1
(lp1020
(dp1021
g1
(lp1022
(dp1023
g14
I13787
sg15
S'The_Times'
p1024
sa(dp1025
g14
I13876
sg15
S'List_of_magazines_by_circulation'
p1026
sasg14
I14227
sg15
S'Broadcasting_Entertainment_Cinematograph_and_Theatre_Union'
p1027
sa(dp1028
g1
(lp1029
(dp1030
g14
I13856
sg15
S'Midfielder'
p1031
sa(dp1032
g14
I13904
sg15
S'Premier_League'
p1033
sa(dp1034
g14
I14047
sg15
S'The_Football_Association'
p1035
sasg14
I14249
sg15
S'The_Football_League'
p1036
sa(dp1037
g1
(lp1038
(dp1039
g14
I13879
sg15
S'FIFA'
p1040
sasg14
I14256
sg15
S'FIFA_World_Cup'
p1041
sa(dp1042
g1
(lp1043
(dp1044
g14
I13925
sg15
S'United_Kingdom_general_election_2005'
p1045
sa(dp1046
g14
I14063
sg15
S'The_Irish_Times'
p1047
sa(dp1048
g14
I14076
sg15
S'BBC_iPlayer'
p1049
sasg14
I14265
sg15
S'Labour_Party_(UK)'
p1050
sasg14
I14343
sg15
S'Department_for_Culture_Media_and_Sport'
p1051
sasg14
I14369
sg15
S'Association_football'
p1052
sa(dp1053
g1
(lp1054
(dp1055
g1
(lp1056
(dp1057
g1
(lp1058
(dp1059
g14
I13753
sg15
S'Protein'
p1060
sa(dp1061
g14
I13809
sg15
S'Fungus'
p1062
sa(dp1063
g14
I13974
sg15
S'Empathy'
p1064
sasg14
I14210
sg15
S'Bacteria'
p1065
sa(dp1066
g1
(lp1067
(dp1068
g14
I13785
sg15
S'Photosynthesis'
p1069
sa(dp1070
g14
I13823
sg15
S'Plant_stem'
p1071
sa(dp1072
g14
I14006
sg15
S'Eudicots'
p1073
sa(dp1074
g14
I14108
sg15
S'Hardiness_zone'
p1075
sasg14
I14226
sg15
S'Flowering_plant'
p1076
sa(dp1077
g1
(lp1078
(dp1079
g14
I13903
sg15
S'Epidermis_(botany)'
p1080
sasg14
I14259
sg15
S'International_Code_of_Nomenclature_for_algae_fungi_and_plants'
p1081
sasg14
I14336
sg15
S'Plant'
p1082
sa(dp1083
g1
(lp1084
(dp1085
g1
(lp1086
(dp1087
g14
I13757
sg15
S'Domain_(biology)'
p1088
sa(dp1089
g14
I13810
sg15
S'Mammal'
p1090
sa(dp1091
g14
I13819
sg15
S'Taxonomy_(biology)'
p1092
sa(dp1093
g14
I14020
sg15
S'Megaannum'
p1094
sasg14
I14212
sg15
S'Animal'
p1095
sasg14
I14337
sg15
S'Species'
p1096
sasg14
I14371
sg15
S'Kingdom_(biology)'
p1097
sasg14
I14380
sg15
S'Biological_classification'
p1098
sa(dp1099
g1
(lp1100
(dp1101
g1
(lp1102
(dp1103
g1
(lp1104
(dp1105
g1
(lp1106
(dp1107
g14
I13697
sg15
S'Helsinki'
p1108
sa(dp1109
g14
I13786
sg15
S'Sicily'
p1110
sa(dp1111
g14
I13924
sg15
S'Paris'
p1112
sa(dp1113
g14
I14004
sg15
S'Andalusia'
p1114
sa(dp1115
g14
I14104
sg15
S'Vienna'
p1116
sa(dp1117
g14
I14129
sg15
S'Moscow'
p1118
sa(dp1119
g14
I14139
sg15
S'Central_European_Time'
p1120
sasg14
I14173
sg15
S'UTC+2'
p1121
sa(dp1122
g1
(lp1123
(dp1124
g14
I13750
sg15
S'KGB'
p1125
sa(dp1126
g14
I13775
sg15
S'Adolf_Hitler'
p1127
sa(dp1128
g14
I13801
sg15
S'Artillery'
p1129
sa(dp1130
g14
I13875
sg15
S'Joseph_Stalin'
p1131
sa(dp1132
g14
I13947
sg15
S'Empire_of_Japan'
p1133
sasg14
I14209
sg15
S'World_War_I'
p1134
sasg14
I14317
sg15
S'Soviet_Union'
p1135
sa(dp1136
g1
(lp1137
(dp1138
g1
(lp1139
(dp1140
g14
I13779
sg15
S'China'
p1141
sa(dp1142
g14
I13798
sg15
S'European_Union'
p1143
sa(dp1144
g14
I14109
sg15
S'South_Africa'
p1145
sa(dp1146
g14
I14110
sg15
S'Luxembourg'
p1147
sasg14
I14223
sg15
S'Australia'
p1148
sa(dp1149
g1
(lp1150
(dp1151
g14
I13818
sg15
S'Moldova'
p1152
sa(dp1153
g14
I13890
sg15
S'Spain'
p1154
sasg14
I14237
sg15
S'Germany'
p1155
sasg14
I14340
sg15
S'New_Zealand'
p1156
sasg14
I14363
sg15
S'World_War_II'
p1157
sa(dp1158
g1
(lp1159
(dp1160
g1
(lp1161
(dp1162
g1
(lp1163
(dp1164
g14
I13711
sg15
S'Personal_union'
p1165
sa(dp1166
g14
I13720
sg15
S'Portuguese_Empire'
p1167
sa(dp1168
g14
I13861
sg15
S'Proportional_representation'
p1169
sa(dp1170
g14
I13926
sg15
S'Head_of_state'
p1171
sasg14
I14185
sg15
S'Monarch'
p1172
sa(dp1173
g1
(lp1174
(dp1175
g14
I13733
sg15
S'Slavery'
p1176
sa(dp1177
g14
I13788
sg15
S'Abortion'
p1178
sa(dp1179
g14
I13800
sg15
S'Ethnic_group'
p1180
sa(dp1181
g14
I13808
sg15
S'Freedom_of_speech'
p1182
sa(dp1183
g14
I14014
sg15
S'Colonialism'
p1184
sa(dp1185
g14
I14065
sg15
S'Gender'
p1186
sasg14
I14199
sg15
S'Human_rights'
p1187
sa(dp1188
g1
(lp1189
(dp1190
g14
I13968
sg15
S'Caspian_Sea'
p1191
sa(dp1192
g14
I14025
sg15
S'South_America'
p1193
sa(dp1194
g14
I14055
sg15
S'Indian_Ocean'
p1195
sa(dp1196
g14
I14074
sg15
S'New_Guinea'
p1197
sasg14
I14275
sg15
S'Atlantic_Ocean'
p1198
sasg14
I14324
sg15
S'Pacific_Ocean'
p1199
sa(dp1200
g1
(lp1201
(dp1202
g1
(lp1203
(dp1204
g14
I13716
sg15
S'Jerusalem'
p1205
sa(dp1206
g14
I13938
sg15
S'East_Asia'
p1207
sa(dp1208
g14
I14013
sg15
S'Web_of_Science'
p1209
sa(dp1210
g14
I14022
sg15
S'Scandinavia'
p1211
sa(dp1212
g14
I14048
sg15
S'Mediterranean_Sea'
p1213
sa(dp1214
g14
I14069
sg15
S'North_Africa'
p1215
sa(dp1216
g14
I14097
sg15
S'Eastern_Europe'
p1217
sa(dp1218
g14
I14127
sg15
S'Mongols'
p1219
sa(dp1220
g14
I14131
sg15
S'Middle_East'
p1221
sasg14
I14188
sg15
S'Asia'
p1222
sa(dp1223
g1
(lp1224
(dp1225
g14
I13719
sg15
S'French_Revolution'
p1226
sa(dp1227
g14
I13791
sg15
S'Habsburg_Monarchy'
p1228
sa(dp1229
g14
I13912
sg15
S'Polish\xe2\x80\x93Lithuanian_Commonwealth'
p1230
sasg14
I14190
sg15
S'Napoleon'
p1231
sa(dp1232
g1
(lp1233
(dp1234
g14
I13740
sg15
S'Assyria'
p1235
sa(dp1236
g14
I13850
sg15
S'Jews'
p1237
sa(dp1238
g14
I13852
sg15
S'Armenians'
p1239
sa(dp1240
g14
I13888
sg15
S'Muhammad'
p1241
sa(dp1242
g14
I13895
sg15
S'Arabs'
p1243
sa(dp1244
g14
I13996
sg15
S'Torah'
p1245
sa(dp1246
g14
I14030
sg15
S'Quran'
p1247
sa(dp1248
g14
I14070
sg15
S'Sultan'
p1249
sasg14
I14204
sg15
S'Ottoman_Empire'
p1250
sa(dp1251
g1
(lp1252
(dp1253
g14
I13760
sg15
S'Roman_emperor'
p1254
sa(dp1255
g14
I13771
sg15
S'Franks'
p1256
sa(dp1257
g14
I14000
sg15
S'Constantinople'
p1258
sasg14
I14213
sg15
S'Roman_Empire'
p1259
sa(dp1260
g1
(lp1261
(dp1262
g14
I13762
sg15
S'Aristophanes'
p1263
sa(dp1264
g14
I13783
sg15
S'Ancient_Greek'
p1265
sa(dp1266
g14
I13893
sg15
S'Renaissance'
p1267
sa(dp1268
g14
I13948
sg15
S'Ptolemy'
p1269
sa(dp1270
g14
I13967
sg15
S'Ionian_Sea'
p1271
sasg14
I14214
sg15
S'Ancient_Greece'
p1272
sa(dp1273
g1
(lp1274
(dp1275
g14
I13769
sg15
S'Medes'
p1276
sa(dp1277
g14
I14036
sg15
S'History_of_India'
p1278
sa(dp1279
g14
I14064
sg15
S'Mongol_Empire'
p1280
sa(dp1281
g14
I14081
sg15
S'Phoenicia'
p1282
sasg14
I14217
sg15
S'Yuan_dynasty'
p1283
sasg14
I14326
sg15
S'Byzantine_Empire'
p1284
sasg14
I14364
sg15
S'Latin'
p1285
sasg14
I14382
sg15
S'France'
p1286
sasg14
I14384
sg15
S'United_Kingdom'
p1287
sa(dp1288
g1
(lp1289
(dp1290
g1
(lp1291
(dp1292
g1
(lp1293
(dp1294
g1
(lp1295
(dp1296
g1
(lp1297
(dp1298
g14
I13684
sg15
S'Semaphore_line'
p1299
sa(dp1300
g14
I13858
sg15
S'Radio'
p1301
sasg14
I14160
sg15
S'Computer_network'
p1302
sa(dp1303
g1
(lp1304
(dp1305
g14
I13770
sg15
S'Local_area_network'
p1306
sasg14
I14218
sg15
S'Packet_switching'
p1307
sasg14
I14304
sg15
S'Network_switch'
p1308
sa(dp1309
g1
(lp1310
(dp1311
g1
(lp1312
(dp1313
g14
I13699
sg15
S'Hypertext_Transfer_Protocol'
p1314
sa(dp1315
g14
I13707
sg15
S'Operating_system'
p1316
sa(dp1317
g14
I13829
sg15
S'Programming_language'
p1318
sasg14
I14175
sg15
S'Database'
p1319
sa(dp1320
g1
(lp1321
(dp1322
g14
I13827
sg15
S'Open-source_software'
p1323
sa(dp1324
g14
I13931
sg15
S'Software_release_life_cycle'
p1325
sasg14
I14240
sg15
S'Proprietary_software'
p1326
sa(dp1327
g1
(lp1328
(dp1329
g14
I14053
sg15
S'Vector_graphics'
p1330
sa(dp1331
g14
I14114
sg15
S'Holography'
p1332
sasg14
I14284
sg15
S'Camera'
p1333
sasg14
I14319
sg15
S'Microsoft_Windows'
p1334
sa(dp1335
g1
(lp1336
(dp1337
g1
(lp1338
(dp1339
g14
I13702
sg15
S'Video_game'
p1340
sa(dp1341
g14
I13725
sg15
S'Megabyte'
p1342
sa(dp1343
g14
I13751
sg15
S'Acer_Inc.'
p1344
sa(dp1345
g14
I13778
sg15
S'Website'
p1346
sasg14
I14177
sg15
S'Compact_disc'
p1347
sasg14
I14321
sg15
S'Sony'
p1348
sasg14
I14356
sg15
S'Internet'
p1349
sasg14
I14376
sg15
S'Apple_Inc.'
p1350
sa(dp1351
g1
(lp1352
(dp1353
g1
(lp1354
(dp1355
g1
(lp1356
(dp1357
g1
(lp1358
(dp1359
g14
I13687
sg15
S'Gmina'
p1360
sa(dp1361
g14
I13870
sg15
S'Kaza'
p1362
sasg14
I14163
sg15
S'Guberniya'
p1363
sa(dp1364
g1
(lp1365
(dp1366
g14
I13908
sg15
S'Autonomous_communities_of_Spain'
p1367
sa(dp1368
g14
I13930
sg15
S'Banners_of_Inner_Mongolia'
p1369
sa(dp1370
g14
I14083
sg15
S'Province'
p1371
sa(dp1372
g14
I14112
sg15
S'Federal_Dependencies_of_Venezuela'
p1373
sasg14
I14260
sg15
S'Overseas_region'
p1374
sasg14
I14307
sg15
S'Eyalet'
p1375
sa(dp1376
g1
(lp1377
(dp1378
g1
(lp1379
(dp1380
g14
I13695
sg15
S'Governor-General'
p1381
sa(dp1382
g14
I13957
sg15
S'Katepano'
p1383
sa(dp1384
g14
I14143
sg15
S'Administrative_regions_of_Greece'
p1385
sasg14
I14171
sg15
S'Strategos'
p1386
sa(dp1387
g1
(lp1388
(dp1389
g14
I13864
sg15
S'Elizate'
p1390
sasg14
I14251
sg15
S'Merindad'
p1391
sa(dp1392
g1
(lp1393
(dp1394
g14
I13953
sg15
S'Neoptera'
p1395
sa(dp1396
g14
I14142
sg15
S'Butterfly'
p1397
sasg14
I14270
sg15
S'Endopterygota'
p1398
sa(dp1399
g1
(lp1400
(dp1401
g14
I14090
sg15
S'Baja_California'
p1402
sa(dp1403
g14
I14150
sg15
S'Copyright_status_of_work_by_the_U.S._government'
p1404
sasg14
I14287
sg15
S'Administrative_divisions_of_Mexico'
p1405
sa(dp1406
g1
(lp1407
(dp1408
g14
I14116
sg15
S'Capital_city'
p1409
sa(dp1410
g14
I14130
sg15
S'Municipality'
p1411
sasg14
I14291
sg15
S'Village'
p1412
sa(dp1413
g1
(lp1414
(dp1415
g14
I14138
sg15
S'Sovereign_state'
p1416
sasg14
I14294
sg15
S'Dependent_territory'
p1417
sasg14
I14315
sg15
S'Pterygota'
p1418
sasg14
I14358
sg15
S'Lepidoptera'
p1419
sa(dp1420
g1
(lp1421
(dp1422
g1
(lp1423
(dp1424
g1
(lp1425
(dp1426
g14
I13717
sg15
S'Holy_Spirit'
p1427
sa(dp1428
g14
I13746
sg15
S'National_Register_of_Historic_Places_listings_in_Michigan'
p1429
sa(dp1430
g14
I14091
sg15
S'Anselm_of_Canterbury'
p1431
sasg14
I14189
sg15
S'National_Register_of_Historic_Places_listings_in_Minnesota'
p1432
sa(dp1433
g1
(lp1434
(dp1435
g14
I13744
sg15
S'History_of_the_National_Register_of_Historic_Places'
p1436
sasg14
I14207
sg15
S'Contributing_property'
p1437
sasg14
I14327
sg15
S'Historic_districts_in_the_United_States'
p1438
sa(dp1439
g1
(lp1440
(dp1441
g1
(lp1442
(dp1443
g14
I13727
sg15
S'Timeline_of_United_States_inventions_(before_1890)'
p1444
sasg14
I14194
sg15
S'Timeline_of_United_States_discoveries'
p1445
sa(dp1446
g1
(lp1447
(dp1448
g14
I13735
sg15
S'Economic_history_of_the_United_States'
p1449
sa(dp1450
g14
I13906
sg15
S'United_States_federal_executive_departments'
p1451
sasg14
I14201
sg15
S'Federal_Reserve_System'
p1452
sa(dp1453
g1
(lp1454
(dp1455
g14
I14151
sg15
S'Canon_law_(Catholic_Church)'
p1456
sasg14
I14293
sg15
S'Doctrine'
p1457
sasg14
I14330
sg15
S'Independent_agencies_of_the_United_States_government'
p1458
sa(dp1459
g1
(lp1460
(dp1461
g1
(lp1462
(dp1463
g14
I14089
sg15
S'Jazz'
p1464
sasg14
I14286
sg15
S'Music_of_the_United_States'
p1465
sa(dp1466
g1
(lp1467
(dp1468
g14
I14096
sg15
S'Television_in_the_United_States'
p1469
sasg14
I14289
sg15
S'Military_of_the_United_States'
p1470
sasg14
I14351
sg15
S'Radio_in_the_United_States'
p1471
sasg14
I14365
sg15
S'National_Register_of_Historic_Places_property_types'
p1472
sa(dp1473
g1
(lp1474
(dp1475
g1
(lp1476
(dp1477
g1
(lp1478
(dp1479
g14
I13772
sg15
S'Voice_of_America'
p1480
sa(dp1481
g14
I14113
sg15
S'PAL'
p1482
sa(dp1483
g14
I14120
sg15
S'Comcast'
p1484
sasg14
I14219
sg15
S'Australian_Broadcasting_Corporation'
p1485
sa(dp1486
g1
(lp1487
(dp1488
g14
I14117
sg15
S'Television_in_the_United_Kingdom'
p1489
sa(dp1490
g14
I14140
sg15
S'Telephone_numbering_plan'
p1491
sasg14
I14292
sg15
S'Virgin_Media'
p1492
sasg14
I14339
sg15
S'Cable_television'
p1493
sa(dp1494
g1
(lp1495
(dp1496
g1
(lp1497
(dp1498
g14
I13832
sg15
S'Telecommunications_in_Fiji'
p1499
sa(dp1500
g14
I13842
sg15
S'Communications_media_in_Romania'
p1501
sasg14
I14243
sg15
S'Telecommunications_in_Georgia_(country)'
p1502
sa(dp1503
g1
(lp1504
(dp1505
g14
I13839
sg15
S'Frequency-division_multiplexing'
p1506
sasg14
I14244
sg15
S'Time-division_multiplexing'
p1507
sasg14
I14346
sg15
S'Circuit_switching'
p1508
sa(dp1509
g1
(lp1510
(dp1511
g1
(lp1512
(dp1513
g14
I13966
sg15
S'Communications_in_the_Palestinian_territories'
p1514
sasg14
I14274
sg15
S'Communications_in_Papua_New_Guinea'
p1515
sa(dp1516
g14
I14297
sg15
S'BBC_World_Service'
p1517
sasg14
I14349
sg15
S'Communications_in_Liberia'
p1518
sasg14
I14372
sg15
S'Telecommunications_in_Western_Sahara'
p1519
sasg14
I14378
sg15
S'Administrative_division'
p1520
sa(dp1521
g1
(lp1522
(dp1523
g1
(lp1524
(dp1525
g1
(lp1526
(dp1527
g1
(lp1528
(dp1529
g14
I13690
sg15
S'United_States_Code'
p1530
sa(dp1531
g14
I13891
sg15
S'President_of_the_United_States'
p1532
sa(dp1533
g14
I13959
sg15
S'Religion_in_the_United_States'
p1534
sa(dp1535
g14
I14102
sg15
S'American_English'
p1536
sasg14
I14166
sg15
S'Supreme_Court_of_the_United_States'
p1537
sa(dp1538
g1
(lp1539
(dp1540
g14
I13865
sg15
S'New_Hampshire'
p1541
sa(dp1542
g14
I14007
sg15
S'Hawaii'
p1543
sa(dp1544
g14
I14067
sg15
S'Lake_Michigan'
p1545
sasg14
I14252
sg15
S'Michigan'
p1546
sasg14
I14310
sg15
S'Federal_government_of_the_United_States'
p1547
sa(dp1548
g1
(lp1549
(dp1550
g1
(lp1551
(dp1552
g14
I13692
sg15
S'Las_Vegas'
p1553
sa(dp1554
g14
I13761
sg15
S'Bridgeport_Connecticut'
p1555
sasg14
I14168
sg15
S'Philadelphia'
p1556
sa(dp1557
g1
(lp1558
(dp1559
g14
I13807
sg15
S'Fox_Broadcasting_Company'
p1560
sa(dp1561
g14
I13846
sg15
S'San_Jose_California'
p1562
sa(dp1563
g14
I13915
sg15
S'New_York_City'
p1564
sa(dp1565
g14
I13944
sg15
S'San_Francisco'
p1566
sa(dp1567
g14
I13994
sg15
S'National_Collegiate_Athletic_Association'
p1568
sa(dp1569
g14
I14026
sg15
S'Cincinnati_Reds'
p1570
sasg14
I14233
sg15
S'Los_Angeles'
p1571
sasg14
I14312
sg15
S'National_Football_League'
p1572
sa(dp1573
g1
(lp1574
(dp1575
g1
(lp1576
(dp1577
g14
I13700
sg15
S'Hispanic_and_Latino_Americans'
p1578
sa(dp1579
g14
I13781
sg15
S'Pacific_Islands_American'
p1580
sa(dp1581
g14
I13816
sg15
S'United_States_presidential_election_2012'
p1582
sa(dp1583
g14
I13987
sg15
S'Italian_American'
p1584
sa(dp1585
g14
I14103
sg15
S'Slavery_in_the_United_States'
p1586
sa(dp1587
g14
I14148
sg15
S'Texas'
p1588
sasg14
I14176
sg15
S'California'
p1589
sa(dp1590
g1
(lp1591
(dp1592
g14
I13790
sg15
S'Abraham_Lincoln'
p1593
sa(dp1594
g14
I13871
sg15
S'Barack_Obama'
p1595
sasg14
I14228
sg15
S'George_Washington'
p1596
sa(dp1597
g1
(lp1598
(dp1599
g14
I13878
sg15
S'United_States_Department_of_Veterans_Affairs'
p1600
sa(dp1601
g14
I13899
sg15
S'NASA'
p1602
sa(dp1603
g14
I13933
sg15
S'United_States_Department_of_Agriculture'
p1604
sa(dp1605
g14
I14060
sg15
S'United_States_Government_Printing_Office'
p1606
sa(dp1607
g14
I14087
sg15
S'Smithsonian_Institution'
p1608
sa(dp1609
g14
I14098
sg15
S'National_Park_Service'
p1610
sasg14
I14255
sg15
S'Federal_Register'
p1611
sa(dp1612
g1
(lp1613
(dp1614
g14
I13887
sg15
S'United_States_Census'
p1615
sa(dp1616
g14
I13963
sg15
S'Interstate_Highway_System'
p1617
sasg14
I14258
sg15
S'Rand_McNally'
p1618
sa(dp1619
g1
(lp1620
(dp1621
g14
I13943
sg15
S'Phoenix_Arizona'
p1622
sasg14
I14268
sg15
S'Richmond_Virginia'
p1623
sasg14
I14320
sg15
S'2010_United_States_Census'
p1624
sa(dp1625
g1
(lp1626
(dp1627
g1
(lp1628
(dp1629
g14
I13796
sg15
S'Southern_United_States'
p1630
sa(dp1631
g14
I13971
sg15
S'Northeastern_United_States'
p1632
sa(dp1633
g14
I14119
sg15
S'Great_Depression'
p1634
sa(dp1635
g14
I14123
sg15
S'Spanish_language_in_the_United_States'
p1636
sa(dp1637
g14
I14133
sg15
S'Colorado_River'
p1638
sasg14
I14230
sg15
S'New_England'
p1639
sa(dp1640
g1
(lp1641
(dp1642
g14
I13916
sg15
S'Index_of_United_States-related_articles'
p1643
sasg14
I14262
sg15
S'Outline_of_the_United_States'
p1644
sasg14
I14344
sg15
S'Languages_of_the_United_States'
p1645
sasg14
I14359
sg15
S'United_States_Census_Bureau'
p1646
sasg14
I14379
sg15
S'Race_and_ethnicity_in_the_United_States_Census'
p1647
sasg14
I14385
sg15
S'Washington_D.C.'
p1648
sasg14
I14386
sg15
S'International_Standard_Book_Number'
p1649
s(dp1650
I14336
(dp1651
g1
(lp1652
(dp1653
g1
(lp1654
(dp1655
g14
I13753
sg15
g1060
sa(dp1656
g14
I13809
sg15
g1062
sa(dp1657
g14
I13974
sg15
g1064
sasg14
I14210
sg15
g1065
sa(dp1658
g1
(lp1659
(dp1660
g14
I13785
sg15
g1069
sa(dp1661
g14
I13823
sg15
g1071
sa(dp1662
g14
I14006
sg15
g1073
sa(dp1663
g14
I14108
sg15
g1075
sasg14
I14226
sg15
g1076
sa(dp1664
g1
(lp1665
(dp1666
g14
I13903
sg15
g1080
sasg14
I14259
sg15
g1081
sasg14
I14336
sg15
g1082
ssI14337
(dp1667
g1
(lp1668
(dp1669
g1
(lp1670
(dp1671
g14
I13757
sg15
g1088
sa(dp1672
g14
I13810
sg15
g1090
sa(dp1673
g14
I13819
sg15
g1092
sa(dp1674
g14
I14020
sg15
g1094
sasg14
I14212
sg15
g1095
sasg14
I14337
sg15
g1096
ssI14338
(dp1675
g1
(lp1676
(dp1677
g1
(lp1678
(dp1679
g14
I13763
sg15
g92
sa(dp1680
g14
I13766
sg15
g94
sasg14
I14215
sg15
g95
sa(dp1681
g1
(lp1682
(dp1683
g14
I13773
sg15
g99
sa(dp1684
g14
I14054
sg15
g101
sasg14
I14220
sg15
g102
sa(dp1685
g1
(lp1686
(dp1687
g14
I13774
sg15
g106
sa(dp1688
g14
I13900
sg15
g108
sa(dp1689
g14
I14111
sg15
g110
sasg14
I14221
sg15
g111
sa(dp1690
g1
(lp1691
(dp1692
g14
I13793
sg15
g115
sa(dp1693
g14
I13840
sg15
g117
sasg14
I14229
sg15
g118
sasg14
I14338
sg15
g119
ssI14339
(dp1694
g1
(lp1695
(dp1696
g1
(lp1697
(dp1698
g14
I13772
sg15
g1480
sa(dp1699
g14
I14113
sg15
g1482
sa(dp1700
g14
I14120
sg15
g1484
sasg14
I14219
sg15
g1485
sa(dp1701
g1
(lp1702
(dp1703
g14
I14117
sg15
g1489
sa(dp1704
g14
I14140
sg15
g1491
sasg14
I14292
sg15
g1492
sasg14
I14339
sg15
g1493
ssI14340
(dp1705
g1
(lp1706
(dp1707
g1
(lp1708
(dp1709
g14
I13779
sg15
g1141
sa(dp1710
g14
I13798
sg15
g1143
sa(dp1711
g14
I14109
sg15
g1145
sa(dp1712
g14
I14110
sg15
g1147
sasg14
I14223
sg15
g1148
sa(dp1713
g1
(lp1714
(dp1715
g14
I13818
sg15
g1152
sa(dp1716
g14
I13890
sg15
g1154
sasg14
I14237
sg15
g1155
sasg14
I14340
sg15
g1156
ssI14341
(dp1717
g1
(lp1718
(dp1719
g1
(lp1720
(dp1721
g14
I13693
sg15
g384
sa(dp1722
g14
I13780
sg15
g386
sa(dp1723
g14
I13806
sg15
g388
sa(dp1724
g14
I13998
sg15
g390
sa(dp1725
g14
I14002
sg15
g392
sa(dp1726
g14
I14027
sg15
g394
sa(dp1727
g14
I14039
sg15
g396
sa(dp1728
g14
I14124
sg15
g398
sasg14
I14224
sg15
g399
sa(dp1729
g1
(lp1730
(dp1731
g14
I14017
sg15
g403
sa(dp1732
g14
I14115
sg15
g405
sasg14
I14278
sg15
g406
sasg14
I14341
sg15
g407
ssI14342
(dp1733
g1
(lp1734
(dp1735
g1
(lp1736
(dp1737
g14
I13784
sg15
g146
sa(dp1738
g14
I13945
sg15
g148
sa(dp1739
g14
I14023
sg15
g150
sasg14
I14225
sg15
g151
sa(dp1740
g1
(lp1741
(dp1742
g14
I13884
sg15
g155
sa(dp1743
g14
I13946
sg15
g157
sasg14
I14257
sg15
g158
sasg14
I14342
sg15
g159
ssI14343
(dp1744
g1
(lp1745
(dp1746
g1
(lp1747
(dp1748
g14
I13787
sg15
g1024
sa(dp1749
g14
I13876
sg15
g1026
sasg14
I14227
sg15
g1027
sa(dp1750
g1
(lp1751
(dp1752
g14
I13856
sg15
g1031
sa(dp1753
g14
I13904
sg15
g1033
sa(dp1754
g14
I14047
sg15
g1035
sasg14
I14249
sg15
g1036
sa(dp1755
g1
(lp1756
(dp1757
g14
I13879
sg15
g1040
sasg14
I14256
sg15
g1041
sa(dp1758
g1
(lp1759
(dp1760
g14
I13925
sg15
g1045
sa(dp1761
g14
I14063
sg15
g1047
sa(dp1762
g14
I14076
sg15
g1049
sasg14
I14265
sg15
g1050
sasg14
I14343
sg15
g1051
ssI14344
(dp1763
g1
(lp1764
(dp1765
g1
(lp1766
(dp1767
g14
I13796
sg15
g1630
sa(dp1768
g14
I13971
sg15
g1632
sa(dp1769
g14
I14119
sg15
g1634
sa(dp1770
g14
I14123
sg15
g1636
sa(dp1771
g14
I14133
sg15
g1638
sasg14
I14230
sg15
g1639
sa(dp1772
g1
(lp1773
(dp1774
g14
I13916
sg15
g1643
sasg14
I14262
sg15
g1644
sasg14
I14344
sg15
g1645
ssI14345
(dp1775
g1
(lp1776
(dp1777
g1
(lp1778
(dp1779
g14
I13826
sg15
g932
sa(dp1780
g14
I13965
sg15
g934
sasg14
I14239
sg15
g935
sasg14
I14345
sg15
g936
ssI14346
(dp1781
g1
(lp1782
(dp1783
g1
(lp1784
(dp1785
g14
I13832
sg15
g1499
sa(dp1786
g14
I13842
sg15
g1501
sasg14
I14243
sg15
g1502
sa(dp1787
g1
(lp1788
(dp1789
g14
I13839
sg15
g1506
sasg14
I14244
sg15
g1507
sasg14
I14346
sg15
g1508
ssI14347
(dp1790
g1
(lp1791
(dp1792
g1
(lp1793
(dp1794
g14
I13857
sg15
g340
sa(dp1795
g14
I13936
sg15
g342
sa(dp1796
g14
I13991
sg15
g344
sa(dp1797
g14
I14001
sg15
g346
sa(dp1798
g14
I14005
sg15
g348
sasg14
I14250
sg15
g349
sa(dp1799
g1
(lp1800
(dp1801
g14
I13954
sg15
g353
sasg14
I14271
sg15
g354
sasg14
I14347
sg15
g355
ssI14348
(dp1802
g1
(lp1803
(dp1804
g1
(lp1805
(dp1806
g14
I13919
sg15
g220
sasg14
I14263
sg15
g221
sa(dp1807
g1
(lp1808
(dp1809
g14
I14009
sg15
g225
sasg14
I14277
sg15
g226
sasg14
I14348
sg15
g227
ssI14349
(dp1810
g1
(lp1811
(dp1812
g1
(lp1813
(dp1814
g14
I13966
sg15
g1514
sasg14
I14274
sg15
g1515
sa(dp1815
g14
I14297
sg15
g1517
sasg14
I14349
sg15
g1518
ssI14350
(dp1816
g1
(lp1817
(dp1818
g1
(lp1819
(dp1820
g14
I14071
sg15
g291
sasg14
I14285
sg15
g292
sa(dp1821
g1
(lp1822
(dp1823
g14
I14145
sg15
g296
sasg14
I14295
sg15
g297
sasg14
I14350
sg15
g298
ssI14351
(dp1824
g1
(lp1825
(dp1826
g1
(lp1827
(dp1828
g14
I14089
sg15
g1464
sasg14
I14286
sg15
g1465
sa(dp1829
g1
(lp1830
(dp1831
g14
I14096
sg15
g1469
sasg14
I14289
sg15
g1470
sasg14
I14351
sg15
g1471
ssI14352
(dp1832
g1
(lp1833
(dp1834
g1
(lp1835
(dp1836
g14
I14153
sg15
g19
sa(dp1837
g14
I14205
sg15
g34
sa(dp1838
g14
I14253
sg15
g47
sa(dp1839
g14
I14267
sg15
g54
sasg14
I14298
sg15
g55
sa(dp1840
g1
(lp1841
(dp1842
g14
I14187
sg15
g66
sa(dp1843
g14
I14202
sg15
g85
sasg14
I14325
sg15
g86
sa(dp1844
g1
(lp1845
(dp1846
g14
I14215
sg15
g95
sa(dp1847
g14
I14220
sg15
g102
sa(dp1848
g14
I14221
sg15
g111
sa(dp1849
g14
I14229
sg15
g118
sasg14
I14338
sg15
g119
sasg14
I14352
sg15
g120
ssI14353
(dp1850
g1
(lp1851
(dp1852
g1
(lp1853
(dp1854
g14
I14154
sg15
g427
sa(dp1855
g14
I14159
sg15
g436
sasg14
I14299
sg15
g437
sa(dp1856
g1
(lp1857
(dp1858
g14
I14157
sg15
g448
sa(dp1859
g14
I14183
sg15
g455
sa(dp1860
g14
I14184
sg15
g470
sa(dp1861
g14
I14234
sg15
g485
sa(dp1862
g14
I14247
sg15
g496
sasg14
I14302
sg15
g497
sa(dp1863
g1
(lp1864
(dp1865
g14
I14170
sg15
g512
sa(dp1866
g14
I14191
sg15
g529
sa(dp1867
g14
I14261
sg15
g534
sasg14
I14314
sg15
g535
sasg14
I14353
sg15
g536
ssI14354
(dp1868
g1
(lp1869
(dp1870
g1
(lp1871
(dp1872
g14
I14155
sg15
g677
sa(dp1873
g14
I14232
sg15
g682
sa(dp1874
g14
I14242
sg15
g695
sa(dp1875
g14
I14248
sg15
g704
sa(dp1876
g14
I14254
sg15
g713
sa(dp1877
g14
I14272
sg15
g724
sasg14
I14300
sg15
g725
sa(dp1878
g1
(lp1879
(dp1880
g14
I14156
sg15
g738
sa(dp1881
g14
I14180
sg15
g751
sa(dp1882
g14
I14222
sg15
g758
sa(dp1883
g14
I14279
sg15
g767
sasg14
I14301
sg15
g768
sa(dp1884
g1
(lp1885
(dp1886
g14
I14165
sg15
g781
sa(dp1887
g14
I14178
sg15
g792
sa(dp1888
g14
I14186
sg15
g803
sa(dp1889
g14
I14231
sg15
g810
sa(dp1890
g14
I14246
sg15
g821
sa(dp1891
g14
I14264
sg15
g838
sa(dp1892
g14
I14273
sg15
g847
sasg14
I14309
sg15
g848
sa(dp1893
g1
(lp1894
(dp1895
g14
I14174
sg15
g865
sa(dp1896
g14
I14211
sg15
g876
sa(dp1897
g14
I14245
sg15
g885
sa(dp1898
g14
I14276
sg15
g890
sasg14
I14318
sg15
g891
sa(dp1899
g1
(lp1900
(dp1901
g14
I14195
sg15
g906
sa(dp1902
g14
I14236
sg15
g925
sasg14
I14331
sg15
g926
sa(dp1903
g1
(lp1904
(dp1905
g14
I14239
sg15
g935
sasg14
I14345
sg15
g936
sasg14
I14354
sg15
g937
ssI14355
(dp1906
g1
(lp1907
(dp1908
g1
(lp1909
(dp1910
g14
I14158
sg15
g549
sa(dp1911
g14
I14266
sg15
g554
sasg14
I14303
sg15
g555
sa(dp1912
g1
(lp1913
(dp1914
g14
I14161
sg15
g570
sasg14
I14305
sg15
g571
sa(dp1915
g1
(lp1916
(dp1917
g14
I14164
sg15
g578
sa(dp1918
g14
I14269
sg15
g587
sa(dp1919
g14
I14280
sg15
g594
sasg14
I14308
sg15
g595
sasg14
I14355
sg15
g596
ssI14356
(dp1920
g1
(lp1921
(dp1922
g1
(lp1923
(dp1924
g14
I14160
sg15
g1302
sa(dp1925
g14
I14218
sg15
g1307
sasg14
I14304
sg15
g1308
sa(dp1926
g1
(lp1927
(dp1928
g14
I14175
sg15
g1319
sa(dp1929
g14
I14240
sg15
g1326
sa(dp1930
g14
I14284
sg15
g1333
sasg14
I14319
sg15
g1334
sa(dp1931
g1
(lp1932
(dp1933
g14
I14177
sg15
g1347
sasg14
I14321
sg15
g1348
sasg14
I14356
sg15
g1349
ssI14357
(dp1934
g1
(lp1935
(dp1936
g1
(lp1937
(dp1938
g14
I14162
sg15
g134
sa(dp1939
g14
I14238
sg15
g139
sasg14
I14306
sg15
g140
sa(dp1940
g1
(lp1941
(dp1942
g14
I14225
sg15
g151
sa(dp1943
g14
I14257
sg15
g158
sasg14
I14342
sg15
g159
sasg14
I14357
sg15
g160
ssI14358
(dp1944
g1
(lp1945
(dp1946
g1
(lp1947
(dp1948
g14
I14163
sg15
g1363
sa(dp1949
g14
I14260
sg15
g1374
sasg14
I14307
sg15
g1375
sa(dp1950
g1
(lp1951
(dp1952
g14
I14171
sg15
g1386
sa(dp1953
g14
I14251
sg15
g1391
sa(dp1954
g14
I14270
sg15
g1398
sa(dp1955
g14
I14287
sg15
g1405
sa(dp1956
g14
I14291
sg15
g1412
sa(dp1957
g14
I14294
sg15
g1417
sasg14
I14315
sg15
g1418
sasg14
I14358
sg15
g1419
ssI14359
(dp1958
g1
(lp1959
(dp1960
g1
(lp1961
(dp1962
g14
I14166
sg15
g1537
sa(dp1963
g14
I14252
sg15
g1546
sasg14
I14310
sg15
g1547
sa(dp1964
g1
(lp1965
(dp1966
g14
I14168
sg15
g1556
sa(dp1967
g14
I14233
sg15
g1571
sasg14
I14312
sg15
g1572
sa(dp1968
g1
(lp1969
(dp1970
g14
I14176
sg15
g1589
sa(dp1971
g14
I14228
sg15
g1596
sa(dp1972
g14
I14255
sg15
g1611
sa(dp1973
g14
I14258
sg15
g1618
sa(dp1974
g14
I14268
sg15
g1623
sasg14
I14320
sg15
g1624
sa(dp1975
g1
(lp1976
(dp1977
g14
I14230
sg15
g1639
sa(dp1978
g14
I14262
sg15
g1644
sasg14
I14344
sg15
g1645
sasg14
I14359
sg15
g1646
ssI14360
(dp1979
g1
(lp1980
(dp1981
g1
(lp1982
(dp1983
g14
I14167
sg15
g959
sa(dp1984
g14
I14182
sg15
g972
sa(dp1985
g14
I14197
sg15
g981
sa(dp1986
g14
I14241
sg15
g998
sasg14
I14311
sg15
g999
sasg14
I14360
sg15
g1000
ssI14361
(dp1987
g1
(lp1988
(dp1989
g1
(lp1990
(dp1991
g14
I14169
sg15
g242
sa(dp1992
g14
I14282
sg15
g247
sa(dp1993
g14
I14290
sg15
g254
sa(dp1994
g14
I14296
sg15
g259
sasg14
I14313
sg15
g260
sa(dp1995
g1
(lp1996
(dp1997
g14
I14181
sg15
g267
sa(dp1998
g14
I14235
sg15
g284
sasg14
I14323
sg15
g285
sa(dp1999
g1
(lp2000
(dp2001
g14
I14285
sg15
g292
sa(dp2002
g14
I14295
sg15
g297
sasg14
I14350
sg15
g298
sasg14
I14361
sg15
g299
ssI14362
(dp2003
g1
(lp2004
(dp2005
g1
(lp2006
(dp2007
g14
I14172
sg15
g613
sa(dp2008
g14
I14196
sg15
g632
sasg14
I14316
sg15
g633
sa(dp2009
g1
(lp2010
(dp2011
g14
I14179
sg15
g650
sa(dp2012
g14
I14216
sg15
g663
sasg14
I14322
sg15
g664
sasg14
I14362
sg15
g665
ssI14363
(dp2013
g1
(lp2014
(dp2015
g1
(lp2016
(dp2017
g14
I14173
sg15
g1121
sa(dp2018
g14
I14209
sg15
g1134
sasg14
I14317
sg15
g1135
sa(dp2019
g1
(lp2020
(dp2021
g14
I14223
sg15
g1148
sa(dp2022
g14
I14237
sg15
g1155
sasg14
I14340
sg15
g1156
sasg14
I14363
sg15
g1157
ssI14364
(dp2023
g1
(lp2024
(dp2025
g1
(lp2026
(dp2027
g14
I14185
sg15
g1172
sa(dp2028
g14
I14199
sg15
g1187
sa(dp2029
g14
I14275
sg15
g1198
sasg14
I14324
sg15
g1199
sa(dp2030
g1
(lp2031
(dp2032
g14
I14188
sg15
g1222
sa(dp2033
g14
I14190
sg15
g1231
sa(dp2034
g14
I14204
sg15
g1250
sa(dp2035
g14
I14213
sg15
g1259
sa(dp2036
g14
I14214
sg15
g1272
sa(dp2037
g14
I14217
sg15
g1283
sasg14
I14326
sg15
g1284
sasg14
I14364
sg15
g1285
ssI14365
(dp2038
g1
(lp2039
(dp2040
g1
(lp2041
(dp2042
g14
I14189
sg15
g1432
sa(dp2043
g14
I14207
sg15
g1437
sasg14
I14327
sg15
g1438
sa(dp2044
g1
(lp2045
(dp2046
g14
I14194
sg15
g1445
sa(dp2047
g14
I14201
sg15
g1452
sa(dp2048
g14
I14293
sg15
g1457
sasg14
I14330
sg15
g1458
sa(dp2049
g1
(lp2050
(dp2051
g14
I14286
sg15
g1465
sa(dp2052
g14
I14289
sg15
g1470
sasg14
I14351
sg15
g1471
sasg14
I14365
sg15
g1472
ssI14366
(dp2053
g1
(lp2054
(dp2055
g1
(lp2056
(dp2057
g14
I14192
sg15
g320
sa(dp2058
g14
I14206
sg15
g333
sasg14
I14328
sg15
g334
sa(dp2059
g1
(lp2060
(dp2061
g14
I14250
sg15
g349
sa(dp2062
g14
I14271
sg15
g354
sasg14
I14347
sg15
g355
sasg14
I14366
sg15
g356
ssI14367
(dp2063
g1
(lp2064
(dp2065
g1
(lp2066
(dp2067
g14
I14193
sg15
g169
sasg14
I14329
sg15
g170
sa(dp2068
g1
(lp2069
(dp2070
g14
I14198
sg15
g177
sa(dp2071
g14
I14281
sg15
g184
sa(dp2072
g14
I14283
sg15
g189
sa(dp2073
g14
I14288
sg15
g194
sasg14
I14332
sg15
g195
sasg14
I14367
sg15
g196
ssI14368
(dp2074
g1
(lp2075
(dp2076
g1
(lp2077
(dp2078
g14
I14200
sg15
g213
sasg14
I14333
sg15
g214
sa(dp2079
g1
(lp2080
(dp2081
g14
I14263
sg15
g221
sa(dp2082
g14
I14277
sg15
g226
sasg14
I14348
sg15
g227
sasg14
I14368
sg15
g228
ssI14369
(dp2083
g1
(lp2084
(dp2085
g1
(lp2086
(dp2087
g14
I14203
sg15
g1017
sasg14
I14334
sg15
g1018
sa(dp2088
g1
(lp2089
(dp2090
g14
I14227
sg15
g1027
sa(dp2091
g14
I14249
sg15
g1036
sa(dp2092
g14
I14256
sg15
g1041
sa(dp2093
g14
I14265
sg15
g1050
sasg14
I14343
sg15
g1051
sasg14
I14369
sg15
g1052
ssI14370
(dp2094
g1
(lp2095
(dp2096
g1
(lp2097
(dp2098
g14
I14208
sg15
g377
sasg14
I14335
sg15
g378
sa(dp2099
g1
(lp2100
(dp2101
g14
I14224
sg15
g399
sa(dp2102
g14
I14278
sg15
g406
sasg14
I14341
sg15
g407
sasg14
I14370
sg15
g408
ssI14371
(dp2103
g1
(lp2104
(dp2105
g1
(lp2106
(dp2107
g14
I14210
sg15
g1065
sa(dp2108
g14
I14226
sg15
g1076
sa(dp2109
g14
I14259
sg15
g1081
sasg14
I14336
sg15
g1082
sa(dp2110
g1
(lp2111
(dp2112
g14
I14212
sg15
g1095
sasg14
I14337
sg15
g1096
sasg14
I14371
sg15
g1097
ssI14372
(dp2113
g1
(lp2114
(dp2115
g1
(lp2116
(dp2117
g14
I14219
sg15
g1485
sa(dp2118
g14
I14292
sg15
g1492
sasg14
I14339
sg15
g1493
sa(dp2119
g1
(lp2120
(dp2121
g14
I14243
sg15
g1502
sa(dp2122
g14
I14244
sg15
g1507
sasg14
I14346
sg15
g1508
sa(dp2123
g1
(lp2124
(dp2125
g14
I14274
sg15
g1515
sa(dp2126
g14
I14297
sg15
g1517
sasg14
I14349
sg15
g1518
sasg14
I14372
sg15
g1519
ssI14373
(dp2127
g1
(lp2128
(dp2129
g1
(lp2130
(dp2131
g14
I14298
sg15
g55
sa(dp2132
g14
I14325
sg15
g86
sa(dp2133
g14
I14338
sg15
g119
sasg14
I14352
sg15
g120
sasg14
I14373
sg15
g121
ssI14374
(dp2134
g1
(lp2135
(dp2136
g1
(lp2137
(dp2138
g14
I14299
sg15
g437
sa(dp2139
g14
I14302
sg15
g497
sa(dp2140
g14
I14314
sg15
g535
sasg14
I14353
sg15
g536
sa(dp2141
g1
(lp2142
(dp2143
g14
I14303
sg15
g555
sa(dp2144
g14
I14305
sg15
g571
sa(dp2145
g14
I14308
sg15
g595
sasg14
I14355
sg15
g596
sa(dp2146
g1
(lp2147
(dp2148
g14
I14316
sg15
g633
sa(dp2149
g14
I14322
sg15
g664
sasg14
I14362
sg15
g665
sasg14
I14374
sg15
g666
ssI14375
(dp2150
g1
(lp2151
(dp2152
g1
(lp2153
(dp2154
g14
I14300
sg15
g725
sa(dp2155
g14
I14301
sg15
g768
sa(dp2156
g14
I14309
sg15
g848
sa(dp2157
g14
I14318
sg15
g891
sa(dp2158
g14
I14331
sg15
g926
sa(dp2159
g14
I14345
sg15
g936
sasg14
I14354
sg15
g937
sasg14
I14375
sg15
g938
ssI14376
(dp2160
g1
(lp2161
(dp2162
g1
(lp2163
(dp2164
g14
I14304
sg15
g1308
sa(dp2165
g14
I14319
sg15
g1334
sa(dp2166
g14
I14321
sg15
g1348
sasg14
I14356
sg15
g1349
sasg14
I14376
sg15
g1350
ssI14377
(dp2167
g1
(lp2168
(dp2169
g1
(lp2170
(dp2171
g14
I14306
sg15
g140
sa(dp2172
g14
I14342
sg15
g159
sasg14
I14357
sg15
g160
sa(dp2173
g1
(lp2174
(dp2175
g14
I14329
sg15
g170
sa(dp2176
g14
I14332
sg15
g195
sasg14
I14367
sg15
g196
sa(dp2177
g1
(lp2178
(dp2179
g14
I14333
sg15
g214
sa(dp2180
g14
I14348
sg15
g227
sasg14
I14368
sg15
g228
sasg14
I14377
sg15
g229
ssI14378
(dp2181
g1
(lp2182
(dp2183
g1
(lp2184
(dp2185
g14
I14307
sg15
g1375
sa(dp2186
g14
I14315
sg15
g1418
sasg14
I14358
sg15
g1419
sa(dp2187
g1
(lp2188
(dp2189
g14
I14327
sg15
g1438
sa(dp2190
g14
I14330
sg15
g1458
sa(dp2191
g14
I14351
sg15
g1471
sasg14
I14365
sg15
g1472
sa(dp2192
g1
(lp2193
(dp2194
g14
I14339
sg15
g1493
sa(dp2195
g14
I14346
sg15
g1508
sa(dp2196
g14
I14349
sg15
g1518
sasg14
I14372
sg15
g1519
sasg14
I14378
sg15
g1520
ssI14379
(dp2197
g1
(lp2198
(dp2199
g1
(lp2200
(dp2201
g14
I14310
sg15
g1547
sa(dp2202
g14
I14312
sg15
g1572
sa(dp2203
g14
I14320
sg15
g1624
sa(dp2204
g14
I14344
sg15
g1645
sasg14
I14359
sg15
g1646
sasg14
I14379
sg15
g1647
ssI14380
(dp2205
g1
(lp2206
(dp2207
g1
(lp2208
(dp2209
g14
I14311
sg15
g999
sasg14
I14360
sg15
g1000
sa(dp2210
g1
(lp2211
(dp2212
g14
I14334
sg15
g1018
sa(dp2213
g14
I14343
sg15
g1051
sasg14
I14369
sg15
g1052
sa(dp2214
g1
(lp2215
(dp2216
g14
I14336
sg15
g1082
sa(dp2217
g14
I14337
sg15
g1096
sasg14
I14371
sg15
g1097
sasg14
I14380
sg15
g1098
ssI14381
(dp2218
g1
(lp2219
(dp2220
g1
(lp2221
(dp2222
g14
I14313
sg15
g260
sa(dp2223
g14
I14323
sg15
g285
sa(dp2224
g14
I14350
sg15
g298
sasg14
I14361
sg15
g299
sa(dp2225
g1
(lp2226
(dp2227
g14
I14328
sg15
g334
sa(dp2228
g14
I14347
sg15
g355
sasg14
I14366
sg15
g356
sa(dp2229
g1
(lp2230
(dp2231
g14
I14335
sg15
g378
sa(dp2232
g14
I14341
sg15
g407
sasg14
I14370
sg15
g408
sasg14
I14381
sg15
g409
ssI14382
(dp2233
g1
(lp2234
(dp2235
g1
(lp2236
(dp2237
g14
I14317
sg15
g1135
sa(dp2238
g14
I14340
sg15
g1156
sasg14
I14363
sg15
g1157
sa(dp2239
g1
(lp2240
(dp2241
g14
I14324
sg15
g1199
sa(dp2242
g14
I14326
sg15
g1284
sasg14
I14364
sg15
g1285
sasg14
I14382
sg15
g1286
ssI14383
(dp2243
g1
(lp2244
(dp2245
g1
(lp2246
(dp2247
g14
I14352
sg15
g120
sasg14
I14373
sg15
g121
sa(dp2248
g1
(lp2249
(dp2250
g14
I14357
sg15
g160
sa(dp2251
g14
I14367
sg15
g196
sa(dp2252
g14
I14368
sg15
g228
sasg14
I14377
sg15
g229
sa(dp2253
g1
(lp2254
(dp2255
g14
I14361
sg15
g299
sa(dp2256
g14
I14366
sg15
g356
sa(dp2257
g14
I14370
sg15
g408
sasg14
I14381
sg15
g409
sasg14
I14383
sg15
g410
ssI14384
(dp2258
g1
(lp2259
(dp2260
g1
(lp2261
(dp2262
g14
I14353
sg15
g536
sa(dp2263
g14
I14355
sg15
g596
sa(dp2264
g14
I14362
sg15
g665
sasg14
I14374
sg15
g666
sa(dp2265
g1
(lp2266
(dp2267
g14
I14354
sg15
g937
sasg14
I14375
sg15
g938
sa(dp2268
g1
(lp2269
(dp2270
g14
I14360
sg15
g1000
sa(dp2271
g14
I14369
sg15
g1052
sa(dp2272
g14
I14371
sg15
g1097
sasg14
I14380
sg15
g1098
sa(dp2273
g1
(lp2274
(dp2275
g14
I14363
sg15
g1157
sa(dp2276
g14
I14364
sg15
g1285
sasg14
I14382
sg15
g1286
sasg14
I14384
sg15
g1287
ssI14385
(dp2277
g1
(lp2278
(dp2279
g1
(lp2280
(dp2281
g14
I14356
sg15
g1349
sasg14
I14376
sg15
g1350
sa(dp2282
g1
(lp2283
(dp2284
g14
I14358
sg15
g1419
sa(dp2285
g14
I14365
sg15
g1472
sa(dp2286
g14
I14372
sg15
g1519
sasg14
I14378
sg15
g1520
sa(dp2287
g1
(lp2288
(dp2289
g14
I14359
sg15
g1646
sasg14
I14379
sg15
g1647
sasg14
I14385
sg15
g1648
ssI14386
(dp2290
g1
(lp2291
(dp2292
g1
(lp2293
(dp2294
g14
I14373
sg15
g121
sa(dp2295
g14
I14377
sg15
g229
sa(dp2296
g14
I14381
sg15
g409
sasg14
I14383
sg15
g410
sa(dp2297
g1
(lp2298
(dp2299
g14
I14374
sg15
g666
sa(dp2300
g14
I14375
sg15
g938
sa(dp2301
g14
I14380
sg15
g1098
sa(dp2302
g14
I14382
sg15
g1286
sasg14
I14384
sg15
g1287
sa(dp2303
g1
(lp2304
(dp2305
g14
I14376
sg15
g1350
sa(dp2306
g14
I14378
sg15
g1520
sa(dp2307
g14
I14379
sg15
g1647
sasg14
I14385
sg15
g1648
sasg14
I14386
sg15
g1649
ssI13676
(dp2308
g14
I13676
sg15
g16
ssI13677
(dp2309
g14
I13677
sg15
g422
ssI13678
(dp2310
g14
I13678
sg15
g676
ssI13679
(dp2311
g14
I13679
sg15
g742
ssI13680
(dp2312
g14
I13680
sg15
g443
ssI13681
(dp2313
g14
I13681
sg15
g445
ssI13682
(dp2314
g14
I13682
sg15
g544
ssI13683
(dp2315
g14
I13683
sg15
g431
ssI13684
(dp2316
g14
I13684
sg15
g1299
ssI13685
(dp2317
g14
I13685
sg15
g561
ssI13686
(dp2318
g14
I13686
sg15
g131
ssI13687
(dp2319
g14
I13687
sg15
g1360
ssI13688
(dp2320
g14
I13688
sg15
g577
ssI13689
(dp2321
g14
I13689
sg15
g774
ssI13690
(dp2322
g14
I13690
sg15
g1530
ssI13691
(dp2323
g14
I13691
sg15
g948
ssI13692
(dp2324
g14
I13692
sg15
g1553
ssI13693
(dp2325
g14
I13693
sg15
g384
ssI13694
(dp2326
g14
I13694
sg15
g503
ssI13695
(dp2327
g14
I13695
sg15
g1381
ssI13696
(dp2328
g14
I13696
sg15
g604
ssI13697
(dp2329
g14
I13697
sg15
g1108
ssI13698
(dp2330
g14
I13698
sg15
g854
ssI13699
(dp2331
g14
I13699
sg15
g1314
ssI13700
(dp2332
g14
I13700
sg15
g1578
ssI13701
(dp2333
g14
I13701
sg15
g433
ssI13702
(dp2334
g14
I13702
sg15
g1340
ssI13703
(dp2335
g14
I13703
sg15
g785
ssI13704
(dp2336
g14
I13704
sg15
g639
ssI13705
(dp2337
g14
I13705
sg15
g744
ssI13706
(dp2338
g14
I13706
sg15
g266
ssI13707
(dp2339
g14
I13707
sg15
g1316
ssI13708
(dp2340
g14
I13708
sg15
g963
ssI13709
(dp2341
g14
I13709
sg15
g452
ssI13710
(dp2342
g14
I13710
sg15
g459
ssI13711
(dp2343
g14
I13711
sg15
g1165
ssI13712
(dp2344
g14
I13712
sg15
g796
ssI13713
(dp2345
g14
I13713
sg15
g746
ssI13714
(dp2346
g14
I13714
sg15
g61
ssI13715
(dp2347
g14
I13715
sg15
g606
ssI13716
(dp2348
g14
I13716
sg15
g1205
ssI13717
(dp2349
g14
I13717
sg15
g1427
ssI13718
(dp2350
g14
I13718
sg15
g133
ssI13719
(dp2351
g14
I13719
sg15
g1226
ssI13720
(dp2352
g14
I13720
sg15
g1167
ssI13721
(dp2353
g14
I13721
sg15
g516
ssI13722
(dp2354
g14
I13722
sg15
g608
ssI13723
(dp2355
g14
I13723
sg15
g563
ssI13724
(dp2356
g14
I13724
sg15
g307
ssI13725
(dp2357
g14
I13725
sg15
g1342
ssI13726
(dp2358
g14
I13726
sg15
g168
ssI13727
(dp2359
g14
I13727
sg15
g1444
ssI13728
(dp2360
g14
I13728
sg15
g897
ssI13729
(dp2361
g14
I13729
sg15
g856
ssI13730
(dp2362
g14
I13730
sg15
g617
ssI13731
(dp2363
g14
I13731
sg15
g976
ssI13732
(dp2364
g14
I13732
sg15
g176
ssI13733
(dp2365
g14
I13733
sg15
g1176
ssI13734
(dp2366
g14
I13734
sg15
g204
ssI13735
(dp2367
g14
I13735
sg15
g1449
ssI13736
(dp2368
g14
I13736
sg15
g70
ssI13737
(dp2369
g14
I13737
sg15
g950
ssI13738
(dp2370
g14
I13738
sg15
g731
ssI13739
(dp2371
g14
I13739
sg15
g1008
ssI13740
(dp2372
g14
I13740
sg15
g1235
ssI13741
(dp2373
g14
I13741
sg15
g23
ssI13742
(dp2374
g14
I13742
sg15
g324
ssI13743
(dp2375
g14
I13743
sg15
g326
ssI13744
(dp2376
g14
I13744
sg15
g1436
ssI13745
(dp2377
g14
I13745
sg15
g364
ssI13746
(dp2378
g14
I13746
sg15
g1429
ssI13747
(dp2379
g14
I13747
sg15
g748
ssI13748
(dp2380
g14
I13748
sg15
g435
ssI13749
(dp2381
g14
I13749
sg15
g454
ssI13750
(dp2382
g14
I13750
sg15
g1125
ssI13751
(dp2383
g14
I13751
sg15
g1344
ssI13752
(dp2384
g14
I13752
sg15
g461
ssI13753
(dp2385
g14
I13753
sg15
g1060
ssI13754
(dp2386
g14
I13754
sg15
g869
ssI13755
(dp2387
g14
I13755
sg15
g424
ssI13756
(dp2388
g14
I13756
sg15
g505
ssI13757
(dp2389
g14
I13757
sg15
g1088
ssI13758
(dp2390
g14
I13758
sg15
g641
ssI13759
(dp2391
g14
I13759
sg15
g72
ssI13760
(dp2392
g14
I13760
sg15
g1254
ssI13761
(dp2393
g14
I13761
sg15
g1555
ssI13762
(dp2394
g14
I13762
sg15
g1263
ssI13763
(dp2395
g14
I13763
sg15
g92
ssI13764
(dp2396
g14
I13764
sg15
g610
ssI13765
(dp2397
g14
I13765
sg15
g858
ssI13766
(dp2398
g14
I13766
sg15
g94
ssI13767
(dp2399
g14
I13767
sg15
g654
ssI13768
(dp2400
g14
I13768
sg15
g328
ssI13769
(dp2401
g14
I13769
sg15
g1276
ssI13770
(dp2402
g14
I13770
sg15
g1306
ssI13771
(dp2403
g14
I13771
sg15
g1256
ssI13772
(dp2404
g14
I13772
sg15
g1480
ssI13773
(dp2405
g14
I13773
sg15
g99
ssI13774
(dp2406
g14
I13774
sg15
g106
ssI13775
(dp2407
g14
I13775
sg15
g1127
ssI13776
(dp2408
g14
I13776
sg15
g619
ssI13777
(dp2409
g14
I13777
sg15
g755
ssI13778
(dp2410
g14
I13778
sg15
g1346
ssI13779
(dp2411
g14
I13779
sg15
g1141
ssI13780
(dp2412
g14
I13780
sg15
g386
ssI13781
(dp2413
g14
I13781
sg15
g1580
ssI13782
(dp2414
g14
I13782
sg15
g621
ssI13783
(dp2415
g14
I13783
sg15
g1265
ssI13784
(dp2416
g14
I13784
sg15
g146
ssI13785
(dp2417
g14
I13785
sg15
g1069
ssI13786
(dp2418
g14
I13786
sg15
g1110
ssI13787
(dp2419
g14
I13787
sg15
g1024
ssI13788
(dp2420
g14
I13788
sg15
g1178
ssI13789
(dp2421
g14
I13789
sg15
g565
ssI13790
(dp2422
g14
I13790
sg15
g1593
ssI13791
(dp2423
g14
I13791
sg15
g1228
ssI13792
(dp2424
g14
I13792
sg15
g643
ssI13793
(dp2425
g14
I13793
sg15
g115
ssI13794
(dp2426
g14
I13794
sg15
g74
ssI13795
(dp2427
g14
I13795
sg15
g952
ssI13796
(dp2428
g14
I13796
sg15
g1630
ssI13797
(dp2429
g14
I13797
sg15
g645
ssI13798
(dp2430
g14
I13798
sg15
g1143
ssI13799
(dp2431
g14
I13799
sg15
g750
ssI13800
(dp2432
g14
I13800
sg15
g1180
ssI13801
(dp2433
g14
I13801
sg15
g1129
ssI13802
(dp2434
g14
I13802
sg15
g807
ssI13803
(dp2435
g14
I13803
sg15
g656
ssI13804
(dp2436
g14
I13804
sg15
g681
ssI13805
(dp2437
g14
I13805
sg15
g239
ssI13806
(dp2438
g14
I13806
sg15
g388
ssI13807
(dp2439
g14
I13807
sg15
g1560
ssI13808
(dp2440
g14
I13808
sg15
g1182
ssI13809
(dp2441
g14
I13809
sg15
g1062
ssI13810
(dp2442
g14
I13810
sg15
g1090
ssI13811
(dp2443
g14
I13811
sg15
g447
ssI13812
(dp2444
g14
I13812
sg15
g474
ssI13813
(dp2445
g14
I13813
sg15
g271
ssI13814
(dp2446
g14
I13814
sg15
g910
ssI13815
(dp2447
g14
I13815
sg15
g476
ssI13816
(dp2448
g14
I13816
sg15
g1582
ssI13817
(dp2449
g14
I13817
sg15
g965
ssI13818
(dp2450
g14
I13818
sg15
g1152
ssI13819
(dp2451
g14
I13819
sg15
g1092
ssI13820
(dp2452
g14
I13820
sg15
g206
ssI13821
(dp2453
g14
I13821
sg15
g330
ssI13822
(dp2454
g14
I13822
sg15
g25
ssI13823
(dp2455
g14
I13823
sg15
g1071
ssI13824
(dp2456
g14
I13824
sg15
g138
ssI13825
(dp2457
g14
I13825
sg15
g658
ssI13826
(dp2458
g14
I13826
sg15
g932
ssI13827
(dp2459
g14
I13827
sg15
g1323
ssI13828
(dp2460
g14
I13828
sg15
g978
ssI13829
(dp2461
g14
I13829
sg15
g1318
ssI13830
(dp2462
g14
I13830
sg15
g985
ssI13831
(dp2463
g14
I13831
sg15
g686
ssI13832
(dp2464
g14
I13832
sg15
g1499
ssI13833
(dp2465
g14
I13833
sg15
g507
ssI13834
(dp2466
g14
I13834
sg15
g1010
ssI13835
(dp2467
g14
I13835
sg15
g567
ssI13836
(dp2468
g14
I13836
sg15
g63
ssI13837
(dp2469
g14
I13837
sg15
g623
ssI13838
(dp2470
g14
I13838
sg15
g463
ssI13839
(dp2471
g14
I13839
sg15
g1506
ssI13840
(dp2472
g14
I13840
sg15
g117
ssI13841
(dp2473
g14
I13841
sg15
g880
ssI13842
(dp2474
g14
I13842
sg15
g1501
ssI13843
(dp2475
g14
I13843
sg15
g426
ssI13844
(dp2476
g14
I13844
sg15
g871
ssI13845
(dp2477
g14
I13845
sg15
g814
ssI13846
(dp2478
g14
I13846
sg15
g1562
ssI13847
(dp2479
g14
I13847
sg15
g787
ssI13848
(dp2480
g14
I13848
sg15
g489
ssI13849
(dp2481
g14
I13849
sg15
g273
ssI13850
(dp2482
g14
I13850
sg15
g1237
ssI13851
(dp2483
g14
I13851
sg15
g309
ssI13852
(dp2484
g14
I13852
sg15
g1239
ssI13853
(dp2485
g14
I13853
sg15
g465
ssI13854
(dp2486
g14
I13854
sg15
g873
ssI13855
(dp2487
g14
I13855
sg15
g699
ssI13856
(dp2488
g14
I13856
sg15
g1031
ssI13857
(dp2489
g14
I13857
sg15
g340
ssI13858
(dp2490
g14
I13858
sg15
g1301
ssI13859
(dp2491
g14
I13859
sg15
g882
ssI13860
(dp2492
g14
I13860
sg15
g366
ssI13861
(dp2493
g14
I13861
sg15
g1169
ssI13862
(dp2494
g14
I13862
sg15
g688
ssI13863
(dp2495
g14
I13863
sg15
g1012
ssI13864
(dp2496
g14
I13864
sg15
g1390
ssI13865
(dp2497
g14
I13865
sg15
g1541
ssI13866
(dp2498
g14
I13866
sg15
g38
ssI13867
(dp2499
g14
I13867
sg15
g776
ssI13868
(dp2500
g14
I13868
sg15
g987
ssI13869
(dp2501
g14
I13869
sg15
g625
ssI13870
(dp2502
g14
I13870
sg15
g1362
ssI13871
(dp2503
g14
I13871
sg15
g1595
ssI13872
(dp2504
g14
I13872
sg15
g708
ssI13873
(dp2505
g14
I13873
sg15
g899
ssI13874
(dp2506
g14
I13874
sg15
g76
ssI13875
(dp2507
g14
I13875
sg15
g1131
ssI13876
(dp2508
g14
I13876
sg15
g1026
ssI13877
(dp2509
g14
I13877
sg15
g78
ssI13878
(dp2510
g14
I13878
sg15
g1600
ssI13879
(dp2511
g14
I13879
sg15
g1040
ssI13880
(dp2512
g14
I13880
sg15
g660
ssI13881
(dp2513
g14
I13881
sg15
g627
ssI13882
(dp2514
g14
I13882
sg15
g612
ssI13883
(dp2515
g14
I13883
sg15
g491
ssI13884
(dp2516
g14
I13884
sg15
g155
ssI13885
(dp2517
g14
I13885
sg15
g690
ssI13886
(dp2518
g14
I13886
sg15
g733
ssI13887
(dp2519
g14
I13887
sg15
g1615
ssI13888
(dp2520
g14
I13888
sg15
g1241
ssI13889
(dp2521
g14
I13889
sg15
g493
ssI13890
(dp2522
g14
I13890
sg15
g1154
ssI13891
(dp2523
g14
I13891
sg15
g1532
ssI13892
(dp2524
g14
I13892
sg15
g368
ssI13893
(dp2525
g14
I13893
sg15
g1267
ssI13894
(dp2526
g14
I13894
sg15
g954
ssI13895
(dp2527
g14
I13895
sg15
g1243
ssI13896
(dp2528
g14
I13896
sg15
g1014
ssI13897
(dp2529
g14
I13897
sg15
g662
ssI13898
(dp2530
g14
I13898
sg15
g370
ssI13899
(dp2531
g14
I13899
sg15
g1602
ssI13900
(dp2532
g14
I13900
sg15
g108
ssI13901
(dp2533
g14
I13901
sg15
g912
ssI13902
(dp2534
g14
I13902
sg15
g735
ssI13903
(dp2535
g14
I13903
sg15
g1080
ssI13904
(dp2536
g14
I13904
sg15
g1033
ssI13905
(dp2537
g14
I13905
sg15
g569
ssI13906
(dp2538
g14
I13906
sg15
g1451
ssI13907
(dp2539
g14
I13907
sg15
g332
ssI13908
(dp2540
g14
I13908
sg15
g1367
ssI13909
(dp2541
g14
I13909
sg15
g1016
ssI13910
(dp2542
g14
I13910
sg15
g311
ssI13911
(dp2543
g14
I13911
sg15
g989
ssI13912
(dp2544
g14
I13912
sg15
g1230
ssI13913
(dp2545
g14
I13913
sg15
g533
ssI13914
(dp2546
g14
I13914
sg15
g27
ssI13915
(dp2547
g14
I13915
sg15
g1564
ssI13916
(dp2548
g14
I13916
sg15
g1643
ssI13917
(dp2549
g14
I13917
sg15
g825
ssI13918
(dp2550
g14
I13918
sg15
g478
ssI13919
(dp2551
g14
I13919
sg15
g220
ssI13920
(dp2552
g14
I13920
sg15
g778
ssI13921
(dp2553
g14
I13921
sg15
g914
ssI13922
(dp2554
g14
I13922
sg15
g80
ssI13923
(dp2555
g14
I13923
sg15
g827
ssI13924
(dp2556
g14
I13924
sg15
g1112
ssI13925
(dp2557
g14
I13925
sg15
g1045
ssI13926
(dp2558
g14
I13926
sg15
g1171
ssI13927
(dp2559
g14
I13927
sg15
g798
ssI13928
(dp2560
g14
I13928
sg15
g780
ssI13929
(dp2561
g14
I13929
sg15
g553
ssI13930
(dp2562
g14
I13930
sg15
g1369
ssI13931
(dp2563
g14
I13931
sg15
g1325
ssI13932
(dp2564
g14
I13932
sg15
g275
ssI13933
(dp2565
g14
I13933
sg15
g1604
ssI13934
(dp2566
g14
I13934
sg15
g51
ssI13935
(dp2567
g14
I13935
sg15
g208
ssI13936
(dp2568
g14
I13936
sg15
g342
ssI13937
(dp2569
g14
I13937
sg15
g710
ssI13938
(dp2570
g14
I13938
sg15
g1207
ssI13939
(dp2571
g14
I13939
sg15
g916
ssI13940
(dp2572
g14
I13940
sg15
g18
ssI13941
(dp2573
g14
I13941
sg15
g829
ssI13942
(dp2574
g14
I13942
sg15
g980
ssI13943
(dp2575
g14
I13943
sg15
g1622
ssI13944
(dp2576
g14
I13944
sg15
g1566
ssI13945
(dp2577
g14
I13945
sg15
g148
ssI13946
(dp2578
g14
I13946
sg15
g157
ssI13947
(dp2579
g14
I13947
sg15
g1133
ssI13948
(dp2580
g14
I13948
sg15
g1269
ssI13949
(dp2581
g14
I13949
sg15
g582
ssI13950
(dp2582
g14
I13950
sg15
g480
ssI13951
(dp2583
g14
I13951
sg15
g509
ssI13952
(dp2584
g14
I13952
sg15
g40
ssI13953
(dp2585
g14
I13953
sg15
g1395
ssI13954
(dp2586
g14
I13954
sg15
g353
ssI13955
(dp2587
g14
I13955
sg15
g884
ssI13956
(dp2588
g14
I13956
sg15
g875
ssI13957
(dp2589
g14
I13957
sg15
g1383
ssI13958
(dp2590
g14
I13958
sg15
g717
ssI13959
(dp2591
g14
I13959
sg15
g1534
ssI13960
(dp2592
g14
I13960
sg15
g65
ssI13961
(dp2593
g14
I13961
sg15
g29
ssI13962
(dp2594
g14
I13962
sg15
g842
ssI13963
(dp2595
g14
I13963
sg15
g1617
ssI13964
(dp2596
g14
I13964
sg15
g860
ssI13965
(dp2597
g14
I13965
sg15
g934
ssI13966
(dp2598
g14
I13966
sg15
g1514
ssI13967
(dp2599
g14
I13967
sg15
g1271
ssI13968
(dp2600
g14
I13968
sg15
g1191
ssI13969
(dp2601
g14
I13969
sg15
g719
ssI13970
(dp2602
g14
I13970
sg15
g467
ssI13971
(dp2603
g14
I13971
sg15
g1632
ssI13972
(dp2604
g14
I13972
sg15
g701
ssI13973
(dp2605
g14
I13973
sg15
g967
ssI13974
(dp2606
g14
I13974
sg15
g1064
ssI13975
(dp2607
g14
I13975
sg15
g969
ssI13976
(dp2608
g14
I13976
sg15
g862
ssI13977
(dp2609
g14
I13977
sg15
g31
ssI13978
(dp2610
g14
I13978
sg15
g956
ssI13979
(dp2611
g14
I13979
sg15
g918
ssI13980
(dp2612
g14
I13980
sg15
g920
ssI13981
(dp2613
g14
I13981
sg15
g53
ssI13982
(dp2614
g14
I13982
sg15
g546
ssI13983
(dp2615
g14
I13983
sg15
g42
ssI13984
(dp2616
g14
I13984
sg15
g809
ssI13985
(dp2617
g14
I13985
sg15
g629
ssI13986
(dp2618
g14
I13986
sg15
g901
ssI13987
(dp2619
g14
I13987
sg15
g1584
ssI13988
(dp2620
g14
I13988
sg15
g816
ssI13989
(dp2621
g14
I13989
sg15
g889
ssI13990
(dp2622
g14
I13990
sg15
g372
ssI13991
(dp2623
g14
I13991
sg15
g344
ssI13992
(dp2624
g14
I13992
sg15
g518
ssI13993
(dp2625
g14
I13993
sg15
g482
ssI13994
(dp2626
g14
I13994
sg15
g1568
ssI13995
(dp2627
g14
I13995
sg15
g313
ssI13996
(dp2628
g14
I13996
sg15
g1245
ssI13997
(dp2629
g14
I13997
sg15
g548
ssI13998
(dp2630
g14
I13998
sg15
g390
ssI13999
(dp2631
g14
I13999
sg15
g210
ssI14000
(dp2632
g14
I14000
sg15
g1258
ssI14001
(dp2633
g14
I14001
sg15
g346
ssI14002
(dp2634
g14
I14002
sg15
g392
ssI14003
(dp2635
g14
I14003
sg15
g721
ssI14004
(dp2636
g14
I14004
sg15
g1114
ssI14005
(dp2637
g14
I14005
sg15
g348
ssI14006
(dp2638
g14
I14006
sg15
g1073
ssI14007
(dp2639
g14
I14007
sg15
g1543
ssI14008
(dp2640
g14
I14008
sg15
g737
ssI14009
(dp2641
g14
I14009
sg15
g225
ssI14010
(dp2642
g14
I14010
sg15
g991
ssI14011
(dp2643
g14
I14011
sg15
g584
ssI14012
(dp2644
g14
I14012
sg15
g831
ssI14013
(dp2645
g14
I14013
sg15
g1209
ssI14014
(dp2646
g14
I14014
sg15
g1184
ssI14015
(dp2647
g14
I14015
sg15
g958
ssI14016
(dp2648
g14
I14016
sg15
g789
ssI14017
(dp2649
g14
I14017
sg15
g403
ssI14018
(dp2650
g14
I14018
sg15
g844
ssI14019
(dp2651
g14
I14019
sg15
g315
ssI14020
(dp2652
g14
I14020
sg15
g1094
ssI14021
(dp2653
g14
I14021
sg15
g922
ssI14022
(dp2654
g14
I14022
sg15
g1211
ssI14023
(dp2655
g14
I14023
sg15
g150
ssI14024
(dp2656
g14
I14024
sg15
g762
ssI14025
(dp2657
g14
I14025
sg15
g1193
ssI14026
(dp2658
g14
I14026
sg15
g1570
ssI14027
(dp2659
g14
I14027
sg15
g394
ssI14028
(dp2660
g14
I14028
sg15
g586
ssI14029
(dp2661
g14
I14029
sg15
g591
ssI14030
(dp2662
g14
I14030
sg15
g1247
ssI14031
(dp2663
g14
I14031
sg15
g833
ssI14032
(dp2664
g14
I14032
sg15
g277
ssI14033
(dp2665
g14
I14033
sg15
g757
ssI14034
(dp2666
g14
I14034
sg15
g647
ssI14035
(dp2667
g14
I14035
sg15
g764
ssI14036
(dp2668
g14
I14036
sg15
g1278
ssI14037
(dp2669
g14
I14037
sg15
g520
ssI14038
(dp2670
g14
I14038
sg15
g279
ssI14039
(dp2671
g14
I14039
sg15
g396
ssI14040
(dp2672
g14
I14040
sg15
g44
ssI14041
(dp2673
g14
I14041
sg15
g818
ssI14042
(dp2674
g14
I14042
sg15
g993
ssI14043
(dp2675
g14
I14043
sg15
g181
ssI14044
(dp2676
g14
I14044
sg15
g864
ssI14045
(dp2677
g14
I14045
sg15
g246
ssI14046
(dp2678
g14
I14046
sg15
g183
ssI14047
(dp2679
g14
I14047
sg15
g1035
ssI14048
(dp2680
g14
I14048
sg15
g1213
ssI14049
(dp2681
g14
I14049
sg15
g995
ssI14050
(dp2682
g14
I14050
sg15
g511
ssI14051
(dp2683
g14
I14051
sg15
g188
ssI14052
(dp2684
g14
I14052
sg15
g484
ssI14053
(dp2685
g14
I14053
sg15
g1330
ssI14054
(dp2686
g14
I14054
sg15
g101
ssI14055
(dp2687
g14
I14055
sg15
g1195
ssI14056
(dp2688
g14
I14056
sg15
g212
ssI14057
(dp2689
g14
I14057
sg15
g522
ssI14058
(dp2690
g14
I14058
sg15
g33
ssI14059
(dp2691
g14
I14059
sg15
g835
ssI14060
(dp2692
g14
I14060
sg15
g1606
ssI14061
(dp2693
g14
I14061
sg15
g593
ssI14062
(dp2694
g14
I14062
sg15
g712
ssI14063
(dp2695
g14
I14063
sg15
g1047
ssI14064
(dp2696
g14
I14064
sg15
g1280
ssI14065
(dp2697
g14
I14065
sg15
g1186
ssI14066
(dp2698
g14
I14066
sg15
g281
ssI14067
(dp2699
g14
I14067
sg15
g1545
ssI14068
(dp2700
g14
I14068
sg15
g692
ssI14069
(dp2701
g14
I14069
sg15
g1215
ssI14070
(dp2702
g14
I14070
sg15
g1249
ssI14071
(dp2703
g14
I14071
sg15
g291
ssI14072
(dp2704
g14
I14072
sg15
g903
ssI14073
(dp2705
g14
I14073
sg15
g374
ssI14074
(dp2706
g14
I14074
sg15
g1197
ssI14075
(dp2707
g14
I14075
sg15
g495
ssI14076
(dp2708
g14
I14076
sg15
g1049
ssI14077
(dp2709
g14
I14077
sg15
g82
ssI14078
(dp2710
g14
I14078
sg15
g791
ssI14079
(dp2711
g14
I14079
sg15
g924
ssI14080
(dp2712
g14
I14080
sg15
g820
ssI14081
(dp2713
g14
I14081
sg15
g1282
ssI14082
(dp2714
g14
I14082
sg15
g703
ssI14083
(dp2715
g14
I14083
sg15
g1371
ssI14084
(dp2716
g14
I14084
sg15
g317
ssI14085
(dp2717
g14
I14085
sg15
g524
ssI14086
(dp2718
g14
I14086
sg15
g723
ssI14087
(dp2719
g14
I14087
sg15
g1608
ssI14088
(dp2720
g14
I14088
sg15
g84
ssI14089
(dp2721
g14
I14089
sg15
g1464
ssI14090
(dp2722
g14
I14090
sg15
g1402
ssI14091
(dp2723
g14
I14091
sg15
g1431
ssI14092
(dp2724
g14
I14092
sg15
g526
ssI14093
(dp2725
g14
I14093
sg15
g837
ssI14094
(dp2726
g14
I14094
sg15
g193
ssI14095
(dp2727
g14
I14095
sg15
g971
ssI14096
(dp2728
g14
I14096
sg15
g1469
ssI14097
(dp2729
g14
I14097
sg15
g1217
ssI14098
(dp2730
g14
I14098
sg15
g1610
ssI14099
(dp2731
g14
I14099
sg15
g649
ssI14100
(dp2732
g14
I14100
sg15
g905
ssI14101
(dp2733
g14
I14101
sg15
g694
ssI14102
(dp2734
g14
I14102
sg15
g1536
ssI14103
(dp2735
g14
I14103
sg15
g1586
ssI14104
(dp2736
g14
I14104
sg15
g1116
ssI14105
(dp2737
g14
I14105
sg15
g631
ssI14106
(dp2738
g14
I14106
sg15
g251
ssI14108
(dp2739
g14
I14108
sg15
g1075
ssI14109
(dp2740
g14
I14109
sg15
g1145
ssI14110
(dp2741
g14
I14110
sg15
g1147
ssI14111
(dp2742
g14
I14111
sg15
g110
ssI14112
(dp2743
g14
I14112
sg15
g1373
ssI14113
(dp2744
g14
I14113
sg15
g1482
ssI14114
(dp2745
g14
I14114
sg15
g1332
ssI14115
(dp2746
g14
I14115
sg15
g405
ssI14116
(dp2747
g14
I14116
sg15
g1409
ssI14117
(dp2748
g14
I14117
sg15
g1489
ssI14118
(dp2749
g14
I14118
sg15
g469
ssI14119
(dp2750
g14
I14119
sg15
g1634
ssI14120
(dp2751
g14
I14120
sg15
g1484
ssI14121
(dp2752
g14
I14121
sg15
g997
ssI14122
(dp2753
g14
I14122
sg15
g241
ssI14123
(dp2754
g14
I14123
sg15
g1636
ssI14124
(dp2755
g14
I14124
sg15
g398
ssI14126
(dp2756
g14
I14126
sg15
g376
ssI14127
(dp2757
g14
I14127
sg15
g1219
ssI14128
(dp2758
g14
I14128
sg15
g46
ssI14129
(dp2759
g14
I14129
sg15
g1118
ssI14130
(dp2760
g14
I14130
sg15
g1411
ssI14131
(dp2761
g14
I14131
sg15
g1221
ssI14132
(dp2762
g14
I14132
sg15
g846
ssI14133
(dp2763
g14
I14133
sg15
g1638
ssI14134
(dp2764
g14
I14134
sg15
g283
ssI14135
(dp2765
g14
I14135
sg15
g528
ssI14136
(dp2766
g14
I14136
sg15
g766
ssI14137
(dp2767
g14
I14137
sg15
g800
ssI14138
(dp2768
g14
I14138
sg15
g1416
ssI14139
(dp2769
g14
I14139
sg15
g1120
ssI14140
(dp2770
g14
I14140
sg15
g1491
ssI14141
(dp2771
g14
I14141
sg15
g253
ssI14142
(dp2772
g14
I14142
sg15
g1397
ssI14143
(dp2773
g14
I14143
sg15
g1385
ssI14144
(dp2774
g14
I14144
sg15
g319
ssI14145
(dp2775
g14
I14145
sg15
g296
ssI14146
(dp2776
g14
I14146
sg15
g258
ssI14147
(dp2777
g14
I14147
sg15
g802
ssI14148
(dp2778
g14
I14148
sg15
g1588
ssI14150
(dp2779
g14
I14150
sg15
g1404
ssI14151
(dp2780
g14
I14151
sg15
g1456
ssI14153
(dp2781
g1
(lp2782
(dp2783
g14
I13676
sg15
g16
sa(dp2784
g14
I13940
sg15
g18
sasg14
I14153
sg15
g19
ssI14154
(dp2785
g1
(lp2786
(dp2787
g14
I13677
sg15
g422
sa(dp2788
g14
I13755
sg15
g424
sa(dp2789
g14
I13843
sg15
g426
sasg14
I14154
sg15
g427
ssI14155
(dp2790
g1
(lp2791
(dp2792
g14
I13678
sg15
g676
sasg14
I14155
sg15
g677
ssI14156
(dp2793
g1
(lp2794
(dp2795
g14
I13738
sg15
g731
sa(dp2796
g14
I13886
sg15
g733
sa(dp2797
g14
I13902
sg15
g735
sa(dp2798
g14
I14008
sg15
g737
sasg14
I14156
sg15
g738
ssI14157
(dp2799
g1
(lp2800
(dp2801
g14
I13680
sg15
g443
sa(dp2802
g14
I13681
sg15
g445
sa(dp2803
g14
I13811
sg15
g447
sasg14
I14157
sg15
g448
ssI14158
(dp2804
g1
(lp2805
(dp2806
g14
I13682
sg15
g544
sa(dp2807
g14
I13982
sg15
g546
sa(dp2808
g14
I13997
sg15
g548
sasg14
I14158
sg15
g549
ssI14159
(dp2809
g1
(lp2810
(dp2811
g14
I13683
sg15
g431
sa(dp2812
g14
I13701
sg15
g433
sa(dp2813
g14
I13748
sg15
g435
sasg14
I14159
sg15
g436
ssI14160
(dp2814
g1
(lp2815
(dp2816
g14
I13684
sg15
g1299
sa(dp2817
g14
I13858
sg15
g1301
sasg14
I14160
sg15
g1302
ssI14161
(dp2818
g1
(lp2819
(dp2820
g14
I13685
sg15
g561
sa(dp2821
g14
I13723
sg15
g563
sa(dp2822
g14
I13789
sg15
g565
sa(dp2823
g14
I13835
sg15
g567
sa(dp2824
g14
I13905
sg15
g569
sasg14
I14161
sg15
g570
ssI14162
(dp2825
g1
(lp2826
(dp2827
g14
I13686
sg15
g131
sa(dp2828
g14
I13718
sg15
g133
sasg14
I14162
sg15
g134
ssI14163
(dp2829
g1
(lp2830
(dp2831
g14
I13687
sg15
g1360
sa(dp2832
g14
I13870
sg15
g1362
sasg14
I14163
sg15
g1363
ssI14164
(dp2833
g1
(lp2834
(dp2835
g14
I13688
sg15
g577
sasg14
I14164
sg15
g578
ssI14165
(dp2836
g1
(lp2837
(dp2838
g14
I13689
sg15
g774
sa(dp2839
g14
I13867
sg15
g776
sa(dp2840
g14
I13920
sg15
g778
sa(dp2841
g14
I13928
sg15
g780
sasg14
I14165
sg15
g781
ssI14166
(dp2842
g1
(lp2843
(dp2844
g14
I13690
sg15
g1530
sa(dp2845
g14
I13891
sg15
g1532
sa(dp2846
g14
I13959
sg15
g1534
sa(dp2847
g14
I14102
sg15
g1536
sasg14
I14166
sg15
g1537
ssI14167
(dp2848
g1
(lp2849
(dp2850
g14
I13691
sg15
g948
sa(dp2851
g14
I13737
sg15
g950
sa(dp2852
g14
I13795
sg15
g952
sa(dp2853
g14
I13894
sg15
g954
sa(dp2854
g14
I13978
sg15
g956
sa(dp2855
g14
I14015
sg15
g958
sasg14
I14167
sg15
g959
ssI14168
(dp2856
g1
(lp2857
(dp2858
g14
I13692
sg15
g1553
sa(dp2859
g14
I13761
sg15
g1555
sasg14
I14168
sg15
g1556
ssI14169
(dp2860
g1
(lp2861
(dp2862
g14
I13805
sg15
g239
sa(dp2863
g14
I14122
sg15
g241
sasg14
I14169
sg15
g242
ssI14170
(dp2864
g1
(lp2865
(dp2866
g14
I13694
sg15
g503
sa(dp2867
g14
I13756
sg15
g505
sa(dp2868
g14
I13833
sg15
g507
sa(dp2869
g14
I13951
sg15
g509
sa(dp2870
g14
I14050
sg15
g511
sasg14
I14170
sg15
g512
ssI14171
(dp2871
g1
(lp2872
(dp2873
g14
I13695
sg15
g1381
sa(dp2874
g14
I13957
sg15
g1383
sa(dp2875
g14
I14143
sg15
g1385
sasg14
I14171
sg15
g1386
ssI14172
(dp2876
g1
(lp2877
(dp2878
g14
I13696
sg15
g604
sa(dp2879
g14
I13715
sg15
g606
sa(dp2880
g14
I13722
sg15
g608
sa(dp2881
g14
I13764
sg15
g610
sa(dp2882
g14
I13882
sg15
g612
sasg14
I14172
sg15
g613
ssI14173
(dp2883
g1
(lp2884
(dp2885
g14
I13697
sg15
g1108
sa(dp2886
g14
I13786
sg15
g1110
sa(dp2887
g14
I13924
sg15
g1112
sa(dp2888
g14
I14004
sg15
g1114
sa(dp2889
g14
I14104
sg15
g1116
sa(dp2890
g14
I14129
sg15
g1118
sa(dp2891
g14
I14139
sg15
g1120
sasg14
I14173
sg15
g1121
ssI14174
(dp2892
g1
(lp2893
(dp2894
g14
I13698
sg15
g854
sa(dp2895
g14
I13729
sg15
g856
sa(dp2896
g14
I13765
sg15
g858
sa(dp2897
g14
I13964
sg15
g860
sa(dp2898
g14
I13976
sg15
g862
sa(dp2899
g14
I14044
sg15
g864
sasg14
I14174
sg15
g865
ssI14175
(dp2900
g1
(lp2901
(dp2902
g14
I13699
sg15
g1314
sa(dp2903
g14
I13707
sg15
g1316
sa(dp2904
g14
I13829
sg15
g1318
sasg14
I14175
sg15
g1319
ssI14176
(dp2905
g1
(lp2906
(dp2907
g14
I13700
sg15
g1578
sa(dp2908
g14
I13781
sg15
g1580
sa(dp2909
g14
I13816
sg15
g1582
sa(dp2910
g14
I13987
sg15
g1584
sa(dp2911
g14
I14103
sg15
g1586
sa(dp2912
g14
I14148
sg15
g1588
sasg14
I14176
sg15
g1589
ssI14177
(dp2913
g1
(lp2914
(dp2915
g14
I13702
sg15
g1340
sa(dp2916
g14
I13725
sg15
g1342
sa(dp2917
g14
I13751
sg15
g1344
sa(dp2918
g14
I13778
sg15
g1346
sasg14
I14177
sg15
g1347
ssI14178
(dp2919
g1
(lp2920
(dp2921
g14
I13703
sg15
g785
sa(dp2922
g14
I13847
sg15
g787
sa(dp2923
g14
I14016
sg15
g789
sa(dp2924
g14
I14078
sg15
g791
sasg14
I14178
sg15
g792
ssI14179
(dp2925
g1
(lp2926
(dp2927
g14
I13704
sg15
g639
sa(dp2928
g14
I13758
sg15
g641
sa(dp2929
g14
I13792
sg15
g643
sa(dp2930
g14
I13797
sg15
g645
sa(dp2931
g14
I14034
sg15
g647
sa(dp2932
g14
I14099
sg15
g649
sasg14
I14179
sg15
g650
ssI14180
(dp2933
g1
(lp2934
(dp2935
g14
I13679
sg15
g742
sa(dp2936
g14
I13705
sg15
g744
sa(dp2937
g14
I13713
sg15
g746
sa(dp2938
g14
I13747
sg15
g748
sa(dp2939
g14
I13799
sg15
g750
sasg14
I14180
sg15
g751
ssI14181
(dp2940
g1
(lp2941
(dp2942
g14
I13706
sg15
g266
sasg14
I14181
sg15
g267
ssI14182
(dp2943
g1
(lp2944
(dp2945
g14
I13708
sg15
g963
sa(dp2946
g14
I13817
sg15
g965
sa(dp2947
g14
I13973
sg15
g967
sa(dp2948
g14
I13975
sg15
g969
sa(dp2949
g14
I14095
sg15
g971
sasg14
I14182
sg15
g972
ssI14183
(dp2950
g1
(lp2951
(dp2952
g14
I13709
sg15
g452
sa(dp2953
g14
I13749
sg15
g454
sasg14
I14183
sg15
g455
ssI14184
(dp2954
g1
(lp2955
(dp2956
g14
I13710
sg15
g459
sa(dp2957
g14
I13752
sg15
g461
sa(dp2958
g14
I13838
sg15
g463
sa(dp2959
g14
I13853
sg15
g465
sa(dp2960
g14
I13970
sg15
g467
sa(dp2961
g14
I14118
sg15
g469
sasg14
I14184
sg15
g470
ssI14185
(dp2962
g1
(lp2963
(dp2964
g14
I13711
sg15
g1165
sa(dp2965
g14
I13720
sg15
g1167
sa(dp2966
g14
I13861
sg15
g1169
sa(dp2967
g14
I13926
sg15
g1171
sasg14
I14185
sg15
g1172
ssI14186
(dp2968
g1
(lp2969
(dp2970
g14
I13712
sg15
g796
sa(dp2971
g14
I13927
sg15
g798
sa(dp2972
g14
I14137
sg15
g800
sa(dp2973
g14
I14147
sg15
g802
sasg14
I14186
sg15
g803
ssI14187
(dp2974
g1
(lp2975
(dp2976
g14
I13714
sg15
g61
sa(dp2977
g14
I13836
sg15
g63
sa(dp2978
g14
I13960
sg15
g65
sasg14
I14187
sg15
g66
ssI14188
(dp2979
g1
(lp2980
(dp2981
g14
I13716
sg15
g1205
sa(dp2982
g14
I13938
sg15
g1207
sa(dp2983
g14
I14013
sg15
g1209
sa(dp2984
g14
I14022
sg15
g1211
sa(dp2985
g14
I14048
sg15
g1213
sa(dp2986
g14
I14069
sg15
g1215
sa(dp2987
g14
I14097
sg15
g1217
sa(dp2988
g14
I14127
sg15
g1219
sa(dp2989
g14
I14131
sg15
g1221
sasg14
I14188
sg15
g1222
ssI14189
(dp2990
g1
(lp2991
(dp2992
g14
I13717
sg15
g1427
sa(dp2993
g14
I13746
sg15
g1429
sa(dp2994
g14
I14091
sg15
g1431
sasg14
I14189
sg15
g1432
ssI14190
(dp2995
g1
(lp2996
(dp2997
g14
I13719
sg15
g1226
sa(dp2998
g14
I13791
sg15
g1228
sa(dp2999
g14
I13912
sg15
g1230
sasg14
I14190
sg15
g1231
ssI14191
(dp3000
g1
(lp3001
(dp3002
g14
I13721
sg15
g516
sa(dp3003
g14
I13992
sg15
g518
sa(dp3004
g14
I14037
sg15
g520
sa(dp3005
g14
I14057
sg15
g522
sa(dp3006
g14
I14085
sg15
g524
sa(dp3007
g14
I14092
sg15
g526
sa(dp3008
g14
I14135
sg15
g528
sasg14
I14191
sg15
g529
ssI14192
(dp3009
g1
(lp3010
(dp3011
g14
I13724
sg15
g307
sa(dp3012
g14
I13851
sg15
g309
sa(dp3013
g14
I13910
sg15
g311
sa(dp3014
g14
I13995
sg15
g313
sa(dp3015
g14
I14019
sg15
g315
sa(dp3016
g14
I14084
sg15
g317
sa(dp3017
g14
I14144
sg15
g319
sasg14
I14192
sg15
g320
ssI14193
(dp3018
g1
(lp3019
(dp3020
g14
I13726
sg15
g168
sasg14
I14193
sg15
g169
ssI14194
(dp3021
g1
(lp3022
(dp3023
g14
I13727
sg15
g1444
sasg14
I14194
sg15
g1445
ssI14195
(dp3024
g1
(lp3025
(dp3026
g14
I13728
sg15
g897
sa(dp3027
g14
I13873
sg15
g899
sa(dp3028
g14
I13986
sg15
g901
sa(dp3029
g14
I14072
sg15
g903
sa(dp3030
g14
I14100
sg15
g905
sasg14
I14195
sg15
g906
ssI14196
(dp3031
g1
(lp3032
(dp3033
g14
I13730
sg15
g617
sa(dp3034
g14
I13776
sg15
g619
sa(dp3035
g14
I13782
sg15
g621
sa(dp3036
g14
I13837
sg15
g623
sa(dp3037
g14
I13869
sg15
g625
sa(dp3038
g14
I13881
sg15
g627
sa(dp3039
g14
I13985
sg15
g629
sa(dp3040
g14
I14105
sg15
g631
sasg14
I14196
sg15
g632
ssI14197
(dp3041
g1
(lp3042
(dp3043
g14
I13731
sg15
g976
sa(dp3044
g14
I13828
sg15
g978
sa(dp3045
g14
I13942
sg15
g980
sasg14
I14197
sg15
g981
ssI14198
(dp3046
g1
(lp3047
(dp3048
g14
I13732
sg15
g176
sasg14
I14198
sg15
g177
ssI14199
(dp3049
g1
(lp3050
(dp3051
g14
I13733
sg15
g1176
sa(dp3052
g14
I13788
sg15
g1178
sa(dp3053
g14
I13800
sg15
g1180
sa(dp3054
g14
I13808
sg15
g1182
sa(dp3055
g14
I14014
sg15
g1184
sa(dp3056
g14
I14065
sg15
g1186
sasg14
I14199
sg15
g1187
ssI14200
(dp3057
g1
(lp3058
(dp3059
g14
I13734
sg15
g204
sa(dp3060
g14
I13820
sg15
g206
sa(dp3061
g14
I13935
sg15
g208
sa(dp3062
g14
I13999
sg15
g210
sa(dp3063
g14
I14056
sg15
g212
sasg14
I14200
sg15
g213
ssI14201
(dp3064
g1
(lp3065
(dp3066
g14
I13735
sg15
g1449
sa(dp3067
g14
I13906
sg15
g1451
sasg14
I14201
sg15
g1452
ssI14202
(dp3068
g1
(lp3069
(dp3070
g14
I13736
sg15
g70
sa(dp3071
g14
I13759
sg15
g72
sa(dp3072
g14
I13794
sg15
g74
sa(dp3073
g14
I13874
sg15
g76
sa(dp3074
g14
I13877
sg15
g78
sa(dp3075
g14
I13922
sg15
g80
sa(dp3076
g14
I14077
sg15
g82
sa(dp3077
g14
I14088
sg15
g84
sasg14
I14202
sg15
g85
ssI14203
(dp3078
g1
(lp3079
(dp3080
g14
I13739
sg15
g1008
sa(dp3081
g14
I13834
sg15
g1010
sa(dp3082
g14
I13863
sg15
g1012
sa(dp3083
g14
I13896
sg15
g1014
sa(dp3084
g14
I13909
sg15
g1016
sasg14
I14203
sg15
g1017
ssI14204
(dp3085
g1
(lp3086
(dp3087
g14
I13740
sg15
g1235
sa(dp3088
g14
I13850
sg15
g1237
sa(dp3089
g14
I13852
sg15
g1239
sa(dp3090
g14
I13888
sg15
g1241
sa(dp3091
g14
I13895
sg15
g1243
sa(dp3092
g14
I13996
sg15
g1245
sa(dp3093
g14
I14030
sg15
g1247
sa(dp3094
g14
I14070
sg15
g1249
sasg14
I14204
sg15
g1250
ssI14205
(dp3095
g1
(lp3096
(dp3097
g14
I13741
sg15
g23
sa(dp3098
g14
I13822
sg15
g25
sa(dp3099
g14
I13914
sg15
g27
sa(dp3100
g14
I13961
sg15
g29
sa(dp3101
g14
I13977
sg15
g31
sa(dp3102
g14
I14058
sg15
g33
sasg14
I14205
sg15
g34
ssI14206
(dp3103
g1
(lp3104
(dp3105
g14
I13742
sg15
g324
sa(dp3106
g14
I13743
sg15
g326
sa(dp3107
g14
I13768
sg15
g328
sa(dp3108
g14
I13821
sg15
g330
sa(dp3109
g14
I13907
sg15
g332
sasg14
I14206
sg15
g333
ssI14207
(dp3110
g1
(lp3111
(dp3112
g14
I13744
sg15
g1436
sasg14
I14207
sg15
g1437
ssI14208
(dp3113
g1
(lp3114
(dp3115
g14
I13745
sg15
g364
sa(dp3116
g14
I13860
sg15
g366
sa(dp3117
g14
I13892
sg15
g368
sa(dp3118
g14
I13898
sg15
g370
sa(dp3119
g14
I13990
sg15
g372
sa(dp3120
g14
I14073
sg15
g374
sa(dp3121
g14
I14126
sg15
g376
sasg14
I14208
sg15
g377
ssI14209
(dp3122
g1
(lp3123
(dp3124
g14
I13750
sg15
g1125
sa(dp3125
g14
I13775
sg15
g1127
sa(dp3126
g14
I13801
sg15
g1129
sa(dp3127
g14
I13875
sg15
g1131
sa(dp3128
g14
I13947
sg15
g1133
sasg14
I14209
sg15
g1134
ssI14210
(dp3129
g1
(lp3130
(dp3131
g14
I13753
sg15
g1060
sa(dp3132
g14
I13809
sg15
g1062
sa(dp3133
g14
I13974
sg15
g1064
sasg14
I14210
sg15
g1065
ssI14211
(dp3134
g1
(lp3135
(dp3136
g14
I13754
sg15
g869
sa(dp3137
g14
I13844
sg15
g871
sa(dp3138
g14
I13854
sg15
g873
sa(dp3139
g14
I13956
sg15
g875
sasg14
I14211
sg15
g876
ssI14212
(dp3140
g1
(lp3141
(dp3142
g14
I13757
sg15
g1088
sa(dp3143
g14
I13810
sg15
g1090
sa(dp3144
g14
I13819
sg15
g1092
sa(dp3145
g14
I14020
sg15
g1094
sasg14
I14212
sg15
g1095
ssI14213
(dp3146
g1
(lp3147
(dp3148
g14
I13760
sg15
g1254
sa(dp3149
g14
I13771
sg15
g1256
sa(dp3150
g14
I14000
sg15
g1258
sasg14
I14213
sg15
g1259
ssI14214
(dp3151
g1
(lp3152
(dp3153
g14
I13762
sg15
g1263
sa(dp3154
g14
I13783
sg15
g1265
sa(dp3155
g14
I13893
sg15
g1267
sa(dp3156
g14
I13948
sg15
g1269
sa(dp3157
g14
I13967
sg15
g1271
sasg14
I14214
sg15
g1272
ssI14215
(dp3158
g1
(lp3159
(dp3160
g14
I13763
sg15
g92
sa(dp3161
g14
I13766
sg15
g94
sasg14
I14215
sg15
g95
ssI14216
(dp3162
g1
(lp3163
(dp3164
g14
I13767
sg15
g654
sa(dp3165
g14
I13803
sg15
g656
sa(dp3166
g14
I13825
sg15
g658
sa(dp3167
g14
I13880
sg15
g660
sa(dp3168
g14
I13897
sg15
g662
sasg14
I14216
sg15
g663
ssI14217
(dp3169
g1
(lp3170
(dp3171
g14
I13769
sg15
g1276
sa(dp3172
g14
I14036
sg15
g1278
sa(dp3173
g14
I14064
sg15
g1280
sa(dp3174
g14
I14081
sg15
g1282
sasg14
I14217
sg15
g1283
ssI14218
(dp3175
g1
(lp3176
(dp3177
g14
I13770
sg15
g1306
sasg14
I14218
sg15
g1307
ssI14219
(dp3178
g1
(lp3179
(dp3180
g14
I13772
sg15
g1480
sa(dp3181
g14
I14113
sg15
g1482
sa(dp3182
g14
I14120
sg15
g1484
sasg14
I14219
sg15
g1485
ssI14220
(dp3183
g1
(lp3184
(dp3185
g14
I13773
sg15
g99
sa(dp3186
g14
I14054
sg15
g101
sasg14
I14220
sg15
g102
ssI14221
(dp3187
g1
(lp3188
(dp3189
g14
I13774
sg15
g106
sa(dp3190
g14
I13900
sg15
g108
sa(dp3191
g14
I14111
sg15
g110
sasg14
I14221
sg15
g111
ssI14222
(dp3192
g1
(lp3193
(dp3194
g14
I13777
sg15
g755
sa(dp3195
g14
I14033
sg15
g757
sasg14
I14222
sg15
g758
ssI14223
(dp3196
g1
(lp3197
(dp3198
g14
I13779
sg15
g1141
sa(dp3199
g14
I13798
sg15
g1143
sa(dp3200
g14
I14109
sg15
g1145
sa(dp3201
g14
I14110
sg15
g1147
sasg14
I14223
sg15
g1148
ssI14224
(dp3202
g1
(lp3203
(dp3204
g14
I13693
sg15
g384
sa(dp3205
g14
I13780
sg15
g386
sa(dp3206
g14
I13806
sg15
g388
sa(dp3207
g14
I13998
sg15
g390
sa(dp3208
g14
I14002
sg15
g392
sa(dp3209
g14
I14027
sg15
g394
sa(dp3210
g14
I14039
sg15
g396
sa(dp3211
g14
I14124
sg15
g398
sasg14
I14224
sg15
g399
ssI14225
(dp3212
g1
(lp3213
(dp3214
g14
I13784
sg15
g146
sa(dp3215
g14
I13945
sg15
g148
sa(dp3216
g14
I14023
sg15
g150
sasg14
I14225
sg15
g151
ssI14226
(dp3217
g1
(lp3218
(dp3219
g14
I13785
sg15
g1069
sa(dp3220
g14
I13823
sg15
g1071
sa(dp3221
g14
I14006
sg15
g1073
sa(dp3222
g14
I14108
sg15
g1075
sasg14
I14226
sg15
g1076
ssI14227
(dp3223
g1
(lp3224
(dp3225
g14
I13787
sg15
g1024
sa(dp3226
g14
I13876
sg15
g1026
sasg14
I14227
sg15
g1027
ssI14228
(dp3227
g1
(lp3228
(dp3229
g14
I13790
sg15
g1593
sa(dp3230
g14
I13871
sg15
g1595
sasg14
I14228
sg15
g1596
ssI14229
(dp3231
g1
(lp3232
(dp3233
g14
I13793
sg15
g115
sa(dp3234
g14
I13840
sg15
g117
sasg14
I14229
sg15
g118
ssI14230
(dp3235
g1
(lp3236
(dp3237
g14
I13796
sg15
g1630
sa(dp3238
g14
I13971
sg15
g1632
sa(dp3239
g14
I14119
sg15
g1634
sa(dp3240
g14
I14123
sg15
g1636
sa(dp3241
g14
I14133
sg15
g1638
sasg14
I14230
sg15
g1639
ssI14231
(dp3242
g1
(lp3243
(dp3244
g14
I13802
sg15
g807
sa(dp3245
g14
I13984
sg15
g809
sasg14
I14231
sg15
g810
ssI14232
(dp3246
g1
(lp3247
(dp3248
g14
I13804
sg15
g681
sasg14
I14232
sg15
g682
ssI14233
(dp3249
g1
(lp3250
(dp3251
g14
I13807
sg15
g1560
sa(dp3252
g14
I13846
sg15
g1562
sa(dp3253
g14
I13915
sg15
g1564
sa(dp3254
g14
I13944
sg15
g1566
sa(dp3255
g14
I13994
sg15
g1568
sa(dp3256
g14
I14026
sg15
g1570
sasg14
I14233
sg15
g1571
ssI14234
(dp3257
g1
(lp3258
(dp3259
g14
I13812
sg15
g474
sa(dp3260
g14
I13815
sg15
g476
sa(dp3261
g14
I13918
sg15
g478
sa(dp3262
g14
I13950
sg15
g480
sa(dp3263
g14
I13993
sg15
g482
sa(dp3264
g14
I14052
sg15
g484
sasg14
I14234
sg15
g485
ssI14235
(dp3265
g1
(lp3266
(dp3267
g14
I13813
sg15
g271
sa(dp3268
g14
I13849
sg15
g273
sa(dp3269
g14
I13932
sg15
g275
sa(dp3270
g14
I14032
sg15
g277
sa(dp3271
g14
I14038
sg15
g279
sa(dp3272
g14
I14066
sg15
g281
sa(dp3273
g14
I14134
sg15
g283
sasg14
I14235
sg15
g284
ssI14236
(dp3274
g1
(lp3275
(dp3276
g14
I13814
sg15
g910
sa(dp3277
g14
I13901
sg15
g912
sa(dp3278
g14
I13921
sg15
g914
sa(dp3279
g14
I13939
sg15
g916
sa(dp3280
g14
I13979
sg15
g918
sa(dp3281
g14
I13980
sg15
g920
sa(dp3282
g14
I14021
sg15
g922
sa(dp3283
g14
I14079
sg15
g924
sasg14
I14236
sg15
g925
ssI14237
(dp3284
g1
(lp3285
(dp3286
g14
I13818
sg15
g1152
sa(dp3287
g14
I13890
sg15
g1154
sasg14
I14237
sg15
g1155
ssI14238
(dp3288
g1
(lp3289
(dp3290
g14
I13824
sg15
g138
sasg14
I14238
sg15
g139
ssI14239
(dp3291
g1
(lp3292
(dp3293
g14
I13826
sg15
g932
sa(dp3294
g14
I13965
sg15
g934
sasg14
I14239
sg15
g935
ssI14240
(dp3295
g1
(lp3296
(dp3297
g14
I13827
sg15
g1323
sa(dp3298
g14
I13931
sg15
g1325
sasg14
I14240
sg15
g1326
ssI14241
(dp3299
g1
(lp3300
(dp3301
g14
I13830
sg15
g985
sa(dp3302
g14
I13868
sg15
g987
sa(dp3303
g14
I13911
sg15
g989
sa(dp3304
g14
I14010
sg15
g991
sa(dp3305
g14
I14042
sg15
g993
sa(dp3306
g14
I14049
sg15
g995
sa(dp3307
g14
I14121
sg15
g997
sasg14
I14241
sg15
g998
ssI14242
(dp3308
g1
(lp3309
(dp3310
g14
I13831
sg15
g686
sa(dp3311
g14
I13862
sg15
g688
sa(dp3312
g14
I13885
sg15
g690
sa(dp3313
g14
I14068
sg15
g692
sa(dp3314
g14
I14101
sg15
g694
sasg14
I14242
sg15
g695
ssI14243
(dp3315
g1
(lp3316
(dp3317
g14
I13832
sg15
g1499
sa(dp3318
g14
I13842
sg15
g1501
sasg14
I14243
sg15
g1502
ssI14244
(dp3319
g1
(lp3320
(dp3321
g14
I13839
sg15
g1506
sasg14
I14244
sg15
g1507
ssI14245
(dp3322
g1
(lp3323
(dp3324
g14
I13841
sg15
g880
sa(dp3325
g14
I13859
sg15
g882
sa(dp3326
g14
I13955
sg15
g884
sasg14
I14245
sg15
g885
ssI14246
(dp3327
g1
(lp3328
(dp3329
g14
I13845
sg15
g814
sa(dp3330
g14
I13988
sg15
g816
sa(dp3331
g14
I14041
sg15
g818
sa(dp3332
g14
I14080
sg15
g820
sasg14
I14246
sg15
g821
ssI14247
(dp3333
g1
(lp3334
(dp3335
g14
I13848
sg15
g489
sa(dp3336
g14
I13883
sg15
g491
sa(dp3337
g14
I13889
sg15
g493
sa(dp3338
g14
I14075
sg15
g495
sasg14
I14247
sg15
g496
ssI14248
(dp3339
g1
(lp3340
(dp3341
g14
I13855
sg15
g699
sa(dp3342
g14
I13972
sg15
g701
sa(dp3343
g14
I14082
sg15
g703
sasg14
I14248
sg15
g704
ssI14249
(dp3344
g1
(lp3345
(dp3346
g14
I13856
sg15
g1031
sa(dp3347
g14
I13904
sg15
g1033
sa(dp3348
g14
I14047
sg15
g1035
sasg14
I14249
sg15
g1036
ssI14250
(dp3349
g1
(lp3350
(dp3351
g14
I13857
sg15
g340
sa(dp3352
g14
I13936
sg15
g342
sa(dp3353
g14
I13991
sg15
g344
sa(dp3354
g14
I14001
sg15
g346
sa(dp3355
g14
I14005
sg15
g348
sasg14
I14250
sg15
g349
ssI14251
(dp3356
g1
(lp3357
(dp3358
g14
I13864
sg15
g1390
sasg14
I14251
sg15
g1391
ssI14252
(dp3359
g1
(lp3360
(dp3361
g14
I13865
sg15
g1541
sa(dp3362
g14
I14007
sg15
g1543
sa(dp3363
g14
I14067
sg15
g1545
sasg14
I14252
sg15
g1546
ssI14253
(dp3364
g1
(lp3365
(dp3366
g14
I13866
sg15
g38
sa(dp3367
g14
I13952
sg15
g40
sa(dp3368
g14
I13983
sg15
g42
sa(dp3369
g14
I14040
sg15
g44
sa(dp3370
g14
I14128
sg15
g46
sasg14
I14253
sg15
g47
ssI14254
(dp3371
g1
(lp3372
(dp3373
g14
I13872
sg15
g708
sa(dp3374
g14
I13937
sg15
g710
sa(dp3375
g14
I14062
sg15
g712
sasg14
I14254
sg15
g713
ssI14255
(dp3376
g1
(lp3377
(dp3378
g14
I13878
sg15
g1600
sa(dp3379
g14
I13899
sg15
g1602
sa(dp3380
g14
I13933
sg15
g1604
sa(dp3381
g14
I14060
sg15
g1606
sa(dp3382
g14
I14087
sg15
g1608
sa(dp3383
g14
I14098
sg15
g1610
sasg14
I14255
sg15
g1611
ssI14256
(dp3384
g1
(lp3385
(dp3386
g14
I13879
sg15
g1040
sasg14
I14256
sg15
g1041
ssI14257
(dp3387
g1
(lp3388
(dp3389
g14
I13884
sg15
g155
sa(dp3390
g14
I13946
sg15
g157
sasg14
I14257
sg15
g158
ssI14258
(dp3391
g1
(lp3392
(dp3393
g14
I13887
sg15
g1615
sa(dp3394
g14
I13963
sg15
g1617
sasg14
I14258
sg15
g1618
ssI14259
(dp3395
g1
(lp3396
(dp3397
g14
I13903
sg15
g1080
sasg14
I14259
sg15
g1081
ssI14260
(dp3398
g1
(lp3399
(dp3400
g14
I13908
sg15
g1367
sa(dp3401
g14
I13930
sg15
g1369
sa(dp3402
g14
I14083
sg15
g1371
sa(dp3403
g14
I14112
sg15
g1373
sasg14
I14260
sg15
g1374
ssI14261
(dp3404
g1
(lp3405
(dp3406
g14
I13913
sg15
g533
sasg14
I14261
sg15
g534
ssI14262
(dp3407
g1
(lp3408
(dp3409
g14
I13916
sg15
g1643
sasg14
I14262
sg15
g1644
ssI14263
(dp3410
g1
(lp3411
(dp3412
g14
I13919
sg15
g220
sasg14
I14263
sg15
g221
ssI14264
(dp3413
g1
(lp3414
(dp3415
g14
I13917
sg15
g825
sa(dp3416
g14
I13923
sg15
g827
sa(dp3417
g14
I13941
sg15
g829
sa(dp3418
g14
I14012
sg15
g831
sa(dp3419
g14
I14031
sg15
g833
sa(dp3420
g14
I14059
sg15
g835
sa(dp3421
g14
I14093
sg15
g837
sasg14
I14264
sg15
g838
ssI14265
(dp3422
g1
(lp3423
(dp3424
g14
I13925
sg15
g1045
sa(dp3425
g14
I14063
sg15
g1047
sa(dp3426
g14
I14076
sg15
g1049
sasg14
I14265
sg15
g1050
ssI14266
(dp3427
g1
(lp3428
(dp3429
g14
I13929
sg15
g553
sasg14
I14266
sg15
g554
ssI14267
(dp3430
g1
(lp3431
(dp3432
g14
I13934
sg15
g51
sa(dp3433
g14
I13981
sg15
g53
sasg14
I14267
sg15
g54
ssI14268
(dp3434
g1
(lp3435
(dp3436
g14
I13943
sg15
g1622
sasg14
I14268
sg15
g1623
ssI14269
(dp3437
g1
(lp3438
(dp3439
g14
I13949
sg15
g582
sa(dp3440
g14
I14011
sg15
g584
sa(dp3441
g14
I14028
sg15
g586
sasg14
I14269
sg15
g587
ssI14270
(dp3442
g1
(lp3443
(dp3444
g14
I13953
sg15
g1395
sa(dp3445
g14
I14142
sg15
g1397
sasg14
I14270
sg15
g1398
ssI14271
(dp3446
g1
(lp3447
(dp3448
g14
I13954
sg15
g353
sasg14
I14271
sg15
g354
ssI14272
(dp3449
g1
(lp3450
(dp3451
g14
I13958
sg15
g717
sa(dp3452
g14
I13969
sg15
g719
sa(dp3453
g14
I14003
sg15
g721
sa(dp3454
g14
I14086
sg15
g723
sasg14
I14272
sg15
g724
ssI14273
(dp3455
g1
(lp3456
(dp3457
g14
I13962
sg15
g842
sa(dp3458
g14
I14018
sg15
g844
sa(dp3459
g14
I14132
sg15
g846
sasg14
I14273
sg15
g847
ssI14274
(dp3460
g1
(lp3461
(dp3462
g14
I13966
sg15
g1514
sasg14
I14274
sg15
g1515
ssI14275
(dp3463
g1
(lp3464
(dp3465
g14
I13968
sg15
g1191
sa(dp3466
g14
I14025
sg15
g1193
sa(dp3467
g14
I14055
sg15
g1195
sa(dp3468
g14
I14074
sg15
g1197
sasg14
I14275
sg15
g1198
ssI14276
(dp3469
g1
(lp3470
(dp3471
g14
I13989
sg15
g889
sasg14
I14276
sg15
g890
ssI14277
(dp3472
g1
(lp3473
(dp3474
g14
I14009
sg15
g225
sasg14
I14277
sg15
g226
ssI14278
(dp3475
g1
(lp3476
(dp3477
g14
I14017
sg15
g403
sa(dp3478
g14
I14115
sg15
g405
sasg14
I14278
sg15
g406
ssI14279
(dp3479
g1
(lp3480
(dp3481
g14
I14024
sg15
g762
sa(dp3482
g14
I14035
sg15
g764
sa(dp3483
g14
I14136
sg15
g766
sasg14
I14279
sg15
g767
ssI14280
(dp3484
g1
(lp3485
(dp3486
g14
I14029
sg15
g591
sa(dp3487
g14
I14061
sg15
g593
sasg14
I14280
sg15
g594
ssI14281
(dp3488
g1
(lp3489
(dp3490
g14
I14043
sg15
g181
sa(dp3491
g14
I14046
sg15
g183
sasg14
I14281
sg15
g184
ssI14282
(dp3492
g1
(lp3493
(dp3494
g14
I14045
sg15
g246
sasg14
I14282
sg15
g247
ssI14283
(dp3495
g1
(lp3496
(dp3497
g14
I14051
sg15
g188
sasg14
I14283
sg15
g189
ssI14284
(dp3498
g1
(lp3499
(dp3500
g14
I14053
sg15
g1330
sa(dp3501
g14
I14114
sg15
g1332
sasg14
I14284
sg15
g1333
ssI14285
(dp3502
g1
(lp3503
(dp3504
g14
I14071
sg15
g291
sasg14
I14285
sg15
g292
ssI14286
(dp3505
g1
(lp3506
(dp3507
g14
I14089
sg15
g1464
sasg14
I14286
sg15
g1465
ssI14287
(dp3508
g1
(lp3509
(dp3510
g14
I14090
sg15
g1402
sa(dp3511
g14
I14150
sg15
g1404
sasg14
I14287
sg15
g1405
ssI14288
(dp3512
g1
(lp3513
(dp3514
g14
I14094
sg15
g193
sasg14
I14288
sg15
g194
ssI14289
(dp3515
g1
(lp3516
(dp3517
g14
I14096
sg15
g1469
sasg14
I14289
sg15
g1470
ssI14290
(dp3518
g1
(lp3519
(dp3520
g14
I14106
sg15
g251
sa(dp3521
g14
I14141
sg15
g253
sasg14
I14290
sg15
g254
ssI14291
(dp3522
g1
(lp3523
(dp3524
g14
I14116
sg15
g1409
sa(dp3525
g14
I14130
sg15
g1411
sasg14
I14291
sg15
g1412
ssI14292
(dp3526
g1
(lp3527
(dp3528
g14
I14117
sg15
g1489
sa(dp3529
g14
I14140
sg15
g1491
sasg14
I14292
sg15
g1492
ssI14293
(dp3530
g1
(lp3531
(dp3532
g14
I14151
sg15
g1456
sasg14
I14293
sg15
g1457
ssI14294
(dp3533
g1
(lp3534
(dp3535
g14
I14138
sg15
g1416
sasg14
I14294
sg15
g1417
ssI14295
(dp3536
g1
(lp3537
(dp3538
g14
I14145
sg15
g296
sasg14
I14295
sg15
g297
ssI14296
(dp3539
g1
(lp3540
(dp3541
g14
I14146
sg15
g258
sasg14
I14296
sg15
g259
ssI14297
(dp3542
g14
I14297
sg15
g1517
ssI14298
(dp3543
g1
(lp3544
(dp3545
g1
(lp3546
(dp3547
g14
I13676
sg15
g16
sa(dp3548
g14
I13940
sg15
g18
sasg14
I14153
sg15
g19
sa(dp3549
g1
(lp3550
(dp3551
g14
I13741
sg15
g23
sa(dp3552
g14
I13822
sg15
g25
sa(dp3553
g14
I13914
sg15
g27
sa(dp3554
g14
I13961
sg15
g29
sa(dp3555
g14
I13977
sg15
g31
sa(dp3556
g14
I14058
sg15
g33
sasg14
I14205
sg15
g34
sa(dp3557
g1
(lp3558
(dp3559
g14
I13866
sg15
g38
sa(dp3560
g14
I13952
sg15
g40
sa(dp3561
g14
I13983
sg15
g42
sa(dp3562
g14
I14040
sg15
g44
sa(dp3563
g14
I14128
sg15
g46
sasg14
I14253
sg15
g47
sa(dp3564
g1
(lp3565
(dp3566
g14
I13934
sg15
g51
sa(dp3567
g14
I13981
sg15
g53
sasg14
I14267
sg15
g54
sasg14
I14298
sg15
g55
ssI14299
(dp3568
g1
(lp3569
(dp3570
g1
(lp3571
(dp3572
g14
I13677
sg15
g422
sa(dp3573
g14
I13755
sg15
g424
sa(dp3574
g14
I13843
sg15
g426
sasg14
I14154
sg15
g427
sa(dp3575
g1
(lp3576
(dp3577
g14
I13683
sg15
g431
sa(dp3578
g14
I13701
sg15
g433
sa(dp3579
g14
I13748
sg15
g435
sasg14
I14159
sg15
g436
sasg14
I14299
sg15
g437
ssI14300
(dp3580
g1
(lp3581
(dp3582
g1
(lp3583
(dp3584
g14
I13678
sg15
g676
sasg14
I14155
sg15
g677
sa(dp3585
g1
(lp3586
(dp3587
g14
I13804
sg15
g681
sasg14
I14232
sg15
g682
sa(dp3588
g1
(lp3589
(dp3590
g14
I13831
sg15
g686
sa(dp3591
g14
I13862
sg15
g688
sa(dp3592
g14
I13885
sg15
g690
sa(dp3593
g14
I14068
sg15
g692
sa(dp3594
g14
I14101
sg15
g694
sasg14
I14242
sg15
g695
sa(dp3595
g1
(lp3596
(dp3597
g14
I13855
sg15
g699
sa(dp3598
g14
I13972
sg15
g701
sa(dp3599
g14
I14082
sg15
g703
sasg14
I14248
sg15
g704
sa(dp3600
g1
(lp3601
(dp3602
g14
I13872
sg15
g708
sa(dp3603
g14
I13937
sg15
g710
sa(dp3604
g14
I14062
sg15
g712
sasg14
I14254
sg15
g713
sa(dp3605
g1
(lp3606
(dp3607
g14
I13958
sg15
g717
sa(dp3608
g14
I13969
sg15
g719
sa(dp3609
g14
I14003
sg15
g721
sa(dp3610
g14
I14086
sg15
g723
sasg14
I14272
sg15
g724
sasg14
I14300
sg15
g725
ssI14301
(dp3611
g1
(lp3612
(dp3613
g1
(lp3614
(dp3615
g14
I13738
sg15
g731
sa(dp3616
g14
I13886
sg15
g733
sa(dp3617
g14
I13902
sg15
g735
sa(dp3618
g14
I14008
sg15
g737
sasg14
I14156
sg15
g738
sa(dp3619
g1
(lp3620
(dp3621
g14
I13679
sg15
g742
sa(dp3622
g14
I13705
sg15
g744
sa(dp3623
g14
I13713
sg15
g746
sa(dp3624
g14
I13747
sg15
g748
sa(dp3625
g14
I13799
sg15
g750
sasg14
I14180
sg15
g751
sa(dp3626
g1
(lp3627
(dp3628
g14
I13777
sg15
g755
sa(dp3629
g14
I14033
sg15
g757
sasg14
I14222
sg15
g758
sa(dp3630
g1
(lp3631
(dp3632
g14
I14024
sg15
g762
sa(dp3633
g14
I14035
sg15
g764
sa(dp3634
g14
I14136
sg15
g766
sasg14
I14279
sg15
g767
sasg14
I14301
sg15
g768
ssI14302
(dp3635
g1
(lp3636
(dp3637
g1
(lp3638
(dp3639
g14
I13680
sg15
g443
sa(dp3640
g14
I13681
sg15
g445
sa(dp3641
g14
I13811
sg15
g447
sasg14
I14157
sg15
g448
sa(dp3642
g1
(lp3643
(dp3644
g14
I13709
sg15
g452
sa(dp3645
g14
I13749
sg15
g454
sasg14
I14183
sg15
g455
sa(dp3646
g1
(lp3647
(dp3648
g14
I13710
sg15
g459
sa(dp3649
g14
I13752
sg15
g461
sa(dp3650
g14
I13838
sg15
g463
sa(dp3651
g14
I13853
sg15
g465
sa(dp3652
g14
I13970
sg15
g467
sa(dp3653
g14
I14118
sg15
g469
sasg14
I14184
sg15
g470
sa(dp3654
g1
(lp3655
(dp3656
g14
I13812
sg15
g474
sa(dp3657
g14
I13815
sg15
g476
sa(dp3658
g14
I13918
sg15
g478
sa(dp3659
g14
I13950
sg15
g480
sa(dp3660
g14
I13993
sg15
g482
sa(dp3661
g14
I14052
sg15
g484
sasg14
I14234
sg15
g485
sa(dp3662
g1
(lp3663
(dp3664
g14
I13848
sg15
g489
sa(dp3665
g14
I13883
sg15
g491
sa(dp3666
g14
I13889
sg15
g493
sa(dp3667
g14
I14075
sg15
g495
sasg14
I14247
sg15
g496
sasg14
I14302
sg15
g497
ssI14303
(dp3668
g1
(lp3669
(dp3670
g1
(lp3671
(dp3672
g14
I13682
sg15
g544
sa(dp3673
g14
I13982
sg15
g546
sa(dp3674
g14
I13997
sg15
g548
sasg14
I14158
sg15
g549
sa(dp3675
g1
(lp3676
(dp3677
g14
I13929
sg15
g553
sasg14
I14266
sg15
g554
sasg14
I14303
sg15
g555
ssI14304
(dp3678
g1
(lp3679
(dp3680
g1
(lp3681
(dp3682
g14
I13684
sg15
g1299
sa(dp3683
g14
I13858
sg15
g1301
sasg14
I14160
sg15
g1302
sa(dp3684
g1
(lp3685
(dp3686
g14
I13770
sg15
g1306
sasg14
I14218
sg15
g1307
sasg14
I14304
sg15
g1308
ssI14305
(dp3687
g1
(lp3688
(dp3689
g1
(lp3690
(dp3691
g14
I13685
sg15
g561
sa(dp3692
g14
I13723
sg15
g563
sa(dp3693
g14
I13789
sg15
g565
sa(dp3694
g14
I13835
sg15
g567
sa(dp3695
g14
I13905
sg15
g569
sasg14
I14161
sg15
g570
sasg14
I14305
sg15
g571
ssI14306
(dp3696
g1
(lp3697
(dp3698
g1
(lp3699
(dp3700
g14
I13686
sg15
g131
sa(dp3701
g14
I13718
sg15
g133
sasg14
I14162
sg15
g134
sa(dp3702
g1
(lp3703
(dp3704
g14
I13824
sg15
g138
sasg14
I14238
sg15
g139
sasg14
I14306
sg15
g140
ssI14307
(dp3705
g1
(lp3706
(dp3707
g1
(lp3708
(dp3709
g14
I13687
sg15
g1360
sa(dp3710
g14
I13870
sg15
g1362
sasg14
I14163
sg15
g1363
sa(dp3711
g1
(lp3712
(dp3713
g14
I13908
sg15
g1367
sa(dp3714
g14
I13930
sg15
g1369
sa(dp3715
g14
I14083
sg15
g1371
sa(dp3716
g14
I14112
sg15
g1373
sasg14
I14260
sg15
g1374
sasg14
I14307
sg15
g1375
ssI14308
(dp3717
g1
(lp3718
(dp3719
g1
(lp3720
(dp3721
g14
I13688
sg15
g577
sasg14
I14164
sg15
g578
sa(dp3722
g1
(lp3723
(dp3724
g14
I13949
sg15
g582
sa(dp3725
g14
I14011
sg15
g584
sa(dp3726
g14
I14028
sg15
g586
sasg14
I14269
sg15
g587
sa(dp3727
g1
(lp3728
(dp3729
g14
I14029
sg15
g591
sa(dp3730
g14
I14061
sg15
g593
sasg14
I14280
sg15
g594
sasg14
I14308
sg15
g595
ssI14309
(dp3731
g1
(lp3732
(dp3733
g1
(lp3734
(dp3735
g14
I13689
sg15
g774
sa(dp3736
g14
I13867
sg15
g776
sa(dp3737
g14
I13920
sg15
g778
sa(dp3738
g14
I13928
sg15
g780
sasg14
I14165
sg15
g781
sa(dp3739
g1
(lp3740
(dp3741
g14
I13703
sg15
g785
sa(dp3742
g14
I13847
sg15
g787
sa(dp3743
g14
I14016
sg15
g789
sa(dp3744
g14
I14078
sg15
g791
sasg14
I14178
sg15
g792
sa(dp3745
g1
(lp3746
(dp3747
g14
I13712
sg15
g796
sa(dp3748
g14
I13927
sg15
g798
sa(dp3749
g14
I14137
sg15
g800
sa(dp3750
g14
I14147
sg15
g802
sasg14
I14186
sg15
g803
sa(dp3751
g1
(lp3752
(dp3753
g14
I13802
sg15
g807
sa(dp3754
g14
I13984
sg15
g809
sasg14
I14231
sg15
g810
sa(dp3755
g1
(lp3756
(dp3757
g14
I13845
sg15
g814
sa(dp3758
g14
I13988
sg15
g816
sa(dp3759
g14
I14041
sg15
g818
sa(dp3760
g14
I14080
sg15
g820
sasg14
I14246
sg15
g821
sa(dp3761
g1
(lp3762
(dp3763
g14
I13917
sg15
g825
sa(dp3764
g14
I13923
sg15
g827
sa(dp3765
g14
I13941
sg15
g829
sa(dp3766
g14
I14012
sg15
g831
sa(dp3767
g14
I14031
sg15
g833
sa(dp3768
g14
I14059
sg15
g835
sa(dp3769
g14
I14093
sg15
g837
sasg14
I14264
sg15
g838
sa(dp3770
g1
(lp3771
(dp3772
g14
I13962
sg15
g842
sa(dp3773
g14
I14018
sg15
g844
sa(dp3774
g14
I14132
sg15
g846
sasg14
I14273
sg15
g847
sasg14
I14309
sg15
g848
ssI14310
(dp3775
g1
(lp3776
(dp3777
g1
(lp3778
(dp3779
g14
I13690
sg15
g1530
sa(dp3780
g14
I13891
sg15
g1532
sa(dp3781
g14
I13959
sg15
g1534
sa(dp3782
g14
I14102
sg15
g1536
sasg14
I14166
sg15
g1537
sa(dp3783
g1
(lp3784
(dp3785
g14
I13865
sg15
g1541
sa(dp3786
g14
I14007
sg15
g1543
sa(dp3787
g14
I14067
sg15
g1545
sasg14
I14252
sg15
g1546
sasg14
I14310
sg15
g1547
ssI14311
(dp3788
g1
(lp3789
(dp3790
g1
(lp3791
(dp3792
g14
I13691
sg15
g948
sa(dp3793
g14
I13737
sg15
g950
sa(dp3794
g14
I13795
sg15
g952
sa(dp3795
g14
I13894
sg15
g954
sa(dp3796
g14
I13978
sg15
g956
sa(dp3797
g14
I14015
sg15
g958
sasg14
I14167
sg15
g959
sa(dp3798
g1
(lp3799
(dp3800
g14
I13708
sg15
g963
sa(dp3801
g14
I13817
sg15
g965
sa(dp3802
g14
I13973
sg15
g967
sa(dp3803
g14
I13975
sg15
g969
sa(dp3804
g14
I14095
sg15
g971
sasg14
I14182
sg15
g972
sa(dp3805
g1
(lp3806
(dp3807
g14
I13731
sg15
g976
sa(dp3808
g14
I13828
sg15
g978
sa(dp3809
g14
I13942
sg15
g980
sasg14
I14197
sg15
g981
sa(dp3810
g1
(lp3811
(dp3812
g14
I13830
sg15
g985
sa(dp3813
g14
I13868
sg15
g987
sa(dp3814
g14
I13911
sg15
g989
sa(dp3815
g14
I14010
sg15
g991
sa(dp3816
g14
I14042
sg15
g993
sa(dp3817
g14
I14049
sg15
g995
sa(dp3818
g14
I14121
sg15
g997
sasg14
I14241
sg15
g998
sasg14
I14311
sg15
g999
ssI14312
(dp3819
g1
(lp3820
(dp3821
g1
(lp3822
(dp3823
g14
I13692
sg15
g1553
sa(dp3824
g14
I13761
sg15
g1555
sasg14
I14168
sg15
g1556
sa(dp3825
g1
(lp3826
(dp3827
g14
I13807
sg15
g1560
sa(dp3828
g14
I13846
sg15
g1562
sa(dp3829
g14
I13915
sg15
g1564
sa(dp3830
g14
I13944
sg15
g1566
sa(dp3831
g14
I13994
sg15
g1568
sa(dp3832
g14
I14026
sg15
g1570
sasg14
I14233
sg15
g1571
sasg14
I14312
sg15
g1572
ssI14313
(dp3833
g1
(lp3834
(dp3835
g1
(lp3836
(dp3837
g14
I13805
sg15
g239
sa(dp3838
g14
I14122
sg15
g241
sasg14
I14169
sg15
g242
sa(dp3839
g1
(lp3840
(dp3841
g14
I14045
sg15
g246
sasg14
I14282
sg15
g247
sa(dp3842
g1
(lp3843
(dp3844
g14
I14106
sg15
g251
sa(dp3845
g14
I14141
sg15
g253
sasg14
I14290
sg15
g254
sa(dp3846
g1
(lp3847
(dp3848
g14
I14146
sg15
g258
sasg14
I14296
sg15
g259
sasg14
I14313
sg15
g260
ssI14314
(dp3849
g1
(lp3850
(dp3851
g1
(lp3852
(dp3853
g14
I13694
sg15
g503
sa(dp3854
g14
I13756
sg15
g505
sa(dp3855
g14
I13833
sg15
g507
sa(dp3856
g14
I13951
sg15
g509
sa(dp3857
g14
I14050
sg15
g511
sasg14
I14170
sg15
g512
sa(dp3858
g1
(lp3859
(dp3860
g14
I13721
sg15
g516
sa(dp3861
g14
I13992
sg15
g518
sa(dp3862
g14
I14037
sg15
g520
sa(dp3863
g14
I14057
sg15
g522
sa(dp3864
g14
I14085
sg15
g524
sa(dp3865
g14
I14092
sg15
g526
sa(dp3866
g14
I14135
sg15
g528
sasg14
I14191
sg15
g529
sa(dp3867
g1
(lp3868
(dp3869
g14
I13913
sg15
g533
sasg14
I14261
sg15
g534
sasg14
I14314
sg15
g535
ssI14315
(dp3870
g1
(lp3871
(dp3872
g1
(lp3873
(dp3874
g14
I13695
sg15
g1381
sa(dp3875
g14
I13957
sg15
g1383
sa(dp3876
g14
I14143
sg15
g1385
sasg14
I14171
sg15
g1386
sa(dp3877
g1
(lp3878
(dp3879
g14
I13864
sg15
g1390
sasg14
I14251
sg15
g1391
sa(dp3880
g1
(lp3881
(dp3882
g14
I13953
sg15
g1395
sa(dp3883
g14
I14142
sg15
g1397
sasg14
I14270
sg15
g1398
sa(dp3884
g1
(lp3885
(dp3886
g14
I14090
sg15
g1402
sa(dp3887
g14
I14150
sg15
g1404
sasg14
I14287
sg15
g1405
sa(dp3888
g1
(lp3889
(dp3890
g14
I14116
sg15
g1409
sa(dp3891
g14
I14130
sg15
g1411
sasg14
I14291
sg15
g1412
sa(dp3892
g1
(lp3893
(dp3894
g14
I14138
sg15
g1416
sasg14
I14294
sg15
g1417
sasg14
I14315
sg15
g1418
ssI14316
(dp3895
g1
(lp3896
(dp3897
g1
(lp3898
(dp3899
g14
I13696
sg15
g604
sa(dp3900
g14
I13715
sg15
g606
sa(dp3901
g14
I13722
sg15
g608
sa(dp3902
g14
I13764
sg15
g610
sa(dp3903
g14
I13882
sg15
g612
sasg14
I14172
sg15
g613
sa(dp3904
g1
(lp3905
(dp3906
g14
I13730
sg15
g617
sa(dp3907
g14
I13776
sg15
g619
sa(dp3908
g14
I13782
sg15
g621
sa(dp3909
g14
I13837
sg15
g623
sa(dp3910
g14
I13869
sg15
g625
sa(dp3911
g14
I13881
sg15
g627
sa(dp3912
g14
I13985
sg15
g629
sa(dp3913
g14
I14105
sg15
g631
sasg14
I14196
sg15
g632
sasg14
I14316
sg15
g633
ssI14317
(dp3914
g1
(lp3915
(dp3916
g1
(lp3917
(dp3918
g14
I13697
sg15
g1108
sa(dp3919
g14
I13786
sg15
g1110
sa(dp3920
g14
I13924
sg15
g1112
sa(dp3921
g14
I14004
sg15
g1114
sa(dp3922
g14
I14104
sg15
g1116
sa(dp3923
g14
I14129
sg15
g1118
sa(dp3924
g14
I14139
sg15
g1120
sasg14
I14173
sg15
g1121
sa(dp3925
g1
(lp3926
(dp3927
g14
I13750
sg15
g1125
sa(dp3928
g14
I13775
sg15
g1127
sa(dp3929
g14
I13801
sg15
g1129
sa(dp3930
g14
I13875
sg15
g1131
sa(dp3931
g14
I13947
sg15
g1133
sasg14
I14209
sg15
g1134
sasg14
I14317
sg15
g1135
ssI14318
(dp3932
g1
(lp3933
(dp3934
g1
(lp3935
(dp3936
g14
I13698
sg15
g854
sa(dp3937
g14
I13729
sg15
g856
sa(dp3938
g14
I13765
sg15
g858
sa(dp3939
g14
I13964
sg15
g860
sa(dp3940
g14
I13976
sg15
g862
sa(dp3941
g14
I14044
sg15
g864
sasg14
I14174
sg15
g865
sa(dp3942
g1
(lp3943
(dp3944
g14
I13754
sg15
g869
sa(dp3945
g14
I13844
sg15
g871
sa(dp3946
g14
I13854
sg15
g873
sa(dp3947
g14
I13956
sg15
g875
sasg14
I14211
sg15
g876
sa(dp3948
g1
(lp3949
(dp3950
g14
I13841
sg15
g880
sa(dp3951
g14
I13859
sg15
g882
sa(dp3952
g14
I13955
sg15
g884
sasg14
I14245
sg15
g885
sa(dp3953
g1
(lp3954
(dp3955
g14
I13989
sg15
g889
sasg14
I14276
sg15
g890
sasg14
I14318
sg15
g891
ssI14319
(dp3956
g1
(lp3957
(dp3958
g1
(lp3959
(dp3960
g14
I13699
sg15
g1314
sa(dp3961
g14
I13707
sg15
g1316
sa(dp3962
g14
I13829
sg15
g1318
sasg14
I14175
sg15
g1319
sa(dp3963
g1
(lp3964
(dp3965
g14
I13827
sg15
g1323
sa(dp3966
g14
I13931
sg15
g1325
sasg14
I14240
sg15
g1326
sa(dp3967
g1
(lp3968
(dp3969
g14
I14053
sg15
g1330
sa(dp3970
g14
I14114
sg15
g1332
sasg14
I14284
sg15
g1333
sasg14
I14319
sg15
g1334
ssI14320
(dp3971
g1
(lp3972
(dp3973
g1
(lp3974
(dp3975
g14
I13700
sg15
g1578
sa(dp3976
g14
I13781
sg15
g1580
sa(dp3977
g14
I13816
sg15
g1582
sa(dp3978
g14
I13987
sg15
g1584
sa(dp3979
g14
I14103
sg15
g1586
sa(dp3980
g14
I14148
sg15
g1588
sasg14
I14176
sg15
g1589
sa(dp3981
g1
(lp3982
(dp3983
g14
I13790
sg15
g1593
sa(dp3984
g14
I13871
sg15
g1595
sasg14
I14228
sg15
g1596
sa(dp3985
g1
(lp3986
(dp3987
g14
I13878
sg15
g1600
sa(dp3988
g14
I13899
sg15
g1602
sa(dp3989
g14
I13933
sg15
g1604
sa(dp3990
g14
I14060
sg15
g1606
sa(dp3991
g14
I14087
sg15
g1608
sa(dp3992
g14
I14098
sg15
g1610
sasg14
I14255
sg15
g1611
sa(dp3993
g1
(lp3994
(dp3995
g14
I13887
sg15
g1615
sa(dp3996
g14
I13963
sg15
g1617
sasg14
I14258
sg15
g1618
sa(dp3997
g1
(lp3998
(dp3999
g14
I13943
sg15
g1622
sasg14
I14268
sg15
g1623
sasg14
I14320
sg15
g1624
ssI14321
(dp4000
g1
(lp4001
(dp4002
g1
(lp4003
(dp4004
g14
I13702
sg15
g1340
sa(dp4005
g14
I13725
sg15
g1342
sa(dp4006
g14
I13751
sg15
g1344
sa(dp4007
g14
I13778
sg15
g1346
sasg14
I14177
sg15
g1347
sasg14
I14321
sg15
g1348
ssI14322
(dp4008
g1
(lp4009
(dp4010
g1
(lp4011
(dp4012
g14
I13704
sg15
g639
sa(dp4013
g14
I13758
sg15
g641
sa(dp4014
g14
I13792
sg15
g643
sa(dp4015
g14
I13797
sg15
g645
sa(dp4016
g14
I14034
sg15
g647
sa(dp4017
g14
I14099
sg15
g649
sasg14
I14179
sg15
g650
sa(dp4018
g1
(lp4019
(dp4020
g14
I13767
sg15
g654
sa(dp4021
g14
I13803
sg15
g656
sa(dp4022
g14
I13825
sg15
g658
sa(dp4023
g14
I13880
sg15
g660
sa(dp4024
g14
I13897
sg15
g662
sasg14
I14216
sg15
g663
sasg14
I14322
sg15
g664
ssI14323
(dp4025
g1
(lp4026
(dp4027
g1
(lp4028
(dp4029
g14
I13706
sg15
g266
sasg14
I14181
sg15
g267
sa(dp4030
g1
(lp4031
(dp4032
g14
I13813
sg15
g271
sa(dp4033
g14
I13849
sg15
g273
sa(dp4034
g14
I13932
sg15
g275
sa(dp4035
g14
I14032
sg15
g277
sa(dp4036
g14
I14038
sg15
g279
sa(dp4037
g14
I14066
sg15
g281
sa(dp4038
g14
I14134
sg15
g283
sasg14
I14235
sg15
g284
sasg14
I14323
sg15
g285
ssI14324
(dp4039
g1
(lp4040
(dp4041
g1
(lp4042
(dp4043
g14
I13711
sg15
g1165
sa(dp4044
g14
I13720
sg15
g1167
sa(dp4045
g14
I13861
sg15
g1169
sa(dp4046
g14
I13926
sg15
g1171
sasg14
I14185
sg15
g1172
sa(dp4047
g1
(lp4048
(dp4049
g14
I13733
sg15
g1176
sa(dp4050
g14
I13788
sg15
g1178
sa(dp4051
g14
I13800
sg15
g1180
sa(dp4052
g14
I13808
sg15
g1182
sa(dp4053
g14
I14014
sg15
g1184
sa(dp4054
g14
I14065
sg15
g1186
sasg14
I14199
sg15
g1187
sa(dp4055
g1
(lp4056
(dp4057
g14
I13968
sg15
g1191
sa(dp4058
g14
I14025
sg15
g1193
sa(dp4059
g14
I14055
sg15
g1195
sa(dp4060
g14
I14074
sg15
g1197
sasg14
I14275
sg15
g1198
sasg14
I14324
sg15
g1199
ssI14325
(dp4061
g1
(lp4062
(dp4063
g1
(lp4064
(dp4065
g14
I13714
sg15
g61
sa(dp4066
g14
I13836
sg15
g63
sa(dp4067
g14
I13960
sg15
g65
sasg14
I14187
sg15
g66
sa(dp4068
g1
(lp4069
(dp4070
g14
I13736
sg15
g70
sa(dp4071
g14
I13759
sg15
g72
sa(dp4072
g14
I13794
sg15
g74
sa(dp4073
g14
I13874
sg15
g76
sa(dp4074
g14
I13877
sg15
g78
sa(dp4075
g14
I13922
sg15
g80
sa(dp4076
g14
I14077
sg15
g82
sa(dp4077
g14
I14088
sg15
g84
sasg14
I14202
sg15
g85
sasg14
I14325
sg15
g86
ssI14326
(dp4078
g1
(lp4079
(dp4080
g1
(lp4081
(dp4082
g14
I13716
sg15
g1205
sa(dp4083
g14
I13938
sg15
g1207
sa(dp4084
g14
I14013
sg15
g1209
sa(dp4085
g14
I14022
sg15
g1211
sa(dp4086
g14
I14048
sg15
g1213
sa(dp4087
g14
I14069
sg15
g1215
sa(dp4088
g14
I14097
sg15
g1217
sa(dp4089
g14
I14127
sg15
g1219
sa(dp4090
g14
I14131
sg15
g1221
sasg14
I14188
sg15
g1222
sa(dp4091
g1
(lp4092
(dp4093
g14
I13719
sg15
g1226
sa(dp4094
g14
I13791
sg15
g1228
sa(dp4095
g14
I13912
sg15
g1230
sasg14
I14190
sg15
g1231
sa(dp4096
g1
(lp4097
(dp4098
g14
I13740
sg15
g1235
sa(dp4099
g14
I13850
sg15
g1237
sa(dp4100
g14
I13852
sg15
g1239
sa(dp4101
g14
I13888
sg15
g1241
sa(dp4102
g14
I13895
sg15
g1243
sa(dp4103
g14
I13996
sg15
g1245
sa(dp4104
g14
I14030
sg15
g1247
sa(dp4105
g14
I14070
sg15
g1249
sasg14
I14204
sg15
g1250
sa(dp4106
g1
(lp4107
(dp4108
g14
I13760
sg15
g1254
sa(dp4109
g14
I13771
sg15
g1256
sa(dp4110
g14
I14000
sg15
g1258
sasg14
I14213
sg15
g1259
sa(dp4111
g1
(lp4112
(dp4113
g14
I13762
sg15
g1263
sa(dp4114
g14
I13783
sg15
g1265
sa(dp4115
g14
I13893
sg15
g1267
sa(dp4116
g14
I13948
sg15
g1269
sa(dp4117
g14
I13967
sg15
g1271
sasg14
I14214
sg15
g1272
sa(dp4118
g1
(lp4119
(dp4120
g14
I13769
sg15
g1276
sa(dp4121
g14
I14036
sg15
g1278
sa(dp4122
g14
I14064
sg15
g1280
sa(dp4123
g14
I14081
sg15
g1282
sasg14
I14217
sg15
g1283
sasg14
I14326
sg15
g1284
ssI14327
(dp4124
g1
(lp4125
(dp4126
g1
(lp4127
(dp4128
g14
I13717
sg15
g1427
sa(dp4129
g14
I13746
sg15
g1429
sa(dp4130
g14
I14091
sg15
g1431
sasg14
I14189
sg15
g1432
sa(dp4131
g1
(lp4132
(dp4133
g14
I13744
sg15
g1436
sasg14
I14207
sg15
g1437
sasg14
I14327
sg15
g1438
ssI14328
(dp4134
g1
(lp4135
(dp4136
g1
(lp4137
(dp4138
g14
I13724
sg15
g307
sa(dp4139
g14
I13851
sg15
g309
sa(dp4140
g14
I13910
sg15
g311
sa(dp4141
g14
I13995
sg15
g313
sa(dp4142
g14
I14019
sg15
g315
sa(dp4143
g14
I14084
sg15
g317
sa(dp4144
g14
I14144
sg15
g319
sasg14
I14192
sg15
g320
sa(dp4145
g1
(lp4146
(dp4147
g14
I13742
sg15
g324
sa(dp4148
g14
I13743
sg15
g326
sa(dp4149
g14
I13768
sg15
g328
sa(dp4150
g14
I13821
sg15
g330
sa(dp4151
g14
I13907
sg15
g332
sasg14
I14206
sg15
g333
sasg14
I14328
sg15
g334
ssI14329
(dp4152
g1
(lp4153
(dp4154
g1
(lp4155
(dp4156
g14
I13726
sg15
g168
sasg14
I14193
sg15
g169
sasg14
I14329
sg15
g170
ssI14330
(dp4157
g1
(lp4158
(dp4159
g1
(lp4160
(dp4161
g14
I13727
sg15
g1444
sasg14
I14194
sg15
g1445
sa(dp4162
g1
(lp4163
(dp4164
g14
I13735
sg15
g1449
sa(dp4165
g14
I13906
sg15
g1451
sasg14
I14201
sg15
g1452
sa(dp4166
g1
(lp4167
(dp4168
g14
I14151
sg15
g1456
sasg14
I14293
sg15
g1457
sasg14
I14330
sg15
g1458
ssI14331
(dp4169
g1
(lp4170
(dp4171
g1
(lp4172
(dp4173
g14
I13728
sg15
g897
sa(dp4174
g14
I13873
sg15
g899
sa(dp4175
g14
I13986
sg15
g901
sa(dp4176
g14
I14072
sg15
g903
sa(dp4177
g14
I14100
sg15
g905
sasg14
I14195
sg15
g906
sa(dp4178
g1
(lp4179
(dp4180
g14
I13814
sg15
g910
sa(dp4181
g14
I13901
sg15
g912
sa(dp4182
g14
I13921
sg15
g914
sa(dp4183
g14
I13939
sg15
g916
sa(dp4184
g14
I13979
sg15
g918
sa(dp4185
g14
I13980
sg15
g920
sa(dp4186
g14
I14021
sg15
g922
sa(dp4187
g14
I14079
sg15
g924
sasg14
I14236
sg15
g925
sasg14
I14331
sg15
g926
ssI14332
(dp4188
g1
(lp4189
(dp4190
g1
(lp4191
(dp4192
g14
I13732
sg15
g176
sasg14
I14198
sg15
g177
sa(dp4193
g1
(lp4194
(dp4195
g14
I14043
sg15
g181
sa(dp4196
g14
I14046
sg15
g183
sasg14
I14281
sg15
g184
sa(dp4197
g1
(lp4198
(dp4199
g14
I14051
sg15
g188
sasg14
I14283
sg15
g189
sa(dp4200
g1
(lp4201
(dp4202
g14
I14094
sg15
g193
sasg14
I14288
sg15
g194
sasg14
I14332
sg15
g195
ssI14333
(dp4203
g1
(lp4204
(dp4205
g1
(lp4206
(dp4207
g14
I13734
sg15
g204
sa(dp4208
g14
I13820
sg15
g206
sa(dp4209
g14
I13935
sg15
g208
sa(dp4210
g14
I13999
sg15
g210
sa(dp4211
g14
I14056
sg15
g212
sasg14
I14200
sg15
g213
sasg14
I14333
sg15
g214
ssI14334
(dp4212
g1
(lp4213
(dp4214
g1
(lp4215
(dp4216
g14
I13739
sg15
g1008
sa(dp4217
g14
I13834
sg15
g1010
sa(dp4218
g14
I13863
sg15
g1012
sa(dp4219
g14
I13896
sg15
g1014
sa(dp4220
g14
I13909
sg15
g1016
sasg14
I14203
sg15
g1017
sasg14
I14334
sg15
g1018
ssI14335
(dp4221
g1
(lp4222
(dp4223
g1
(lp4224
(dp4225
g14
I13745
sg15
g364
sa(dp4226
g14
I13860
sg15
g366
sa(dp4227
g14
I13892
sg15
g368
sa(dp4228
g14
I13898
sg15
g370
sa(dp4229
g14
I13990
sg15
g372
sa(dp4230
g14
I14073
sg15
g374
sa(dp4231
g14
I14126
sg15
g376
sasg14
I14208
sg15
g377
sasg14
I14335
sg15
g378
sstp4232
.