((dp0
S'children'
p1
(lp2
(dp3
g1
(lp4
(dp5
g1
(lp6
(dp7
g1
(lp8
(dp9
S'id'
p10
I0
sS'name'
p11
S'Eastern_Orthodox_Church'
p12
sa(dp13
g10
I4
sg11
S'Finland'
p14
sa(dp15
g10
I26
sg11
S'Hungary'
p16
sa(dp17
g10
I32
sg11
S'Iceland'
p18
sa(dp19
g10
I68
sg11
S'Latvia'
p20
sa(dp21
g10
I69
sg11
S'Luxembourg'
p22
sa(dp23
g10
I70
sg11
S'Lithuania'
p24
sa(dp25
g10
I125
sg11
S'Russian_Empire'
p26
sa(dp27
g10
I129
sg11
S'Countries_of_the_world'
p28
sa(dp29
g10
I130
sg11
S'Nazi_Germany'
p30
sa(dp31
g10
I151
sg11
S'Poland'
p32
sa(dp33
g10
I191
sg11
S'Romania'
p34
sa(dp35
g10
I211
sg11
S'Switzerland'
p36
sa(dp37
g10
I216
sg11
S'Slovakia'
p38
sa(dp39
g10
I217
sg11
S'Austria'
p40
sa(dp41
g10
I224
sg11
S'Slovenia'
p42
sa(dp43
g10
I226
sg11
S'Anatomical_Therapeutic_Chemical_Classification_System'
p44
sa(dp45
g10
I230
sg11
S'Estonia'
p46
sa(dp47
g10
I234
sg11
S'Serbia'
p48
sa(dp49
g10
I247
sg11
S'Ukraine'
p50
sa(dp51
g10
I267
sg11
S'Bulgaria'
p52
sa(dp53
g10
I271
sg11
S'Belarus'
p54
sa(dp55
g10
I323
sg11
S'Sweden'
p56
sa(dp57
g10
I337
sg11
S'Czech_Republic'
p58
sa(dp59
g10
I346
sg11
S'Croatia'
p60
sa(dp61
g10
I347
sg11
S'Vienna'
p62
sasg10
I408
sg11
S'Poland'
p63
sa(dp64
g1
(lp65
(dp66
g10
I3
sg11
S'Association_football'
p67
sa(dp68
g10
I42
sg11
S'Ice_hockey'
p69
sa(dp70
g10
I65
sg11
S'Melbourne'
p71
sa(dp72
g10
I74
sg11
S'London'
p73
sa(dp74
g10
I102
sg11
S'Moscow'
p75
sa(dp76
g10
I141
sg11
S'New_South_Wales'
p77
sa(dp78
g10
I150
sg11
S'Olympic_Games'
p79
sa(dp80
g10
I155
sg11
S'Paris'
p81
sa(dp82
g10
I193
sg11
S'Rome'
p83
sa(dp84
g10
I196
sg11
S'Cricket'
p85
sa(dp86
g10
I204
sg11
S'UTC+1'
p87
sa(dp88
g10
I210
sg11
S'Stockholm'
p89
sa(dp90
g10
I229
sg11
S'Sydney'
p91
sa(dp92
g10
I239
sg11
S'Tokyo'
p93
sa(dp94
g10
I261
sg11
S'Berlin'
p95
sa(dp96
g10
I300
sg11
S'Forward_(association_football)'
p97
sa(dp98
g10
I309
sg11
S'World_War_I'
p99
sa(dp100
g10
I345
sg11
S'Midfielder'
p101
sa(dp102
g10
I364
sg11
S'Defender_(association_football)'
p103
sasg10
I411
sg11
S'Association_football'
p104
sa(dp105
g1
(lp106
(dp107
g10
I9
sg11
S'Turkey'
p108
sa(dp109
g10
I46
sg11
S'Football_(soccer)'
p110
sa(dp111
g10
I59
sg11
S'Kazakhstan'
p112
sa(dp113
g10
I108
sg11
S'Morocco'
p114
sa(dp115
g10
I123
sg11
S'Vietnam'
p116
sa(dp117
g10
I188
sg11
S'Russia'
p118
sa(dp119
g10
I272
sg11
S'Bosnia_and_Herzegovina'
p120
sa(dp121
g10
I278
sg11
S'Algeria'
p122
sa(dp123
g10
I312
sg11
S'Georgia_(country)'
p124
sa(dp125
g10
I332
sg11
S'List_of_states_with_limited_recognition'
p126
sa(dp127
g10
I348
sg11
S'Cyprus'
p128
sa(dp129
g10
I369
sg11
S'Asia'
p130
sa(dp131
g10
I378
sg11
S'Afghanistan'
p132
sa(dp133
g10
I379
sg11
S'Azerbaijan'
p134
sa(dp135
g10
I380
sg11
S'Syria'
p136
sa(dp137
g10
I386
sg11
S'Egypt'
p138
sa(dp139
g10
I401
sg11
S'Israel'
p140
sasg10
I416
sg11
S'Syria'
p141
sa(dp142
g1
(lp143
(dp144
g10
I13
sg11
S'Germany'
p145
sa(dp146
g10
I16
sg11
S'Greece'
p147
sa(dp148
g10
I33
sg11
S'Italy'
p149
sa(dp150
g10
I36
sg11
S'Republic_of_Ireland'
p151
sa(dp152
g10
I128
sg11
S'Netherlands'
p153
sa(dp154
g10
I131
sg11
S'Norway'
p155
sa(dp156
g10
I156
sg11
S'Portugal'
p157
sa(dp158
g10
I182
sg11
S'Saint_Petersburg'
p159
sa(dp160
g10
I209
sg11
S'Spain'
p161
sa(dp162
g10
I214
sg11
S'Soviet_Union'
p163
sa(dp164
g10
I245
sg11
S'United_Kingdom'
p165
sa(dp166
g10
I250
sg11
S'USA'
p167
sa(dp168
g10
I260
sg11
S'Belgium'
p169
sa(dp170
g10
I291
sg11
S'United_Kingdom'
p171
sa(dp172
g10
I307
sg11
S'Australia'
p173
sa(dp174
g10
I353
sg11
S'France'
p175
sa(dp176
g10
I382
sg11
S'Denmark'
p177
sa(dp178
g10
I400
sg11
S'Europe'
p179
sa(dp180
g10
I403
sg11
S'European_Union'
p181
sasg10
I420
sg11
S'Europe'
p182
sa(dp183
g1
(lp184
(dp185
g10
I20
sg11
S'Papua_New_Guinea'
p186
sa(dp187
g10
I27
sg11
S'Hong_Kong'
p188
sa(dp189
g10
I34
sg11
S'India'
p190
sa(dp191
g10
I37
sg11
S'Indonesia'
p192
sa(dp193
g10
I38
sg11
S'Iran'
p194
sa(dp195
g10
I67
sg11
S'South_Africa'
p196
sa(dp197
g10
I83
sg11
S'Kenya'
p198
sa(dp199
g10
I110
sg11
S'BBC'
p200
sa(dp201
g10
I111
sg11
S'Burma'
p202
sa(dp203
g10
I133
sg11
S'Nigeria'
p204
sa(dp205
g10
I153
sg11
S'Papua_New_Guinea'
p206
sa(dp207
g10
I165
sg11
S'Pakistan'
p208
sa(dp209
g10
I169
sg11
S'Philippines'
p210
sa(dp211
g10
I197
sg11
S'Taiwan'
p212
sa(dp213
g10
I212
sg11
S'Sri_Lanka'
p214
sa(dp215
g10
I220
sg11
S'South_Korea'
p216
sa(dp217
g10
I221
sg11
S'Singapore'
p218
sa(dp219
g10
I240
sg11
S'Thailand'
p220
sa(dp221
g10
I259
sg11
S"People's_Republic_of_China"
p222
sa(dp223
g10
I270
sg11
S'Bangladesh'
p224
sa(dp225
g10
I273
sg11
S'Saudi_Arabia'
p226
sa(dp227
g10
I279
sg11
S'Malaysia'
p228
sa(dp229
g10
I342
sg11
S'China'
p230
sa(dp231
g10
I350
sg11
S'Iran_Standard_Time'
p232
sa(dp233
g10
I381
sg11
S'Iraq'
p234
sasg10
I423
sg11
S'Sri_Lanka'
p235
sasg10
I433
sg11
S'Turkey'
p236
sasg10
I441
sg11
S'Russia'
p237
sa(dp238
g1
(lp239
(dp240
g1
(lp241
(dp242
g1
(lp243
(dp244
g10
I1
sg11
S'International_Union_for_Conservation_of_Nature'
p245
sa(dp246
g10
I21
sg11
S'Population_density'
p247
sa(dp248
g10
I64
sg11
S'Peru'
p249
sa(dp250
g10
I73
sg11
S'List_of_countries'
p251
sa(dp252
g10
I98
sg11
S'Argentina'
p253
sa(dp254
g10
I99
sg11
S'Antarctica'
p255
sa(dp256
g10
I105
sg11
S'Drainage_basin'
p257
sa(dp258
g10
I107
sg11
S'Conservation_status'
p259
sa(dp260
g10
I127
sg11
S'North_America'
p261
sa(dp262
g10
I158
sg11
S'Pacific_Ocean'
p263
sa(dp264
g10
I201
sg11
S'New_Zealand'
p265
sa(dp266
g10
I213
sg11
S'South_America'
p267
sa(dp268
g10
I255
sg11
S'Venezuela'
p269
sa(dp270
g10
I263
sg11
S'Brazil'
p271
sa(dp272
g10
I288
sg11
S'Mexico'
p273
sa(dp274
g10
I313
sg11
S'New_Zealand'
p275
sa(dp276
g10
I319
sg11
S'Cuba'
p277
sa(dp278
g10
I320
sg11
S'Canada'
p279
sa(dp280
g10
I329
sg11
S'Colombia'
p281
sa(dp282
g10
I339
sg11
S'Africa'
p283
sa(dp284
g10
I344
sg11
S'Chile'
p285
sa(dp286
g10
I356
sg11
S'Sea_level'
p287
sa(dp288
g10
I358
sg11
S'Agriculture'
p289
sa(dp290
g10
I360
sg11
S'National_Register_of_Historic_Places'
p291
sa(dp292
g10
I371
sg11
S'Atlantic_Ocean'
p293
sa(dp294
g10
I374
sg11
S'Tributary'
p295
sa(dp296
g10
I375
sg11
S'Nonprofit_organization'
p297
sa(dp298
g10
I398
sg11
S'Earth'
p299
sasg10
I409
sg11
S'Antarctica'
p300
sa(dp301
g1
(lp302
(dp303
g10
I5
sg11
S'French_language'
p304
sa(dp305
g10
I14
sg11
S'German_language'
p306
sa(dp307
g10
I39
sg11
S'Italian_language'
p308
sa(dp309
g10
I53
sg11
S'Japanese_language'
p310
sa(dp311
g10
I120
sg11
S'Dutch_language'
p312
sa(dp313
g10
I152
sg11
S'Physics'
p314
sa(dp315
g10
I154
sg11
S'Polish_language'
p316
sa(dp317
g10
I170
sg11
S'Roman_Catholic_Church'
p318
sa(dp319
g10
I178
sg11
S'Portuguese_language'
p320
sa(dp321
g10
I190
sg11
S'Russian_language'
p322
sa(dp323
g10
I194
sg11
S'Roman_Catholic'
p324
sa(dp325
g10
I199
sg11
S'Jews'
p326
sa(dp327
g10
I215
sg11
S'Spanish_language'
p328
sa(dp329
g10
I352
sg11
S'Chinese_language'
p330
sa(dp331
g10
I373
sg11
S'Surname'
p332
sa(dp333
g10
I384
sg11
S'Quebec'
p334
sa(dp335
g10
I391
sg11
S'English_language'
p336
sasg10
I412
sg11
S'French_language'
p337
sa(dp338
g1
(lp339
(dp340
g10
I11
sg11
S'BBC_News'
p341
sa(dp342
g10
I45
sg11
S'ISO_3166'
p343
sa(dp344
g10
I52
sg11
S'Japan'
p345
sa(dp346
g10
I62
sg11
S'Types_of_business_entity'
p347
sa(dp348
g10
I80
sg11
S'NASA'
p349
sa(dp350
g10
I95
sg11
S'DMOZ'
p351
sa(dp352
g10
I143
sg11
S'UNESCO'
p353
sa(dp354
g10
I172
sg11
S'Wayback_Machine'
p355
sa(dp356
g10
I249
sg11
S'United_Nations'
p357
sa(dp358
g10
I258
sg11
S'World_War_II'
p359
sa(dp360
g10
I275
sg11
S'YouTube'
p361
sa(dp362
g10
I366
sg11
S'List_of_sovereign_states'
p363
sasg10
I418
sg11
S'Japan'
p364
sa(dp365
g1
(lp366
(dp367
g10
I22
sg11
S'Latin_language'
p368
sa(dp369
g10
I24
sg11
S'PubMed_Identifier'
p370
sa(dp371
g10
I48
sg11
S'International_Standard_Book_Number'
p372
sa(dp373
g10
I138
sg11
S'JSTOR'
p374
sa(dp375
g10
I171
sg11
S'International_Standard_Serial_Number'
p376
sa(dp377
g10
I181
sg11
S'Alma_mater'
p378
sa(dp379
g10
I228
sg11
S'PubMed_Central'
p380
sa(dp381
g10
I294
sg11
S'Wikisource'
p382
sa(dp383
g10
I296
sg11
S'Digital_object_identifier'
p384
sa(dp385
g10
I377
sg11
S'Cambridge_University_Press'
p386
sa(dp387
g10
I393
sg11
S'OCLC'
p388
sasg10
I424
sg11
S'Digital_object_identifier'
p389
sasg10
I434
sg11
S'Brazil'
p390
sa(dp391
g1
(lp392
(dp393
g1
(lp394
(dp395
g10
I2
sg11
S'The_Washington_Post'
p396
sa(dp397
g10
I54
sg11
S'Jazz'
p398
sa(dp399
g10
I75
sg11
S'Los_Angeles'
p400
sa(dp401
g10
I93
sg11
S'Associated_Press'
p402
sa(dp403
g10
I97
sg11
S'American_football'
p404
sa(dp405
g10
I109
sg11
S'The_Guardian'
p406
sa(dp407
g10
I145
sg11
S'Newspaper'
p408
sa(dp409
g10
I223
sg11
S'Los_Angeles_Times'
p410
sa(dp411
g10
I225
sg11
S'St._Louis'
p412
sa(dp413
g10
I232
sg11
S'Precipitation'
p414
sa(dp415
g10
I233
sg11
S'Defamation'
p416
sa(dp417
g10
I241
sg11
S'The_New_York_Times'
p418
sa(dp419
g10
I243
sg11
S'Atlanta'
p420
sa(dp421
g10
I244
sg11
S'Time_(magazine)'
p422
sa(dp423
g10
I268
sg11
S'United_States'
p424
sa(dp425
g10
I287
sg11
S'Basketball'
p426
sa(dp427
g10
I359
sg11
S'Telephone_numbering_plan'
p428
sa(dp429
g10
I361
sg11
S'New_York_City'
p430
sa(dp431
g10
I363
sg11
S'Toronto'
p432
sa(dp433
g10
I367
sg11
S'Chicago'
p434
sasg10
I410
sg11
S'The_New_York_Times'
p435
sa(dp436
g1
(lp437
(dp438
g10
I7
sg11
S'Google'
p439
sa(dp440
g10
I35
sg11
S'Internet'
p441
sa(dp442
g10
I71
sg11
S'Internet_Archive'
p443
sa(dp444
g10
I90
sg11
S'Microsoft_Windows'
p445
sa(dp446
g10
I92
sg11
S'Public_domain'
p447
sa(dp448
g10
I126
sg11
S'MusicBrainz'
p449
sa(dp450
g10
I135
sg11
S'Actor'
p451
sa(dp452
g10
I136
sg11
S'Film'
p453
sa(dp454
g10
I137
sg11
S'New_York_Times'
p455
sa(dp456
g10
I146
sg11
S'Operating_system'
p457
sa(dp458
g10
I163
sg11
S'Private_Use_Areas'
p459
sa(dp460
g10
I231
sg11
S'Internet_Movie_Database'
p461
sa(dp462
g10
I236
sg11
S'Television'
p463
sa(dp464
g10
I237
sg11
S'Wikilink'
p465
sa(dp466
g10
I251
sg11
S'University_of_California_Berkeley'
p467
sa(dp468
g10
I254
sg11
S'Uniform_resource_locator'
p469
sa(dp470
g10
I280
sg11
S'University_of_California_Berkeley'
p471
sa(dp472
g10
I284
sg11
S'H:S'
p473
sa(dp474
g10
I314
sg11
S'Hyperlink'
p475
sa(dp476
g10
I330
sg11
S'Chief_executive_officer'
p477
sa(dp478
g10
I389
sg11
S'Database'
p479
sa(dp480
g10
I390
sg11
S'Apple_Inc.'
p481
sa(dp482
g10
I394
sg11
S'Apple_Inc.'
p483
sa(dp484
g10
I395
sg11
S'Amazon.com'
p485
sa(dp486
g10
I406
sg11
S'Twitter'
p487
sasg10
I414
sg11
S'Internet'
p488
sa(dp489
g1
(lp490
(dp491
g10
I25
sg11
S'Hawaii'
p492
sa(dp493
g10
I56
sg11
S'National_Park_Service'
p494
sa(dp495
g10
I82
sg11
S'United_States_dollar'
p496
sa(dp497
g10
I124
sg11
S'United_States_Navy'
p498
sa(dp499
g10
I157
sg11
S'Puerto_Rico'
p500
sa(dp501
g10
I252
sg11
S'Republican_Party_(United_States)'
p502
sa(dp503
g10
I253
sg11
S'United_States_Army'
p504
sa(dp505
g10
I325
sg11
S'County_seat'
p506
sasg10
I426
sg11
S'Hawaii'
p507
sa(dp508
g1
(lp509
(dp510
g10
I164
sg11
S'Unincorporated_area'
p511
sa(dp512
g10
I177
sg11
S'Per_capita_income'
p513
sa(dp514
g10
I192
sg11
S'Coordinated_Universal_Time'
p515
sa(dp516
g10
I242
sg11
S'Time_zone'
p517
sa(dp518
g10
I303
sg11
S'Legislature'
p519
sa(dp520
g10
I308
sg11
S'Daylight_saving_time'
p521
sa(dp522
g10
I310
sg11
S'Geographic_coordinate_system'
p523
sasg10
I432
sg11
S'Coordinated_Universal_Time'
p524
sasg10
I435
sg11
S'New_York_City'
p525
sa(dp526
g1
(lp527
(dp528
g1
(lp529
(dp530
g10
I6
sg11
S'Washington_D.C.'
p531
sa(dp532
g10
I81
sg11
S'U.S._state'
p533
sa(dp534
g10
I112
sg11
S'United_States_House_of_Representatives'
p535
sa(dp536
g10
I113
sg11
S'Federal_government_of_the_United_States'
p537
sa(dp538
g10
I176
sg11
S'United_States_Geological_Survey'
p539
sa(dp540
g10
I180
sg11
S'President_of_the_United_States'
p541
sa(dp542
g10
I186
sg11
S'United_States_Senate'
p543
sa(dp544
g10
I218
sg11
S'Census_designated_place'
p545
sa(dp546
g10
I246
sg11
S'Supreme_Court_of_the_United_States'
p547
sa(dp548
g10
I248
sg11
S'United_States_Congress'
p549
sa(dp550
g10
I265
sg11
S'Washington_D.C.'
p551
sa(dp552
g10
I269
sg11
S'2010_United_States_Census'
p553
sa(dp554
g10
I274
sg11
S'Geographic_Names_Information_System'
p555
sa(dp556
g10
I301
sg11
S'2000_United_States_Census'
p557
sa(dp558
g10
I304
sg11
S'Political_divisions_of_the_United_States'
p559
sa(dp560
g10
I306
sg11
S'Census-designated_place'
p561
sa(dp562
g10
I321
sg11
S'Democratic_Party_(United_States)'
p563
sa(dp564
g10
I326
sg11
S'ZIP_code'
p565
sa(dp566
g10
I351
sg11
S'United_States_Census_Bureau'
p567
sa(dp568
g10
I392
sg11
S'American_Civil_War'
p569
sasg10
I413
sg11
S'U.S._state'
p570
sa(dp571
g1
(lp572
(dp573
g10
I23
sg11
S'Washington_(state)'
p574
sa(dp575
g10
I44
sg11
S'Illinois'
p576
sa(dp577
g10
I58
sg11
S'Massachusetts'
p578
sa(dp579
g10
I88
sg11
S'Maryland'
p580
sa(dp581
g10
I89
sg11
S'Michigan'
p582
sa(dp583
g10
I91
sg11
S'Florida'
p584
sa(dp585
g10
I139
sg11
S'New_Jersey'
p586
sa(dp587
g10
I140
sg11
S'North_Carolina'
p588
sa(dp589
g10
I147
sg11
S'Ohio'
p590
sa(dp591
g10
I148
sg11
S'Ontario'
p592
sa(dp593
g10
I166
sg11
S'Pennsylvania'
p594
sa(dp595
g10
I183
sg11
S'Boston'
p596
sa(dp597
g10
I222
sg11
S'Race_and_ethnicity_in_the_United_States_Census'
p598
sa(dp599
g10
I235
sg11
S'Texas'
p600
sa(dp601
g10
I256
sg11
S'Virginia'
p602
sa(dp603
g10
I316
sg11
S'San_Francisco'
p604
sa(dp605
g10
I322
sg11
S'Philadelphia'
p606
sa(dp607
g10
I343
sg11
S'California'
p608
sa(dp609
g10
I388
sg11
S'New_York'
p610
sasg10
I425
sg11
S'Pennsylvania'
p611
sasg10
I436
sg11
S'Washington_D.C.'
p612
sa(dp613
g1
(lp614
(dp615
g1
(lp616
(dp617
g10
I8
sg11
S'Animal'
p618
sa(dp619
g10
I31
sg11
S'Bibcode'
p620
sa(dp621
g10
I50
sg11
S'IUCN_Red_List'
p622
sa(dp623
g10
I86
sg11
S'Mammal'
p624
sa(dp625
g10
I101
sg11
S'Flowering_plant'
p626
sa(dp627
g10
I115
sg11
S'Mollusca'
p628
sa(dp629
g10
I116
sg11
S'Arthropod'
p630
sa(dp631
g10
I117
sg11
S'Plant'
p632
sa(dp633
g10
I118
sg11
S'Plantae'
p634
sa(dp635
g10
I142
sg11
S'Species'
p636
sa(dp637
g10
I167
sg11
S'Insect'
p638
sa(dp639
g10
I168
sg11
S'Biological_classification'
p640
sa(dp641
g10
I175
sg11
S'Protein'
p642
sa(dp643
g10
I227
sg11
S'Eudicots'
p644
sa(dp645
g10
I266
sg11
S'Bird'
p646
sa(dp647
g10
I286
sg11
S'Genus'
p648
sa(dp649
g10
I289
sg11
S'Binomial_nomenclature'
p650
sa(dp651
g10
I293
sg11
S'Animalia'
p652
sa(dp653
g10
I297
sg11
S'Gene'
p654
sa(dp655
g10
I302
sg11
S'Angiosperms'
p656
sa(dp657
g10
I318
sg11
S'PubMed'
p658
sa(dp659
g10
I324
sg11
S'Chordate'
p660
sa(dp661
g10
I331
sg11
S'Carl_Linnaeus'
p662
sa(dp663
g10
I338
sg11
S'Lepidoptera'
p664
sa(dp665
g10
I349
sg11
S'Family_(biology)'
p666
sa(dp667
g10
I357
sg11
S'Human_Genome_Organisation'
p668
sa(dp669
g10
I365
sg11
S'Moth'
p670
sa(dp671
g10
I383
sg11
S'Chordata'
p672
sa(dp673
g10
I387
sg11
S'Synonym_(taxonomy)'
p674
sa(dp675
g10
I407
sg11
S'Wikispecies'
p676
sasg10
I415
sg11
S'Species'
p677
sa(dp678
g1
(lp679
(dp680
g10
I10
sg11
S'ISO_4'
p681
sa(dp682
g10
I17
sg11
S'ISO/IEC_27000-series'
p683
sa(dp684
g10
I49
sg11
S'International_Organization_for_Standardization'
p685
sa(dp686
g10
I60
sg11
S'ISO_639'
p687
sa(dp688
g10
I61
sg11
S'Film_speed'
p689
sa(dp690
g10
I66
sg11
S'ISO_639-3'
p691
sa(dp692
g10
I87
sg11
S'International_Standard_Name_Identifier'
p693
sa(dp694
g10
I173
sg11
S'Pinyin'
p695
sa(dp696
g10
I179
sg11
S'Portable_Document_Format'
p697
sa(dp698
g10
I203
sg11
S'Simplified_Chinese_characters'
p699
sa(dp700
g10
I208
sg11
S'Traditional_Chinese_characters'
p701
sa(dp702
g10
I298
sg11
S'Hangul'
p703
sasg10
I417
sg11
S'Pinyin'
p704
sa(dp705
g1
(lp706
(dp707
g10
I30
sg11
S'Authority_control'
p708
sa(dp709
g10
I47
sg11
S'Library_of_Congress_Control_Number'
p710
sa(dp711
g10
I79
sg11
S'Harvard_University'
p712
sa(dp713
g10
I94
sg11
S'Library_of_Congress'
p714
sa(dp715
g10
I104
sg11
S'Library_catalog'
p716
sa(dp717
g10
I119
sg11
S'Biblioth\xc3\xa8que_nationale_de_France'
p718
sa(dp719
g10
I121
sg11
S'Union_List_of_Artist_Names'
p720
sa(dp721
g10
I122
sg11
S'National_Library_of_the_Czech_Republic'
p722
sa(dp723
g10
I187
sg11
S'Virtual_International_Authority_File'
p724
sa(dp725
g10
I262
sg11
S'Syst\xc3\xa8me_universitaire_de_documentation'
p726
sa(dp727
g10
I276
sg11
S'Wikidata'
p728
sa(dp729
g10
I277
sg11
S'Integrated_Authority_File'
p730
sa(dp731
g10
I281
sg11
S'National_Diet_Library'
p732
sasg10
I428
sg11
S'National_Diet_Library'
p733
sasg10
I437
sg11
S'Animal'
p734
sa(dp735
g1
(lp736
(dp737
g1
(lp738
(dp739
g10
I12
sg11
S'Persian_language'
p740
sa(dp741
g10
I15
sg11
S'Greek_language'
p742
sa(dp743
g10
I28
sg11
S'Hebrew_language'
p744
sa(dp745
g10
I43
sg11
S'Ancient_Greek'
p746
sa(dp747
g10
I72
sg11
S'Latin'
p748
sa(dp749
g10
I77
sg11
S'Language_family'
p750
sa(dp751
g10
I84
sg11
S'Mathematics'
p752
sa(dp753
g10
I106
sg11
S'Administrative_divisions_of_Iran'
p754
sa(dp755
g10
I185
sg11
S'Given_name'
p756
sa(dp757
g10
I238
sg11
S'Turkish_language'
p758
sa(dp759
g10
I282
sg11
S'Noun'
p760
sa(dp761
g10
I283
sg11
S'Adjective'
p762
sa(dp763
g10
I295
sg11
S'Glottolog'
p764
sa(dp765
g10
I311
sg11
S'Oxford_University_Press'
p766
sa(dp767
g10
I368
sg11
S'Census'
p768
sa(dp769
g10
I385
sg11
S'Arabic_language'
p770
sasg10
I419
sg11
S'Latin'
p771
sa(dp772
g1
(lp773
(dp774
g10
I18
sg11
S'Gmina'
p775
sa(dp776
g10
I76
sg11
S'Capital_city'
p777
sa(dp778
g10
I103
sg11
S'Municipality'
p779
sa(dp780
g10
I134
sg11
S'Dependent_territory'
p781
sa(dp782
g10
I174
sg11
S'Sovereign_state'
p783
sa(dp784
g10
I285
sg11
S'Powiat'
p785
sa(dp786
g10
I292
sg11
S'Voivodeships_of_Poland'
p787
sa(dp788
g10
I305
sg11
S'Copyright_status_of_work_by_the_U.S._government'
p789
sa(dp790
g10
I335
sg11
S'Town'
p791
sa(dp792
g10
I340
sg11
S'Village'
p793
sa(dp794
g10
I341
sg11
S'City'
p795
sasg10
I421
sg11
S'Dependent_territory'
p796
sa(dp797
g1
(lp798
(dp799
g10
I29
sg11
S'Parliament_of_the_United_Kingdom'
p800
sa(dp801
g10
I41
sg11
S'Ireland'
p802
sa(dp803
g10
I96
sg11
S'Law'
p804
sa(dp805
g10
I100
sg11
S'Geography'
p806
sa(dp807
g10
I132
sg11
S'Northern_Ireland'
p808
sa(dp809
g10
I200
sg11
S'Encyclop\xc3\xa6dia_Britannica_Eleventh_Edition'
p810
sa(dp811
g10
I202
sg11
S'Royal_Navy'
p812
sa(dp813
g10
I219
sg11
S'Scotland'
p814
sa(dp815
g10
I264
sg11
S'British_Columbia'
p816
sa(dp817
g10
I299
sg11
S'Member_of_Parliament'
p818
sa(dp819
g10
I372
sg11
S'Wales'
p820
sa(dp821
g10
I376
sg11
S'Encyclop\xc3\xa6dia_Britannica_Eleventh_Edition'
p822
sa(dp823
g10
I397
sg11
S'Economics'
p824
sa(dp825
g10
I402
sg11
S'England'
p826
sa(dp827
g10
I405
sg11
S'Member_of_parliament'
p828
sasg10
I427
sg11
S'England'
p829
sa(dp830
g1
(lp831
(dp832
g10
I63
sg11
S'Byzantine_Empire'
p833
sa(dp834
g10
I85
sg11
S'Middle_Ages'
p835
sa(dp836
g10
I114
sg11
S'Marriage'
p837
sa(dp838
g10
I149
sg11
S'Ottoman_Empire'
p839
sa(dp840
g10
I195
sg11
S'Roman_Empire'
p841
sa(dp842
g10
I198
sg11
S'Protestantism'
p843
sa(dp844
g10
I257
sg11
S'Buddhism'
p845
sa(dp846
g10
I327
sg11
S'Christianity'
p847
sa(dp848
g10
I328
sg11
S'Ancient_Rome'
p849
sa(dp850
g10
I354
sg11
S'Islam'
p851
sa(dp852
g10
I355
sg11
S'Catholic_Church'
p853
sasg10
I430
sg11
S'Christianity'
p854
sasg10
I438
sg11
S'Greek_language'
p855
sasg10
I442
sg11
S'United_States'
p856
sa(dp857
g1
(lp858
(dp859
g1
(lp860
(dp861
g1
(lp862
(dp863
g10
I19
sg11
S'Music_genre'
p864
sa(dp865
g10
I40
sg11
S'Record_label'
p866
sa(dp867
g10
I55
sg11
S'Single_(music)'
p868
sa(dp869
g10
I57
sg11
S'Singing'
p870
sa(dp871
g10
I78
sg11
S'Billboard_(magazine)'
p872
sa(dp873
g10
I144
sg11
S'Studio_album'
p874
sa(dp875
g10
I184
sg11
S'Pop_music'
p876
sa(dp877
g10
I189
sg11
S'Rock_music'
p878
sa(dp879
g10
I290
sg11
S'Allmusic'
p880
sa(dp881
g10
I317
sg11
S'Poverty_line'
p882
sa(dp883
g10
I334
sg11
S'Album'
p884
sa(dp885
g10
I336
sg11
S'Record_producer'
p886
sa(dp887
g10
I370
sg11
S'AllMusic'
p888
sa(dp889
g10
I404
sg11
S'Songwriter'
p890
sasg10
I422
sg11
S'Record_label'
p891
sa(dp892
g1
(lp893
(dp894
g10
I51
sg11
S'Eastern_European_Summer_Time'
p895
sa(dp896
g10
I159
sg11
S'UTC+01:00'
p897
sa(dp898
g10
I161
sg11
S'UTC+02:00'
p899
sa(dp900
g10
I162
sg11
S'UTC+03:00'
p901
sa(dp902
g10
I205
sg11
S'UTC+2'
p903
sa(dp904
g10
I206
sg11
S'UTC+3'
p905
sa(dp906
g10
I333
sg11
S'Central_European_Time'
p907
sa(dp908
g10
I396
sg11
S'Eastern_European_Time'
p909
sa(dp910
g10
I399
sg11
S'Central_European_Summer_Time'
p911
sasg10
I429
sg11
S'UTC+02:00'
p912
sasg10
I439
sg11
S'Eastern_European_Time'
p913
sa(dp914
g1
(lp915
(dp916
g1
(lp917
(dp918
g10
I160
sg11
S'UTC\xe2\x88\x9204:00'
p919
sa(dp920
g10
I207
sg11
S'UTC-5'
p921
sa(dp922
g10
I315
sg11
S'Eastern_Time_Zone'
p923
sa(dp924
g10
I362
sg11
S'UTC\xe2\x88\x9205:00'
p925
sasg10
I431
sg11
S'UTC\xe2\x88\x9204:00'
p926
sasg10
I440
sg11
S'UTC\xe2\x88\x9205:00'
p927
sasg10
I443
sg11
S'UTC+03:00'
p928
sasg10
I444
sg11
S'International_Standard_Book_Number'
p929
s(dp930
I0
(dp931
g10
I0
sg11
g12
ssI1
(dp932
g10
I1
sg11
g245
ssI2
(dp933
g10
I2
sg11
g396
ssI3
(dp934
g10
I3
sg11
g67
ssI4
(dp935
g10
I4
sg11
g14
ssI5
(dp936
g10
I5
sg11
g304
ssI6
(dp937
g10
I6
sg11
g531
ssI7
(dp938
g10
I7
sg11
g439
ssI8
(dp939
g10
I8
sg11
g618
ssI9
(dp940
g10
I9
sg11
g108
ssI10
(dp941
g10
I10
sg11
g681
ssI11
(dp942
g10
I11
sg11
g341
ssI12
(dp943
g10
I12
sg11
g740
ssI13
(dp944
g10
I13
sg11
g145
ssI14
(dp945
g10
I14
sg11
g306
ssI15
(dp946
g10
I15
sg11
g742
ssI16
(dp947
g10
I16
sg11
g147
ssI17
(dp948
g10
I17
sg11
g683
ssI18
(dp949
g10
I18
sg11
g775
ssI19
(dp950
g10
I19
sg11
g864
ssI20
(dp951
g10
I20
sg11
g186
ssI21
(dp952
g10
I21
sg11
g247
ssI22
(dp953
g10
I22
sg11
g368
ssI23
(dp954
g10
I23
sg11
g574
ssI24
(dp955
g10
I24
sg11
g370
ssI25
(dp956
g10
I25
sg11
g492
ssI26
(dp957
g10
I26
sg11
g16
ssI27
(dp958
g10
I27
sg11
g188
ssI28
(dp959
g10
I28
sg11
g744
ssI29
(dp960
g10
I29
sg11
g800
ssI30
(dp961
g10
I30
sg11
g708
ssI31
(dp962
g10
I31
sg11
g620
ssI32
(dp963
g10
I32
sg11
g18
ssI33
(dp964
g10
I33
sg11
g149
ssI34
(dp965
g10
I34
sg11
g190
ssI35
(dp966
g10
I35
sg11
g441
ssI36
(dp967
g10
I36
sg11
g151
ssI37
(dp968
g10
I37
sg11
g192
ssI38
(dp969
g10
I38
sg11
g194
ssI39
(dp970
g10
I39
sg11
g308
ssI40
(dp971
g10
I40
sg11
g866
ssI41
(dp972
g10
I41
sg11
g802
ssI42
(dp973
g10
I42
sg11
g69
ssI43
(dp974
g10
I43
sg11
g746
ssI44
(dp975
g10
I44
sg11
g576
ssI45
(dp976
g10
I45
sg11
g343
ssI46
(dp977
g10
I46
sg11
g110
ssI47
(dp978
g10
I47
sg11
g710
ssI48
(dp979
g10
I48
sg11
g372
ssI49
(dp980
g10
I49
sg11
g685
ssI50
(dp981
g10
I50
sg11
g622
ssI51
(dp982
g10
I51
sg11
g895
ssI52
(dp983
g10
I52
sg11
g345
ssI53
(dp984
g10
I53
sg11
g310
ssI54
(dp985
g10
I54
sg11
g398
ssI55
(dp986
g10
I55
sg11
g868
ssI56
(dp987
g10
I56
sg11
g494
ssI57
(dp988
g10
I57
sg11
g870
ssI58
(dp989
g10
I58
sg11
g578
ssI59
(dp990
g10
I59
sg11
g112
ssI60
(dp991
g10
I60
sg11
g687
ssI61
(dp992
g10
I61
sg11
g689
ssI62
(dp993
g10
I62
sg11
g347
ssI63
(dp994
g10
I63
sg11
g833
ssI64
(dp995
g10
I64
sg11
g249
ssI65
(dp996
g10
I65
sg11
g71
ssI66
(dp997
g10
I66
sg11
g691
ssI67
(dp998
g10
I67
sg11
g196
ssI68
(dp999
g10
I68
sg11
g20
ssI69
(dp1000
g10
I69
sg11
g22
ssI70
(dp1001
g10
I70
sg11
g24
ssI71
(dp1002
g10
I71
sg11
g443
ssI72
(dp1003
g10
I72
sg11
g748
ssI73
(dp1004
g10
I73
sg11
g251
ssI74
(dp1005
g10
I74
sg11
g73
ssI75
(dp1006
g10
I75
sg11
g400
ssI76
(dp1007
g10
I76
sg11
g777
ssI77
(dp1008
g10
I77
sg11
g750
ssI78
(dp1009
g10
I78
sg11
g872
ssI79
(dp1010
g10
I79
sg11
g712
ssI80
(dp1011
g10
I80
sg11
g349
ssI81
(dp1012
g10
I81
sg11
g533
ssI82
(dp1013
g10
I82
sg11
g496
ssI83
(dp1014
g10
I83
sg11
g198
ssI84
(dp1015
g10
I84
sg11
g752
ssI85
(dp1016
g10
I85
sg11
g835
ssI86
(dp1017
g10
I86
sg11
g624
ssI87
(dp1018
g10
I87
sg11
g693
ssI88
(dp1019
g10
I88
sg11
g580
ssI89
(dp1020
g10
I89
sg11
g582
ssI90
(dp1021
g10
I90
sg11
g445
ssI91
(dp1022
g10
I91
sg11
g584
ssI92
(dp1023
g10
I92
sg11
g447
ssI93
(dp1024
g10
I93
sg11
g402
ssI94
(dp1025
g10
I94
sg11
g714
ssI95
(dp1026
g10
I95
sg11
g351
ssI96
(dp1027
g10
I96
sg11
g804
ssI97
(dp1028
g10
I97
sg11
g404
ssI98
(dp1029
g10
I98
sg11
g253
ssI99
(dp1030
g10
I99
sg11
g255
ssI100
(dp1031
g10
I100
sg11
g806
ssI101
(dp1032
g10
I101
sg11
g626
ssI102
(dp1033
g10
I102
sg11
g75
ssI103
(dp1034
g10
I103
sg11
g779
ssI104
(dp1035
g10
I104
sg11
g716
ssI105
(dp1036
g10
I105
sg11
g257
ssI106
(dp1037
g10
I106
sg11
g754
ssI107
(dp1038
g10
I107
sg11
g259
ssI108
(dp1039
g10
I108
sg11
g114
ssI109
(dp1040
g10
I109
sg11
g406
ssI110
(dp1041
g10
I110
sg11
g200
ssI111
(dp1042
g10
I111
sg11
g202
ssI112
(dp1043
g10
I112
sg11
g535
ssI113
(dp1044
g10
I113
sg11
g537
ssI114
(dp1045
g10
I114
sg11
g837
ssI115
(dp1046
g10
I115
sg11
g628
ssI116
(dp1047
g10
I116
sg11
g630
ssI117
(dp1048
g10
I117
sg11
g632
ssI118
(dp1049
g10
I118
sg11
g634
ssI119
(dp1050
g10
I119
sg11
g718
ssI120
(dp1051
g10
I120
sg11
g312
ssI121
(dp1052
g10
I121
sg11
g720
ssI122
(dp1053
g10
I122
sg11
g722
ssI123
(dp1054
g10
I123
sg11
g116
ssI124
(dp1055
g10
I124
sg11
g498
ssI125
(dp1056
g10
I125
sg11
g26
ssI126
(dp1057
g10
I126
sg11
g449
ssI127
(dp1058
g10
I127
sg11
g261
ssI128
(dp1059
g10
I128
sg11
g153
ssI129
(dp1060
g10
I129
sg11
g28
ssI130
(dp1061
g10
I130
sg11
g30
ssI131
(dp1062
g10
I131
sg11
g155
ssI132
(dp1063
g10
I132
sg11
g808
ssI133
(dp1064
g10
I133
sg11
g204
ssI134
(dp1065
g10
I134
sg11
g781
ssI135
(dp1066
g10
I135
sg11
g451
ssI136
(dp1067
g10
I136
sg11
g453
ssI137
(dp1068
g10
I137
sg11
g455
ssI138
(dp1069
g10
I138
sg11
g374
ssI139
(dp1070
g10
I139
sg11
g586
ssI140
(dp1071
g10
I140
sg11
g588
ssI141
(dp1072
g10
I141
sg11
g77
ssI142
(dp1073
g10
I142
sg11
g636
ssI143
(dp1074
g10
I143
sg11
g353
ssI144
(dp1075
g10
I144
sg11
g874
ssI145
(dp1076
g10
I145
sg11
g408
ssI146
(dp1077
g10
I146
sg11
g457
ssI147
(dp1078
g10
I147
sg11
g590
ssI148
(dp1079
g10
I148
sg11
g592
ssI149
(dp1080
g10
I149
sg11
g839
ssI150
(dp1081
g10
I150
sg11
g79
ssI151
(dp1082
g10
I151
sg11
g32
ssI152
(dp1083
g10
I152
sg11
g314
ssI153
(dp1084
g10
I153
sg11
g206
ssI154
(dp1085
g10
I154
sg11
g316
ssI155
(dp1086
g10
I155
sg11
g81
ssI156
(dp1087
g10
I156
sg11
g157
ssI157
(dp1088
g10
I157
sg11
g500
ssI158
(dp1089
g10
I158
sg11
g263
ssI159
(dp1090
g10
I159
sg11
g897
ssI160
(dp1091
g10
I160
sg11
g919
ssI161
(dp1092
g10
I161
sg11
g899
ssI162
(dp1093
g10
I162
sg11
g901
ssI163
(dp1094
g10
I163
sg11
g459
ssI164
(dp1095
g10
I164
sg11
g511
ssI165
(dp1096
g10
I165
sg11
g208
ssI166
(dp1097
g10
I166
sg11
g594
ssI167
(dp1098
g10
I167
sg11
g638
ssI168
(dp1099
g10
I168
sg11
g640
ssI169
(dp1100
g10
I169
sg11
g210
ssI170
(dp1101
g10
I170
sg11
g318
ssI171
(dp1102
g10
I171
sg11
g376
ssI172
(dp1103
g10
I172
sg11
g355
ssI173
(dp1104
g10
I173
sg11
g695
ssI174
(dp1105
g10
I174
sg11
g783
ssI175
(dp1106
g10
I175
sg11
g642
ssI176
(dp1107
g10
I176
sg11
g539
ssI177
(dp1108
g10
I177
sg11
g513
ssI178
(dp1109
g10
I178
sg11
g320
ssI179
(dp1110
g10
I179
sg11
g697
ssI180
(dp1111
g10
I180
sg11
g541
ssI181
(dp1112
g10
I181
sg11
g378
ssI182
(dp1113
g10
I182
sg11
g159
ssI183
(dp1114
g10
I183
sg11
g596
ssI184
(dp1115
g10
I184
sg11
g876
ssI185
(dp1116
g10
I185
sg11
g756
ssI186
(dp1117
g10
I186
sg11
g543
ssI187
(dp1118
g10
I187
sg11
g724
ssI188
(dp1119
g10
I188
sg11
g118
ssI189
(dp1120
g10
I189
sg11
g878
ssI190
(dp1121
g10
I190
sg11
g322
ssI191
(dp1122
g10
I191
sg11
g34
ssI192
(dp1123
g10
I192
sg11
g515
ssI193
(dp1124
g10
I193
sg11
g83
ssI194
(dp1125
g10
I194
sg11
g324
ssI195
(dp1126
g10
I195
sg11
g841
ssI196
(dp1127
g10
I196
sg11
g85
ssI197
(dp1128
g10
I197
sg11
g212
ssI198
(dp1129
g10
I198
sg11
g843
ssI199
(dp1130
g10
I199
sg11
g326
ssI200
(dp1131
g10
I200
sg11
g810
ssI201
(dp1132
g10
I201
sg11
g265
ssI202
(dp1133
g10
I202
sg11
g812
ssI203
(dp1134
g10
I203
sg11
g699
ssI204
(dp1135
g10
I204
sg11
g87
ssI205
(dp1136
g10
I205
sg11
g903
ssI206
(dp1137
g10
I206
sg11
g905
ssI207
(dp1138
g10
I207
sg11
g921
ssI208
(dp1139
g10
I208
sg11
g701
ssI209
(dp1140
g10
I209
sg11
g161
ssI210
(dp1141
g10
I210
sg11
g89
ssI211
(dp1142
g10
I211
sg11
g36
ssI212
(dp1143
g10
I212
sg11
g214
ssI213
(dp1144
g10
I213
sg11
g267
ssI214
(dp1145
g10
I214
sg11
g163
ssI215
(dp1146
g10
I215
sg11
g328
ssI216
(dp1147
g10
I216
sg11
g38
ssI217
(dp1148
g10
I217
sg11
g40
ssI218
(dp1149
g10
I218
sg11
g545
ssI219
(dp1150
g10
I219
sg11
g814
ssI220
(dp1151
g10
I220
sg11
g216
ssI221
(dp1152
g10
I221
sg11
g218
ssI222
(dp1153
g10
I222
sg11
g598
ssI223
(dp1154
g10
I223
sg11
g410
ssI224
(dp1155
g10
I224
sg11
g42
ssI225
(dp1156
g10
I225
sg11
g412
ssI226
(dp1157
g10
I226
sg11
g44
ssI227
(dp1158
g10
I227
sg11
g644
ssI228
(dp1159
g10
I228
sg11
g380
ssI229
(dp1160
g10
I229
sg11
g91
ssI230
(dp1161
g10
I230
sg11
g46
ssI231
(dp1162
g10
I231
sg11
g461
ssI232
(dp1163
g10
I232
sg11
g414
ssI233
(dp1164
g10
I233
sg11
g416
ssI234
(dp1165
g10
I234
sg11
g48
ssI235
(dp1166
g10
I235
sg11
g600
ssI236
(dp1167
g10
I236
sg11
g463
ssI237
(dp1168
g10
I237
sg11
g465
ssI238
(dp1169
g10
I238
sg11
g758
ssI239
(dp1170
g10
I239
sg11
g93
ssI240
(dp1171
g10
I240
sg11
g220
ssI241
(dp1172
g10
I241
sg11
g418
ssI242
(dp1173
g10
I242
sg11
g517
ssI243
(dp1174
g10
I243
sg11
g420
ssI244
(dp1175
g10
I244
sg11
g422
ssI245
(dp1176
g10
I245
sg11
g165
ssI246
(dp1177
g10
I246
sg11
g547
ssI247
(dp1178
g10
I247
sg11
g50
ssI248
(dp1179
g10
I248
sg11
g549
ssI249
(dp1180
g10
I249
sg11
g357
ssI250
(dp1181
g10
I250
sg11
g167
ssI251
(dp1182
g10
I251
sg11
g467
ssI252
(dp1183
g10
I252
sg11
g502
ssI253
(dp1184
g10
I253
sg11
g504
ssI254
(dp1185
g10
I254
sg11
g469
ssI255
(dp1186
g10
I255
sg11
g269
ssI256
(dp1187
g10
I256
sg11
g602
ssI257
(dp1188
g10
I257
sg11
g845
ssI258
(dp1189
g10
I258
sg11
g359
ssI259
(dp1190
g10
I259
sg11
g222
ssI260
(dp1191
g10
I260
sg11
g169
ssI261
(dp1192
g10
I261
sg11
g95
ssI262
(dp1193
g10
I262
sg11
g726
ssI263
(dp1194
g10
I263
sg11
g271
ssI264
(dp1195
g10
I264
sg11
g816
ssI265
(dp1196
g10
I265
sg11
g551
ssI266
(dp1197
g10
I266
sg11
g646
ssI267
(dp1198
g10
I267
sg11
g52
ssI268
(dp1199
g10
I268
sg11
g424
ssI269
(dp1200
g10
I269
sg11
g553
ssI270
(dp1201
g10
I270
sg11
g224
ssI271
(dp1202
g10
I271
sg11
g54
ssI272
(dp1203
g10
I272
sg11
g120
ssI273
(dp1204
g10
I273
sg11
g226
ssI274
(dp1205
g10
I274
sg11
g555
ssI275
(dp1206
g10
I275
sg11
g361
ssI276
(dp1207
g10
I276
sg11
g728
ssI277
(dp1208
g10
I277
sg11
g730
ssI278
(dp1209
g10
I278
sg11
g122
ssI279
(dp1210
g10
I279
sg11
g228
ssI280
(dp1211
g10
I280
sg11
g471
ssI281
(dp1212
g10
I281
sg11
g732
ssI282
(dp1213
g10
I282
sg11
g760
ssI283
(dp1214
g10
I283
sg11
g762
ssI284
(dp1215
g10
I284
sg11
g473
ssI285
(dp1216
g10
I285
sg11
g785
ssI286
(dp1217
g10
I286
sg11
g648
ssI287
(dp1218
g10
I287
sg11
g426
ssI288
(dp1219
g10
I288
sg11
g273
ssI289
(dp1220
g10
I289
sg11
g650
ssI290
(dp1221
g10
I290
sg11
g880
ssI291
(dp1222
g10
I291
sg11
g171
ssI292
(dp1223
g10
I292
sg11
g787
ssI293
(dp1224
g10
I293
sg11
g652
ssI294
(dp1225
g10
I294
sg11
g382
ssI295
(dp1226
g10
I295
sg11
g764
ssI296
(dp1227
g10
I296
sg11
g384
ssI297
(dp1228
g10
I297
sg11
g654
ssI298
(dp1229
g10
I298
sg11
g703
ssI299
(dp1230
g10
I299
sg11
g818
ssI300
(dp1231
g10
I300
sg11
g97
ssI301
(dp1232
g10
I301
sg11
g557
ssI302
(dp1233
g10
I302
sg11
g656
ssI303
(dp1234
g10
I303
sg11
g519
ssI304
(dp1235
g10
I304
sg11
g559
ssI305
(dp1236
g10
I305
sg11
g789
ssI306
(dp1237
g10
I306
sg11
g561
ssI307
(dp1238
g10
I307
sg11
g173
ssI308
(dp1239
g10
I308
sg11
g521
ssI309
(dp1240
g10
I309
sg11
g99
ssI310
(dp1241
g10
I310
sg11
g523
ssI311
(dp1242
g10
I311
sg11
g766
ssI312
(dp1243
g10
I312
sg11
g124
ssI313
(dp1244
g10
I313
sg11
g275
ssI314
(dp1245
g10
I314
sg11
g475
ssI315
(dp1246
g10
I315
sg11
g923
ssI316
(dp1247
g10
I316
sg11
g604
ssI317
(dp1248
g10
I317
sg11
g882
ssI318
(dp1249
g10
I318
sg11
g658
ssI319
(dp1250
g10
I319
sg11
g277
ssI320
(dp1251
g10
I320
sg11
g279
ssI321
(dp1252
g10
I321
sg11
g563
ssI322
(dp1253
g10
I322
sg11
g606
ssI323
(dp1254
g10
I323
sg11
g56
ssI324
(dp1255
g10
I324
sg11
g660
ssI325
(dp1256
g10
I325
sg11
g506
ssI326
(dp1257
g10
I326
sg11
g565
ssI327
(dp1258
g10
I327
sg11
g847
ssI328
(dp1259
g10
I328
sg11
g849
ssI329
(dp1260
g10
I329
sg11
g281
ssI330
(dp1261
g10
I330
sg11
g477
ssI331
(dp1262
g10
I331
sg11
g662
ssI332
(dp1263
g10
I332
sg11
g126
ssI333
(dp1264
g10
I333
sg11
g907
ssI334
(dp1265
g10
I334
sg11
g884
ssI335
(dp1266
g10
I335
sg11
g791
ssI336
(dp1267
g10
I336
sg11
g886
ssI337
(dp1268
g10
I337
sg11
g58
ssI338
(dp1269
g10
I338
sg11
g664
ssI339
(dp1270
g10
I339
sg11
g283
ssI340
(dp1271
g10
I340
sg11
g793
ssI341
(dp1272
g10
I341
sg11
g795
ssI342
(dp1273
g10
I342
sg11
g230
ssI343
(dp1274
g10
I343
sg11
g608
ssI344
(dp1275
g10
I344
sg11
g285
ssI345
(dp1276
g10
I345
sg11
g101
ssI346
(dp1277
g10
I346
sg11
g60
ssI347
(dp1278
g10
I347
sg11
g62
ssI348
(dp1279
g10
I348
sg11
g128
ssI349
(dp1280
g10
I349
sg11
g666
ssI350
(dp1281
g10
I350
sg11
g232
ssI351
(dp1282
g10
I351
sg11
g567
ssI352
(dp1283
g10
I352
sg11
g330
ssI353
(dp1284
g10
I353
sg11
g175
ssI354
(dp1285
g10
I354
sg11
g851
ssI355
(dp1286
g10
I355
sg11
g853
ssI356
(dp1287
g10
I356
sg11
g287
ssI357
(dp1288
g10
I357
sg11
g668
ssI358
(dp1289
g10
I358
sg11
g289
ssI359
(dp1290
g10
I359
sg11
g428
ssI360
(dp1291
g10
I360
sg11
g291
ssI361
(dp1292
g10
I361
sg11
g430
ssI362
(dp1293
g10
I362
sg11
g925
ssI363
(dp1294
g10
I363
sg11
g432
ssI364
(dp1295
g10
I364
sg11
g103
ssI365
(dp1296
g10
I365
sg11
g670
ssI366
(dp1297
g10
I366
sg11
g363
ssI367
(dp1298
g10
I367
sg11
g434
ssI368
(dp1299
g10
I368
sg11
g768
ssI369
(dp1300
g10
I369
sg11
g130
ssI370
(dp1301
g10
I370
sg11
g888
ssI371
(dp1302
g10
I371
sg11
g293
ssI372
(dp1303
g10
I372
sg11
g820
ssI373
(dp1304
g10
I373
sg11
g332
ssI374
(dp1305
g10
I374
sg11
g295
ssI375
(dp1306
g10
I375
sg11
g297
ssI376
(dp1307
g10
I376
sg11
g822
ssI377
(dp1308
g10
I377
sg11
g386
ssI378
(dp1309
g10
I378
sg11
g132
ssI379
(dp1310
g10
I379
sg11
g134
ssI380
(dp1311
g10
I380
sg11
g136
ssI381
(dp1312
g10
I381
sg11
g234
ssI382
(dp1313
g10
I382
sg11
g177
ssI383
(dp1314
g10
I383
sg11
g672
ssI384
(dp1315
g10
I384
sg11
g334
ssI385
(dp1316
g10
I385
sg11
g770
ssI386
(dp1317
g10
I386
sg11
g138
ssI387
(dp1318
g10
I387
sg11
g674
ssI388
(dp1319
g10
I388
sg11
g610
ssI389
(dp1320
g10
I389
sg11
g479
ssI390
(dp1321
g10
I390
sg11
g481
ssI391
(dp1322
g10
I391
sg11
g336
ssI392
(dp1323
g10
I392
sg11
g569
ssI393
(dp1324
g10
I393
sg11
g388
ssI394
(dp1325
g10
I394
sg11
g483
ssI395
(dp1326
g10
I395
sg11
g485
ssI396
(dp1327
g10
I396
sg11
g909
ssI397
(dp1328
g10
I397
sg11
g824
ssI398
(dp1329
g10
I398
sg11
g299
ssI399
(dp1330
g10
I399
sg11
g911
ssI400
(dp1331
g10
I400
sg11
g179
ssI401
(dp1332
g10
I401
sg11
g140
ssI402
(dp1333
g10
I402
sg11
g826
ssI403
(dp1334
g10
I403
sg11
g181
ssI404
(dp1335
g10
I404
sg11
g890
ssI405
(dp1336
g10
I405
sg11
g828
ssI406
(dp1337
g10
I406
sg11
g487
ssI407
(dp1338
g10
I407
sg11
g676
ssI408
(dp1339
g1
(lp1340
(dp1341
g10
I0
sg11
g12
sa(dp1342
g10
I4
sg11
g14
sa(dp1343
g10
I26
sg11
g16
sa(dp1344
g10
I32
sg11
g18
sa(dp1345
g10
I68
sg11
g20
sa(dp1346
g10
I69
sg11
g22
sa(dp1347
g10
I70
sg11
g24
sa(dp1348
g10
I125
sg11
g26
sa(dp1349
g10
I129
sg11
g28
sa(dp1350
g10
I130
sg11
g30
sa(dp1351
g10
I151
sg11
g32
sa(dp1352
g10
I191
sg11
g34
sa(dp1353
g10
I211
sg11
g36
sa(dp1354
g10
I216
sg11
g38
sa(dp1355
g10
I217
sg11
g40
sa(dp1356
g10
I224
sg11
g42
sa(dp1357
g10
I226
sg11
g44
sa(dp1358
g10
I230
sg11
g46
sa(dp1359
g10
I234
sg11
g48
sa(dp1360
g10
I247
sg11
g50
sa(dp1361
g10
I267
sg11
g52
sa(dp1362
g10
I271
sg11
g54
sa(dp1363
g10
I323
sg11
g56
sa(dp1364
g10
I337
sg11
g58
sa(dp1365
g10
I346
sg11
g60
sa(dp1366
g10
I347
sg11
g62
sasg10
I408
sg11
g63
ssI409
(dp1367
g1
(lp1368
(dp1369
g10
I1
sg11
g245
sa(dp1370
g10
I21
sg11
g247
sa(dp1371
g10
I64
sg11
g249
sa(dp1372
g10
I73
sg11
g251
sa(dp1373
g10
I98
sg11
g253
sa(dp1374
g10
I99
sg11
g255
sa(dp1375
g10
I105
sg11
g257
sa(dp1376
g10
I107
sg11
g259
sa(dp1377
g10
I127
sg11
g261
sa(dp1378
g10
I158
sg11
g263
sa(dp1379
g10
I201
sg11
g265
sa(dp1380
g10
I213
sg11
g267
sa(dp1381
g10
I255
sg11
g269
sa(dp1382
g10
I263
sg11
g271
sa(dp1383
g10
I288
sg11
g273
sa(dp1384
g10
I313
sg11
g275
sa(dp1385
g10
I319
sg11
g277
sa(dp1386
g10
I320
sg11
g279
sa(dp1387
g10
I329
sg11
g281
sa(dp1388
g10
I339
sg11
g283
sa(dp1389
g10
I344
sg11
g285
sa(dp1390
g10
I356
sg11
g287
sa(dp1391
g10
I358
sg11
g289
sa(dp1392
g10
I360
sg11
g291
sa(dp1393
g10
I371
sg11
g293
sa(dp1394
g10
I374
sg11
g295
sa(dp1395
g10
I375
sg11
g297
sa(dp1396
g10
I398
sg11
g299
sasg10
I409
sg11
g300
ssI410
(dp1397
g1
(lp1398
(dp1399
g10
I2
sg11
g396
sa(dp1400
g10
I54
sg11
g398
sa(dp1401
g10
I75
sg11
g400
sa(dp1402
g10
I93
sg11
g402
sa(dp1403
g10
I97
sg11
g404
sa(dp1404
g10
I109
sg11
g406
sa(dp1405
g10
I145
sg11
g408
sa(dp1406
g10
I223
sg11
g410
sa(dp1407
g10
I225
sg11
g412
sa(dp1408
g10
I232
sg11
g414
sa(dp1409
g10
I233
sg11
g416
sa(dp1410
g10
I241
sg11
g418
sa(dp1411
g10
I243
sg11
g420
sa(dp1412
g10
I244
sg11
g422
sa(dp1413
g10
I268
sg11
g424
sa(dp1414
g10
I287
sg11
g426
sa(dp1415
g10
I359
sg11
g428
sa(dp1416
g10
I361
sg11
g430
sa(dp1417
g10
I363
sg11
g432
sa(dp1418
g10
I367
sg11
g434
sasg10
I410
sg11
g435
ssI411
(dp1419
g1
(lp1420
(dp1421
g10
I3
sg11
g67
sa(dp1422
g10
I42
sg11
g69
sa(dp1423
g10
I65
sg11
g71
sa(dp1424
g10
I74
sg11
g73
sa(dp1425
g10
I102
sg11
g75
sa(dp1426
g10
I141
sg11
g77
sa(dp1427
g10
I150
sg11
g79
sa(dp1428
g10
I155
sg11
g81
sa(dp1429
g10
I193
sg11
g83
sa(dp1430
g10
I196
sg11
g85
sa(dp1431
g10
I204
sg11
g87
sa(dp1432
g10
I210
sg11
g89
sa(dp1433
g10
I229
sg11
g91
sa(dp1434
g10
I239
sg11
g93
sa(dp1435
g10
I261
sg11
g95
sa(dp1436
g10
I300
sg11
g97
sa(dp1437
g10
I309
sg11
g99
sa(dp1438
g10
I345
sg11
g101
sa(dp1439
g10
I364
sg11
g103
sasg10
I411
sg11
g104
ssI412
(dp1440
g1
(lp1441
(dp1442
g10
I5
sg11
g304
sa(dp1443
g10
I14
sg11
g306
sa(dp1444
g10
I39
sg11
g308
sa(dp1445
g10
I53
sg11
g310
sa(dp1446
g10
I120
sg11
g312
sa(dp1447
g10
I152
sg11
g314
sa(dp1448
g10
I154
sg11
g316
sa(dp1449
g10
I170
sg11
g318
sa(dp1450
g10
I178
sg11
g320
sa(dp1451
g10
I190
sg11
g322
sa(dp1452
g10
I194
sg11
g324
sa(dp1453
g10
I199
sg11
g326
sa(dp1454
g10
I215
sg11
g328
sa(dp1455
g10
I352
sg11
g330
sa(dp1456
g10
I373
sg11
g332
sa(dp1457
g10
I384
sg11
g334
sa(dp1458
g10
I391
sg11
g336
sasg10
I412
sg11
g337
ssI413
(dp1459
g1
(lp1460
(dp1461
g10
I6
sg11
g531
sa(dp1462
g10
I81
sg11
g533
sa(dp1463
g10
I112
sg11
g535
sa(dp1464
g10
I113
sg11
g537
sa(dp1465
g10
I176
sg11
g539
sa(dp1466
g10
I180
sg11
g541
sa(dp1467
g10
I186
sg11
g543
sa(dp1468
g10
I218
sg11
g545
sa(dp1469
g10
I246
sg11
g547
sa(dp1470
g10
I248
sg11
g549
sa(dp1471
g10
I265
sg11
g551
sa(dp1472
g10
I269
sg11
g553
sa(dp1473
g10
I274
sg11
g555
sa(dp1474
g10
I301
sg11
g557
sa(dp1475
g10
I304
sg11
g559
sa(dp1476
g10
I306
sg11
g561
sa(dp1477
g10
I321
sg11
g563
sa(dp1478
g10
I326
sg11
g565
sa(dp1479
g10
I351
sg11
g567
sa(dp1480
g10
I392
sg11
g569
sasg10
I413
sg11
g570
ssI414
(dp1481
g1
(lp1482
(dp1483
g10
I7
sg11
g439
sa(dp1484
g10
I35
sg11
g441
sa(dp1485
g10
I71
sg11
g443
sa(dp1486
g10
I90
sg11
g445
sa(dp1487
g10
I92
sg11
g447
sa(dp1488
g10
I126
sg11
g449
sa(dp1489
g10
I135
sg11
g451
sa(dp1490
g10
I136
sg11
g453
sa(dp1491
g10
I137
sg11
g455
sa(dp1492
g10
I146
sg11
g457
sa(dp1493
g10
I163
sg11
g459
sa(dp1494
g10
I231
sg11
g461
sa(dp1495
g10
I236
sg11
g463
sa(dp1496
g10
I237
sg11
g465
sa(dp1497
g10
I251
sg11
g467
sa(dp1498
g10
I254
sg11
g469
sa(dp1499
g10
I280
sg11
g471
sa(dp1500
g10
I284
sg11
g473
sa(dp1501
g10
I314
sg11
g475
sa(dp1502
g10
I330
sg11
g477
sa(dp1503
g10
I389
sg11
g479
sa(dp1504
g10
I390
sg11
g481
sa(dp1505
g10
I394
sg11
g483
sa(dp1506
g10
I395
sg11
g485
sa(dp1507
g10
I406
sg11
g487
sasg10
I414
sg11
g488
ssI415
(dp1508
g1
(lp1509
(dp1510
g10
I8
sg11
g618
sa(dp1511
g10
I31
sg11
g620
sa(dp1512
g10
I50
sg11
g622
sa(dp1513
g10
I86
sg11
g624
sa(dp1514
g10
I101
sg11
g626
sa(dp1515
g10
I115
sg11
g628
sa(dp1516
g10
I116
sg11
g630
sa(dp1517
g10
I117
sg11
g632
sa(dp1518
g10
I118
sg11
g634
sa(dp1519
g10
I142
sg11
g636
sa(dp1520
g10
I167
sg11
g638
sa(dp1521
g10
I168
sg11
g640
sa(dp1522
g10
I175
sg11
g642
sa(dp1523
g10
I227
sg11
g644
sa(dp1524
g10
I266
sg11
g646
sa(dp1525
g10
I286
sg11
g648
sa(dp1526
g10
I289
sg11
g650
sa(dp1527
g10
I293
sg11
g652
sa(dp1528
g10
I297
sg11
g654
sa(dp1529
g10
I302
sg11
g656
sa(dp1530
g10
I318
sg11
g658
sa(dp1531
g10
I324
sg11
g660
sa(dp1532
g10
I331
sg11
g662
sa(dp1533
g10
I338
sg11
g664
sa(dp1534
g10
I349
sg11
g666
sa(dp1535
g10
I357
sg11
g668
sa(dp1536
g10
I365
sg11
g670
sa(dp1537
g10
I383
sg11
g672
sa(dp1538
g10
I387
sg11
g674
sa(dp1539
g10
I407
sg11
g676
sasg10
I415
sg11
g677
ssI416
(dp1540
g1
(lp1541
(dp1542
g10
I9
sg11
g108
sa(dp1543
g10
I46
sg11
g110
sa(dp1544
g10
I59
sg11
g112
sa(dp1545
g10
I108
sg11
g114
sa(dp1546
g10
I123
sg11
g116
sa(dp1547
g10
I188
sg11
g118
sa(dp1548
g10
I272
sg11
g120
sa(dp1549
g10
I278
sg11
g122
sa(dp1550
g10
I312
sg11
g124
sa(dp1551
g10
I332
sg11
g126
sa(dp1552
g10
I348
sg11
g128
sa(dp1553
g10
I369
sg11
g130
sa(dp1554
g10
I378
sg11
g132
sa(dp1555
g10
I379
sg11
g134
sa(dp1556
g10
I380
sg11
g136
sa(dp1557
g10
I386
sg11
g138
sa(dp1558
g10
I401
sg11
g140
sasg10
I416
sg11
g141
ssI417
(dp1559
g1
(lp1560
(dp1561
g10
I10
sg11
g681
sa(dp1562
g10
I17
sg11
g683
sa(dp1563
g10
I49
sg11
g685
sa(dp1564
g10
I60
sg11
g687
sa(dp1565
g10
I61
sg11
g689
sa(dp1566
g10
I66
sg11
g691
sa(dp1567
g10
I87
sg11
g693
sa(dp1568
g10
I173
sg11
g695
sa(dp1569
g10
I179
sg11
g697
sa(dp1570
g10
I203
sg11
g699
sa(dp1571
g10
I208
sg11
g701
sa(dp1572
g10
I298
sg11
g703
sasg10
I417
sg11
g704
ssI418
(dp1573
g1
(lp1574
(dp1575
g10
I11
sg11
g341
sa(dp1576
g10
I45
sg11
g343
sa(dp1577
g10
I52
sg11
g345
sa(dp1578
g10
I62
sg11
g347
sa(dp1579
g10
I80
sg11
g349
sa(dp1580
g10
I95
sg11
g351
sa(dp1581
g10
I143
sg11
g353
sa(dp1582
g10
I172
sg11
g355
sa(dp1583
g10
I249
sg11
g357
sa(dp1584
g10
I258
sg11
g359
sa(dp1585
g10
I275
sg11
g361
sa(dp1586
g10
I366
sg11
g363
sasg10
I418
sg11
g364
ssI419
(dp1587
g1
(lp1588
(dp1589
g10
I12
sg11
g740
sa(dp1590
g10
I15
sg11
g742
sa(dp1591
g10
I28
sg11
g744
sa(dp1592
g10
I43
sg11
g746
sa(dp1593
g10
I72
sg11
g748
sa(dp1594
g10
I77
sg11
g750
sa(dp1595
g10
I84
sg11
g752
sa(dp1596
g10
I106
sg11
g754
sa(dp1597
g10
I185
sg11
g756
sa(dp1598
g10
I238
sg11
g758
sa(dp1599
g10
I282
sg11
g760
sa(dp1600
g10
I283
sg11
g762
sa(dp1601
g10
I295
sg11
g764
sa(dp1602
g10
I311
sg11
g766
sa(dp1603
g10
I368
sg11
g768
sa(dp1604
g10
I385
sg11
g770
sasg10
I419
sg11
g771
ssI420
(dp1605
g1
(lp1606
(dp1607
g10
I13
sg11
g145
sa(dp1608
g10
I16
sg11
g147
sa(dp1609
g10
I33
sg11
g149
sa(dp1610
g10
I36
sg11
g151
sa(dp1611
g10
I128
sg11
g153
sa(dp1612
g10
I131
sg11
g155
sa(dp1613
g10
I156
sg11
g157
sa(dp1614
g10
I182
sg11
g159
sa(dp1615
g10
I209
sg11
g161
sa(dp1616
g10
I214
sg11
g163
sa(dp1617
g10
I245
sg11
g165
sa(dp1618
g10
I250
sg11
g167
sa(dp1619
g10
I260
sg11
g169
sa(dp1620
g10
I291
sg11
g171
sa(dp1621
g10
I307
sg11
g173
sa(dp1622
g10
I353
sg11
g175
sa(dp1623
g10
I382
sg11
g177
sa(dp1624
g10
I400
sg11
g179
sa(dp1625
g10
I403
sg11
g181
sasg10
I420
sg11
g182
ssI421
(dp1626
g1
(lp1627
(dp1628
g10
I18
sg11
g775
sa(dp1629
g10
I76
sg11
g777
sa(dp1630
g10
I103
sg11
g779
sa(dp1631
g10
I134
sg11
g781
sa(dp1632
g10
I174
sg11
g783
sa(dp1633
g10
I285
sg11
g785
sa(dp1634
g10
I292
sg11
g787
sa(dp1635
g10
I305
sg11
g789
sa(dp1636
g10
I335
sg11
g791
sa(dp1637
g10
I340
sg11
g793
sa(dp1638
g10
I341
sg11
g795
sasg10
I421
sg11
g796
ssI422
(dp1639
g1
(lp1640
(dp1641
g10
I19
sg11
g864
sa(dp1642
g10
I40
sg11
g866
sa(dp1643
g10
I55
sg11
g868
sa(dp1644
g10
I57
sg11
g870
sa(dp1645
g10
I78
sg11
g872
sa(dp1646
g10
I144
sg11
g874
sa(dp1647
g10
I184
sg11
g876
sa(dp1648
g10
I189
sg11
g878
sa(dp1649
g10
I290
sg11
g880
sa(dp1650
g10
I317
sg11
g882
sa(dp1651
g10
I334
sg11
g884
sa(dp1652
g10
I336
sg11
g886
sa(dp1653
g10
I370
sg11
g888
sa(dp1654
g10
I404
sg11
g890
sasg10
I422
sg11
g891
ssI423
(dp1655
g1
(lp1656
(dp1657
g10
I20
sg11
g186
sa(dp1658
g10
I27
sg11
g188
sa(dp1659
g10
I34
sg11
g190
sa(dp1660
g10
I37
sg11
g192
sa(dp1661
g10
I38
sg11
g194
sa(dp1662
g10
I67
sg11
g196
sa(dp1663
g10
I83
sg11
g198
sa(dp1664
g10
I110
sg11
g200
sa(dp1665
g10
I111
sg11
g202
sa(dp1666
g10
I133
sg11
g204
sa(dp1667
g10
I153
sg11
g206
sa(dp1668
g10
I165
sg11
g208
sa(dp1669
g10
I169
sg11
g210
sa(dp1670
g10
I197
sg11
g212
sa(dp1671
g10
I212
sg11
g214
sa(dp1672
g10
I220
sg11
g216
sa(dp1673
g10
I221
sg11
g218
sa(dp1674
g10
I240
sg11
g220
sa(dp1675
g10
I259
sg11
g222
sa(dp1676
g10
I270
sg11
g224
sa(dp1677
g10
I273
sg11
g226
sa(dp1678
g10
I279
sg11
g228
sa(dp1679
g10
I342
sg11
g230
sa(dp1680
g10
I350
sg11
g232
sa(dp1681
g10
I381
sg11
g234
sasg10
I423
sg11
g235
ssI424
(dp1682
g1
(lp1683
(dp1684
g10
I22
sg11
g368
sa(dp1685
g10
I24
sg11
g370
sa(dp1686
g10
I48
sg11
g372
sa(dp1687
g10
I138
sg11
g374
sa(dp1688
g10
I171
sg11
g376
sa(dp1689
g10
I181
sg11
g378
sa(dp1690
g10
I228
sg11
g380
sa(dp1691
g10
I294
sg11
g382
sa(dp1692
g10
I296
sg11
g384
sa(dp1693
g10
I377
sg11
g386
sa(dp1694
g10
I393
sg11
g388
sasg10
I424
sg11
g389
ssI425
(dp1695
g1
(lp1696
(dp1697
g10
I23
sg11
g574
sa(dp1698
g10
I44
sg11
g576
sa(dp1699
g10
I58
sg11
g578
sa(dp1700
g10
I88
sg11
g580
sa(dp1701
g10
I89
sg11
g582
sa(dp1702
g10
I91
sg11
g584
sa(dp1703
g10
I139
sg11
g586
sa(dp1704
g10
I140
sg11
g588
sa(dp1705
g10
I147
sg11
g590
sa(dp1706
g10
I148
sg11
g592
sa(dp1707
g10
I166
sg11
g594
sa(dp1708
g10
I183
sg11
g596
sa(dp1709
g10
I222
sg11
g598
sa(dp1710
g10
I235
sg11
g600
sa(dp1711
g10
I256
sg11
g602
sa(dp1712
g10
I316
sg11
g604
sa(dp1713
g10
I322
sg11
g606
sa(dp1714
g10
I343
sg11
g608
sa(dp1715
g10
I388
sg11
g610
sasg10
I425
sg11
g611
ssI426
(dp1716
g1
(lp1717
(dp1718
g10
I25
sg11
g492
sa(dp1719
g10
I56
sg11
g494
sa(dp1720
g10
I82
sg11
g496
sa(dp1721
g10
I124
sg11
g498
sa(dp1722
g10
I157
sg11
g500
sa(dp1723
g10
I252
sg11
g502
sa(dp1724
g10
I253
sg11
g504
sa(dp1725
g10
I325
sg11
g506
sasg10
I426
sg11
g507
ssI427
(dp1726
g1
(lp1727
(dp1728
g10
I29
sg11
g800
sa(dp1729
g10
I41
sg11
g802
sa(dp1730
g10
I96
sg11
g804
sa(dp1731
g10
I100
sg11
g806
sa(dp1732
g10
I132
sg11
g808
sa(dp1733
g10
I200
sg11
g810
sa(dp1734
g10
I202
sg11
g812
sa(dp1735
g10
I219
sg11
g814
sa(dp1736
g10
I264
sg11
g816
sa(dp1737
g10
I299
sg11
g818
sa(dp1738
g10
I372
sg11
g820
sa(dp1739
g10
I376
sg11
g822
sa(dp1740
g10
I397
sg11
g824
sa(dp1741
g10
I402
sg11
g826
sa(dp1742
g10
I405
sg11
g828
sasg10
I427
sg11
g829
ssI428
(dp1743
g1
(lp1744
(dp1745
g10
I30
sg11
g708
sa(dp1746
g10
I47
sg11
g710
sa(dp1747
g10
I79
sg11
g712
sa(dp1748
g10
I94
sg11
g714
sa(dp1749
g10
I104
sg11
g716
sa(dp1750
g10
I119
sg11
g718
sa(dp1751
g10
I121
sg11
g720
sa(dp1752
g10
I122
sg11
g722
sa(dp1753
g10
I187
sg11
g724
sa(dp1754
g10
I262
sg11
g726
sa(dp1755
g10
I276
sg11
g728
sa(dp1756
g10
I277
sg11
g730
sa(dp1757
g10
I281
sg11
g732
sasg10
I428
sg11
g733
ssI429
(dp1758
g1
(lp1759
(dp1760
g10
I51
sg11
g895
sa(dp1761
g10
I159
sg11
g897
sa(dp1762
g10
I161
sg11
g899
sa(dp1763
g10
I162
sg11
g901
sa(dp1764
g10
I205
sg11
g903
sa(dp1765
g10
I206
sg11
g905
sa(dp1766
g10
I333
sg11
g907
sa(dp1767
g10
I396
sg11
g909
sa(dp1768
g10
I399
sg11
g911
sasg10
I429
sg11
g912
ssI430
(dp1769
g1
(lp1770
(dp1771
g10
I63
sg11
g833
sa(dp1772
g10
I85
sg11
g835
sa(dp1773
g10
I114
sg11
g837
sa(dp1774
g10
I149
sg11
g839
sa(dp1775
g10
I195
sg11
g841
sa(dp1776
g10
I198
sg11
g843
sa(dp1777
g10
I257
sg11
g845
sa(dp1778
g10
I327
sg11
g847
sa(dp1779
g10
I328
sg11
g849
sa(dp1780
g10
I354
sg11
g851
sa(dp1781
g10
I355
sg11
g853
sasg10
I430
sg11
g854
ssI431
(dp1782
g1
(lp1783
(dp1784
g10
I160
sg11
g919
sa(dp1785
g10
I207
sg11
g921
sa(dp1786
g10
I315
sg11
g923
sa(dp1787
g10
I362
sg11
g925
sasg10
I431
sg11
g926
ssI432
(dp1788
g1
(lp1789
(dp1790
g10
I164
sg11
g511
sa(dp1791
g10
I177
sg11
g513
sa(dp1792
g10
I192
sg11
g515
sa(dp1793
g10
I242
sg11
g517
sa(dp1794
g10
I303
sg11
g519
sa(dp1795
g10
I308
sg11
g521
sa(dp1796
g10
I310
sg11
g523
sasg10
I432
sg11
g524
ssI433
(dp1797
g1
(lp1798
(dp1799
g1
(lp1800
(dp1801
g10
I0
sg11
g12
sa(dp1802
g10
I4
sg11
g14
sa(dp1803
g10
I26
sg11
g16
sa(dp1804
g10
I32
sg11
g18
sa(dp1805
g10
I68
sg11
g20
sa(dp1806
g10
I69
sg11
g22
sa(dp1807
g10
I70
sg11
g24
sa(dp1808
g10
I125
sg11
g26
sa(dp1809
g10
I129
sg11
g28
sa(dp1810
g10
I130
sg11
g30
sa(dp1811
g10
I151
sg11
g32
sa(dp1812
g10
I191
sg11
g34
sa(dp1813
g10
I211
sg11
g36
sa(dp1814
g10
I216
sg11
g38
sa(dp1815
g10
I217
sg11
g40
sa(dp1816
g10
I224
sg11
g42
sa(dp1817
g10
I226
sg11
g44
sa(dp1818
g10
I230
sg11
g46
sa(dp1819
g10
I234
sg11
g48
sa(dp1820
g10
I247
sg11
g50
sa(dp1821
g10
I267
sg11
g52
sa(dp1822
g10
I271
sg11
g54
sa(dp1823
g10
I323
sg11
g56
sa(dp1824
g10
I337
sg11
g58
sa(dp1825
g10
I346
sg11
g60
sa(dp1826
g10
I347
sg11
g62
sasg10
I408
sg11
g63
sa(dp1827
g1
(lp1828
(dp1829
g10
I3
sg11
g67
sa(dp1830
g10
I42
sg11
g69
sa(dp1831
g10
I65
sg11
g71
sa(dp1832
g10
I74
sg11
g73
sa(dp1833
g10
I102
sg11
g75
sa(dp1834
g10
I141
sg11
g77
sa(dp1835
g10
I150
sg11
g79
sa(dp1836
g10
I155
sg11
g81
sa(dp1837
g10
I193
sg11
g83
sa(dp1838
g10
I196
sg11
g85
sa(dp1839
g10
I204
sg11
g87
sa(dp1840
g10
I210
sg11
g89
sa(dp1841
g10
I229
sg11
g91
sa(dp1842
g10
I239
sg11
g93
sa(dp1843
g10
I261
sg11
g95
sa(dp1844
g10
I300
sg11
g97
sa(dp1845
g10
I309
sg11
g99
sa(dp1846
g10
I345
sg11
g101
sa(dp1847
g10
I364
sg11
g103
sasg10
I411
sg11
g104
sa(dp1848
g1
(lp1849
(dp1850
g10
I9
sg11
g108
sa(dp1851
g10
I46
sg11
g110
sa(dp1852
g10
I59
sg11
g112
sa(dp1853
g10
I108
sg11
g114
sa(dp1854
g10
I123
sg11
g116
sa(dp1855
g10
I188
sg11
g118
sa(dp1856
g10
I272
sg11
g120
sa(dp1857
g10
I278
sg11
g122
sa(dp1858
g10
I312
sg11
g124
sa(dp1859
g10
I332
sg11
g126
sa(dp1860
g10
I348
sg11
g128
sa(dp1861
g10
I369
sg11
g130
sa(dp1862
g10
I378
sg11
g132
sa(dp1863
g10
I379
sg11
g134
sa(dp1864
g10
I380
sg11
g136
sa(dp1865
g10
I386
sg11
g138
sa(dp1866
g10
I401
sg11
g140
sasg10
I416
sg11
g141
sa(dp1867
g1
(lp1868
(dp1869
g10
I13
sg11
g145
sa(dp1870
g10
I16
sg11
g147
sa(dp1871
g10
I33
sg11
g149
sa(dp1872
g10
I36
sg11
g151
sa(dp1873
g10
I128
sg11
g153
sa(dp1874
g10
I131
sg11
g155
sa(dp1875
g10
I156
sg11
g157
sa(dp1876
g10
I182
sg11
g159
sa(dp1877
g10
I209
sg11
g161
sa(dp1878
g10
I214
sg11
g163
sa(dp1879
g10
I245
sg11
g165
sa(dp1880
g10
I250
sg11
g167
sa(dp1881
g10
I260
sg11
g169
sa(dp1882
g10
I291
sg11
g171
sa(dp1883
g10
I307
sg11
g173
sa(dp1884
g10
I353
sg11
g175
sa(dp1885
g10
I382
sg11
g177
sa(dp1886
g10
I400
sg11
g179
sa(dp1887
g10
I403
sg11
g181
sasg10
I420
sg11
g182
sa(dp1888
g1
(lp1889
(dp1890
g10
I20
sg11
g186
sa(dp1891
g10
I27
sg11
g188
sa(dp1892
g10
I34
sg11
g190
sa(dp1893
g10
I37
sg11
g192
sa(dp1894
g10
I38
sg11
g194
sa(dp1895
g10
I67
sg11
g196
sa(dp1896
g10
I83
sg11
g198
sa(dp1897
g10
I110
sg11
g200
sa(dp1898
g10
I111
sg11
g202
sa(dp1899
g10
I133
sg11
g204
sa(dp1900
g10
I153
sg11
g206
sa(dp1901
g10
I165
sg11
g208
sa(dp1902
g10
I169
sg11
g210
sa(dp1903
g10
I197
sg11
g212
sa(dp1904
g10
I212
sg11
g214
sa(dp1905
g10
I220
sg11
g216
sa(dp1906
g10
I221
sg11
g218
sa(dp1907
g10
I240
sg11
g220
sa(dp1908
g10
I259
sg11
g222
sa(dp1909
g10
I270
sg11
g224
sa(dp1910
g10
I273
sg11
g226
sa(dp1911
g10
I279
sg11
g228
sa(dp1912
g10
I342
sg11
g230
sa(dp1913
g10
I350
sg11
g232
sa(dp1914
g10
I381
sg11
g234
sasg10
I423
sg11
g235
sasg10
I433
sg11
g236
ssI434
(dp1915
g1
(lp1916
(dp1917
g1
(lp1918
(dp1919
g10
I1
sg11
g245
sa(dp1920
g10
I21
sg11
g247
sa(dp1921
g10
I64
sg11
g249
sa(dp1922
g10
I73
sg11
g251
sa(dp1923
g10
I98
sg11
g253
sa(dp1924
g10
I99
sg11
g255
sa(dp1925
g10
I105
sg11
g257
sa(dp1926
g10
I107
sg11
g259
sa(dp1927
g10
I127
sg11
g261
sa(dp1928
g10
I158
sg11
g263
sa(dp1929
g10
I201
sg11
g265
sa(dp1930
g10
I213
sg11
g267
sa(dp1931
g10
I255
sg11
g269
sa(dp1932
g10
I263
sg11
g271
sa(dp1933
g10
I288
sg11
g273
sa(dp1934
g10
I313
sg11
g275
sa(dp1935
g10
I319
sg11
g277
sa(dp1936
g10
I320
sg11
g279
sa(dp1937
g10
I329
sg11
g281
sa(dp1938
g10
I339
sg11
g283
sa(dp1939
g10
I344
sg11
g285
sa(dp1940
g10
I356
sg11
g287
sa(dp1941
g10
I358
sg11
g289
sa(dp1942
g10
I360
sg11
g291
sa(dp1943
g10
I371
sg11
g293
sa(dp1944
g10
I374
sg11
g295
sa(dp1945
g10
I375
sg11
g297
sa(dp1946
g10
I398
sg11
g299
sasg10
I409
sg11
g300
sa(dp1947
g1
(lp1948
(dp1949
g10
I5
sg11
g304
sa(dp1950
g10
I14
sg11
g306
sa(dp1951
g10
I39
sg11
g308
sa(dp1952
g10
I53
sg11
g310
sa(dp1953
g10
I120
sg11
g312
sa(dp1954
g10
I152
sg11
g314
sa(dp1955
g10
I154
sg11
g316
sa(dp1956
g10
I170
sg11
g318
sa(dp1957
g10
I178
sg11
g320
sa(dp1958
g10
I190
sg11
g322
sa(dp1959
g10
I194
sg11
g324
sa(dp1960
g10
I199
sg11
g326
sa(dp1961
g10
I215
sg11
g328
sa(dp1962
g10
I352
sg11
g330
sa(dp1963
g10
I373
sg11
g332
sa(dp1964
g10
I384
sg11
g334
sa(dp1965
g10
I391
sg11
g336
sasg10
I412
sg11
g337
sa(dp1966
g1
(lp1967
(dp1968
g10
I11
sg11
g341
sa(dp1969
g10
I45
sg11
g343
sa(dp1970
g10
I52
sg11
g345
sa(dp1971
g10
I62
sg11
g347
sa(dp1972
g10
I80
sg11
g349
sa(dp1973
g10
I95
sg11
g351
sa(dp1974
g10
I143
sg11
g353
sa(dp1975
g10
I172
sg11
g355
sa(dp1976
g10
I249
sg11
g357
sa(dp1977
g10
I258
sg11
g359
sa(dp1978
g10
I275
sg11
g361
sa(dp1979
g10
I366
sg11
g363
sasg10
I418
sg11
g364
sa(dp1980
g1
(lp1981
(dp1982
g10
I22
sg11
g368
sa(dp1983
g10
I24
sg11
g370
sa(dp1984
g10
I48
sg11
g372
sa(dp1985
g10
I138
sg11
g374
sa(dp1986
g10
I171
sg11
g376
sa(dp1987
g10
I181
sg11
g378
sa(dp1988
g10
I228
sg11
g380
sa(dp1989
g10
I294
sg11
g382
sa(dp1990
g10
I296
sg11
g384
sa(dp1991
g10
I377
sg11
g386
sa(dp1992
g10
I393
sg11
g388
sasg10
I424
sg11
g389
sasg10
I434
sg11
g390
ssI435
(dp1993
g1
(lp1994
(dp1995
g1
(lp1996
(dp1997
g10
I2
sg11
g396
sa(dp1998
g10
I54
sg11
g398
sa(dp1999
g10
I75
sg11
g400
sa(dp2000
g10
I93
sg11
g402
sa(dp2001
g10
I97
sg11
g404
sa(dp2002
g10
I109
sg11
g406
sa(dp2003
g10
I145
sg11
g408
sa(dp2004
g10
I223
sg11
g410
sa(dp2005
g10
I225
sg11
g412
sa(dp2006
g10
I232
sg11
g414
sa(dp2007
g10
I233
sg11
g416
sa(dp2008
g10
I241
sg11
g418
sa(dp2009
g10
I243
sg11
g420
sa(dp2010
g10
I244
sg11
g422
sa(dp2011
g10
I268
sg11
g424
sa(dp2012
g10
I287
sg11
g426
sa(dp2013
g10
I359
sg11
g428
sa(dp2014
g10
I361
sg11
g430
sa(dp2015
g10
I363
sg11
g432
sa(dp2016
g10
I367
sg11
g434
sasg10
I410
sg11
g435
sa(dp2017
g1
(lp2018
(dp2019
g10
I7
sg11
g439
sa(dp2020
g10
I35
sg11
g441
sa(dp2021
g10
I71
sg11
g443
sa(dp2022
g10
I90
sg11
g445
sa(dp2023
g10
I92
sg11
g447
sa(dp2024
g10
I126
sg11
g449
sa(dp2025
g10
I135
sg11
g451
sa(dp2026
g10
I136
sg11
g453
sa(dp2027
g10
I137
sg11
g455
sa(dp2028
g10
I146
sg11
g457
sa(dp2029
g10
I163
sg11
g459
sa(dp2030
g10
I231
sg11
g461
sa(dp2031
g10
I236
sg11
g463
sa(dp2032
g10
I237
sg11
g465
sa(dp2033
g10
I251
sg11
g467
sa(dp2034
g10
I254
sg11
g469
sa(dp2035
g10
I280
sg11
g471
sa(dp2036
g10
I284
sg11
g473
sa(dp2037
g10
I314
sg11
g475
sa(dp2038
g10
I330
sg11
g477
sa(dp2039
g10
I389
sg11
g479
sa(dp2040
g10
I390
sg11
g481
sa(dp2041
g10
I394
sg11
g483
sa(dp2042
g10
I395
sg11
g485
sa(dp2043
g10
I406
sg11
g487
sasg10
I414
sg11
g488
sa(dp2044
g1
(lp2045
(dp2046
g10
I25
sg11
g492
sa(dp2047
g10
I56
sg11
g494
sa(dp2048
g10
I82
sg11
g496
sa(dp2049
g10
I124
sg11
g498
sa(dp2050
g10
I157
sg11
g500
sa(dp2051
g10
I252
sg11
g502
sa(dp2052
g10
I253
sg11
g504
sa(dp2053
g10
I325
sg11
g506
sasg10
I426
sg11
g507
sa(dp2054
g1
(lp2055
(dp2056
g10
I164
sg11
g511
sa(dp2057
g10
I177
sg11
g513
sa(dp2058
g10
I192
sg11
g515
sa(dp2059
g10
I242
sg11
g517
sa(dp2060
g10
I303
sg11
g519
sa(dp2061
g10
I308
sg11
g521
sa(dp2062
g10
I310
sg11
g523
sasg10
I432
sg11
g524
sasg10
I435
sg11
g525
ssI436
(dp2063
g1
(lp2064
(dp2065
g1
(lp2066
(dp2067
g10
I6
sg11
g531
sa(dp2068
g10
I81
sg11
g533
sa(dp2069
g10
I112
sg11
g535
sa(dp2070
g10
I113
sg11
g537
sa(dp2071
g10
I176
sg11
g539
sa(dp2072
g10
I180
sg11
g541
sa(dp2073
g10
I186
sg11
g543
sa(dp2074
g10
I218
sg11
g545
sa(dp2075
g10
I246
sg11
g547
sa(dp2076
g10
I248
sg11
g549
sa(dp2077
g10
I265
sg11
g551
sa(dp2078
g10
I269
sg11
g553
sa(dp2079
g10
I274
sg11
g555
sa(dp2080
g10
I301
sg11
g557
sa(dp2081
g10
I304
sg11
g559
sa(dp2082
g10
I306
sg11
g561
sa(dp2083
g10
I321
sg11
g563
sa(dp2084
g10
I326
sg11
g565
sa(dp2085
g10
I351
sg11
g567
sa(dp2086
g10
I392
sg11
g569
sasg10
I413
sg11
g570
sa(dp2087
g1
(lp2088
(dp2089
g10
I23
sg11
g574
sa(dp2090
g10
I44
sg11
g576
sa(dp2091
g10
I58
sg11
g578
sa(dp2092
g10
I88
sg11
g580
sa(dp2093
g10
I89
sg11
g582
sa(dp2094
g10
I91
sg11
g584
sa(dp2095
g10
I139
sg11
g586
sa(dp2096
g10
I140
sg11
g588
sa(dp2097
g10
I147
sg11
g590
sa(dp2098
g10
I148
sg11
g592
sa(dp2099
g10
I166
sg11
g594
sa(dp2100
g10
I183
sg11
g596
sa(dp2101
g10
I222
sg11
g598
sa(dp2102
g10
I235
sg11
g600
sa(dp2103
g10
I256
sg11
g602
sa(dp2104
g10
I316
sg11
g604
sa(dp2105
g10
I322
sg11
g606
sa(dp2106
g10
I343
sg11
g608
sa(dp2107
g10
I388
sg11
g610
sasg10
I425
sg11
g611
sasg10
I436
sg11
g612
ssI437
(dp2108
g1
(lp2109
(dp2110
g1
(lp2111
(dp2112
g10
I8
sg11
g618
sa(dp2113
g10
I31
sg11
g620
sa(dp2114
g10
I50
sg11
g622
sa(dp2115
g10
I86
sg11
g624
sa(dp2116
g10
I101
sg11
g626
sa(dp2117
g10
I115
sg11
g628
sa(dp2118
g10
I116
sg11
g630
sa(dp2119
g10
I117
sg11
g632
sa(dp2120
g10
I118
sg11
g634
sa(dp2121
g10
I142
sg11
g636
sa(dp2122
g10
I167
sg11
g638
sa(dp2123
g10
I168
sg11
g640
sa(dp2124
g10
I175
sg11
g642
sa(dp2125
g10
I227
sg11
g644
sa(dp2126
g10
I266
sg11
g646
sa(dp2127
g10
I286
sg11
g648
sa(dp2128
g10
I289
sg11
g650
sa(dp2129
g10
I293
sg11
g652
sa(dp2130
g10
I297
sg11
g654
sa(dp2131
g10
I302
sg11
g656
sa(dp2132
g10
I318
sg11
g658
sa(dp2133
g10
I324
sg11
g660
sa(dp2134
g10
I331
sg11
g662
sa(dp2135
g10
I338
sg11
g664
sa(dp2136
g10
I349
sg11
g666
sa(dp2137
g10
I357
sg11
g668
sa(dp2138
g10
I365
sg11
g670
sa(dp2139
g10
I383
sg11
g672
sa(dp2140
g10
I387
sg11
g674
sa(dp2141
g10
I407
sg11
g676
sasg10
I415
sg11
g677
sa(dp2142
g1
(lp2143
(dp2144
g10
I10
sg11
g681
sa(dp2145
g10
I17
sg11
g683
sa(dp2146
g10
I49
sg11
g685
sa(dp2147
g10
I60
sg11
g687
sa(dp2148
g10
I61
sg11
g689
sa(dp2149
g10
I66
sg11
g691
sa(dp2150
g10
I87
sg11
g693
sa(dp2151
g10
I173
sg11
g695
sa(dp2152
g10
I179
sg11
g697
sa(dp2153
g10
I203
sg11
g699
sa(dp2154
g10
I208
sg11
g701
sa(dp2155
g10
I298
sg11
g703
sasg10
I417
sg11
g704
sa(dp2156
g1
(lp2157
(dp2158
g10
I30
sg11
g708
sa(dp2159
g10
I47
sg11
g710
sa(dp2160
g10
I79
sg11
g712
sa(dp2161
g10
I94
sg11
g714
sa(dp2162
g10
I104
sg11
g716
sa(dp2163
g10
I119
sg11
g718
sa(dp2164
g10
I121
sg11
g720
sa(dp2165
g10
I122
sg11
g722
sa(dp2166
g10
I187
sg11
g724
sa(dp2167
g10
I262
sg11
g726
sa(dp2168
g10
I276
sg11
g728
sa(dp2169
g10
I277
sg11
g730
sa(dp2170
g10
I281
sg11
g732
sasg10
I428
sg11
g733
sasg10
I437
sg11
g734
ssI438
(dp2171
g1
(lp2172
(dp2173
g1
(lp2174
(dp2175
g10
I12
sg11
g740
sa(dp2176
g10
I15
sg11
g742
sa(dp2177
g10
I28
sg11
g744
sa(dp2178
g10
I43
sg11
g746
sa(dp2179
g10
I72
sg11
g748
sa(dp2180
g10
I77
sg11
g750
sa(dp2181
g10
I84
sg11
g752
sa(dp2182
g10
I106
sg11
g754
sa(dp2183
g10
I185
sg11
g756
sa(dp2184
g10
I238
sg11
g758
sa(dp2185
g10
I282
sg11
g760
sa(dp2186
g10
I283
sg11
g762
sa(dp2187
g10
I295
sg11
g764
sa(dp2188
g10
I311
sg11
g766
sa(dp2189
g10
I368
sg11
g768
sa(dp2190
g10
I385
sg11
g770
sasg10
I419
sg11
g771
sa(dp2191
g1
(lp2192
(dp2193
g10
I18
sg11
g775
sa(dp2194
g10
I76
sg11
g777
sa(dp2195
g10
I103
sg11
g779
sa(dp2196
g10
I134
sg11
g781
sa(dp2197
g10
I174
sg11
g783
sa(dp2198
g10
I285
sg11
g785
sa(dp2199
g10
I292
sg11
g787
sa(dp2200
g10
I305
sg11
g789
sa(dp2201
g10
I335
sg11
g791
sa(dp2202
g10
I340
sg11
g793
sa(dp2203
g10
I341
sg11
g795
sasg10
I421
sg11
g796
sa(dp2204
g1
(lp2205
(dp2206
g10
I29
sg11
g800
sa(dp2207
g10
I41
sg11
g802
sa(dp2208
g10
I96
sg11
g804
sa(dp2209
g10
I100
sg11
g806
sa(dp2210
g10
I132
sg11
g808
sa(dp2211
g10
I200
sg11
g810
sa(dp2212
g10
I202
sg11
g812
sa(dp2213
g10
I219
sg11
g814
sa(dp2214
g10
I264
sg11
g816
sa(dp2215
g10
I299
sg11
g818
sa(dp2216
g10
I372
sg11
g820
sa(dp2217
g10
I376
sg11
g822
sa(dp2218
g10
I397
sg11
g824
sa(dp2219
g10
I402
sg11
g826
sa(dp2220
g10
I405
sg11
g828
sasg10
I427
sg11
g829
sa(dp2221
g1
(lp2222
(dp2223
g10
I63
sg11
g833
sa(dp2224
g10
I85
sg11
g835
sa(dp2225
g10
I114
sg11
g837
sa(dp2226
g10
I149
sg11
g839
sa(dp2227
g10
I195
sg11
g841
sa(dp2228
g10
I198
sg11
g843
sa(dp2229
g10
I257
sg11
g845
sa(dp2230
g10
I327
sg11
g847
sa(dp2231
g10
I328
sg11
g849
sa(dp2232
g10
I354
sg11
g851
sa(dp2233
g10
I355
sg11
g853
sasg10
I430
sg11
g854
sasg10
I438
sg11
g855
ssI439
(dp2234
g1
(lp2235
(dp2236
g1
(lp2237
(dp2238
g10
I19
sg11
g864
sa(dp2239
g10
I40
sg11
g866
sa(dp2240
g10
I55
sg11
g868
sa(dp2241
g10
I57
sg11
g870
sa(dp2242
g10
I78
sg11
g872
sa(dp2243
g10
I144
sg11
g874
sa(dp2244
g10
I184
sg11
g876
sa(dp2245
g10
I189
sg11
g878
sa(dp2246
g10
I290
sg11
g880
sa(dp2247
g10
I317
sg11
g882
sa(dp2248
g10
I334
sg11
g884
sa(dp2249
g10
I336
sg11
g886
sa(dp2250
g10
I370
sg11
g888
sa(dp2251
g10
I404
sg11
g890
sasg10
I422
sg11
g891
sa(dp2252
g1
(lp2253
(dp2254
g10
I51
sg11
g895
sa(dp2255
g10
I159
sg11
g897
sa(dp2256
g10
I161
sg11
g899
sa(dp2257
g10
I162
sg11
g901
sa(dp2258
g10
I205
sg11
g903
sa(dp2259
g10
I206
sg11
g905
sa(dp2260
g10
I333
sg11
g907
sa(dp2261
g10
I396
sg11
g909
sa(dp2262
g10
I399
sg11
g911
sasg10
I429
sg11
g912
sasg10
I439
sg11
g913
ssI440
(dp2263
g1
(lp2264
(dp2265
g1
(lp2266
(dp2267
g10
I160
sg11
g919
sa(dp2268
g10
I207
sg11
g921
sa(dp2269
g10
I315
sg11
g923
sa(dp2270
g10
I362
sg11
g925
sasg10
I431
sg11
g926
sasg10
I440
sg11
g927
ssI441
(dp2271
g1
(lp2272
(dp2273
g1
(lp2274
(dp2275
g10
I408
sg11
g63
sa(dp2276
g10
I411
sg11
g104
sa(dp2277
g10
I416
sg11
g141
sa(dp2278
g10
I420
sg11
g182
sa(dp2279
g10
I423
sg11
g235
sasg10
I433
sg11
g236
sasg10
I441
sg11
g237
ssI442
(dp2280
g1
(lp2281
(dp2282
g1
(lp2283
(dp2284
g10
I409
sg11
g300
sa(dp2285
g10
I412
sg11
g337
sa(dp2286
g10
I418
sg11
g364
sa(dp2287
g10
I424
sg11
g389
sasg10
I434
sg11
g390
sa(dp2288
g1
(lp2289
(dp2290
g10
I410
sg11
g435
sa(dp2291
g10
I414
sg11
g488
sa(dp2292
g10
I426
sg11
g507
sa(dp2293
g10
I432
sg11
g524
sasg10
I435
sg11
g525
sa(dp2294
g1
(lp2295
(dp2296
g10
I413
sg11
g570
sa(dp2297
g10
I425
sg11
g611
sasg10
I436
sg11
g612
sa(dp2298
g1
(lp2299
(dp2300
g10
I415
sg11
g677
sa(dp2301
g10
I417
sg11
g704
sa(dp2302
g10
I428
sg11
g733
sasg10
I437
sg11
g734
sa(dp2303
g1
(lp2304
(dp2305
g10
I419
sg11
g771
sa(dp2306
g10
I421
sg11
g796
sa(dp2307
g10
I427
sg11
g829
sa(dp2308
g10
I430
sg11
g854
sasg10
I438
sg11
g855
sasg10
I442
sg11
g856
ssI443
(dp2309
g1
(lp2310
(dp2311
g1
(lp2312
(dp2313
g10
I422
sg11
g891
sa(dp2314
g10
I429
sg11
g912
sasg10
I439
sg11
g913
sa(dp2315
g1
(lp2316
(dp2317
g10
I431
sg11
g926
sasg10
I440
sg11
g927
sasg10
I443
sg11
g928
ssI444
(dp2318
g1
(lp2319
(dp2320
g1
(lp2321
(dp2322
g10
I433
sg11
g236
sasg10
I441
sg11
g237
sa(dp2323
g1
(lp2324
(dp2325
g10
I434
sg11
g390
sa(dp2326
g10
I435
sg11
g525
sa(dp2327
g10
I436
sg11
g612
sa(dp2328
g10
I437
sg11
g734
sa(dp2329
g10
I438
sg11
g855
sasg10
I442
sg11
g856
sa(dp2330
g1
(lp2331
(dp2332
g10
I439
sg11
g913
sa(dp2333
g10
I440
sg11
g927
sasg10
I443
sg11
g928
sasg10
I444
sg11
g929
sstp2334
.