((dp0
S'children'
p1
(lp2
(dp3
g1
(lp4
(dp5
g1
(lp6
(dp7
g1
(lp8
(dp9
g1
(lp10
(dp11
S'id'
p12
I13676
sS'name'
p13
S'Robotics'
p14
sa(dp15
g12
I13966
sg13
S'Fisheries_science'
p16
sa(dp17
g12
I13990
sg13
S'Craft'
p18
sa(dp19
g12
I14011
sg13
S'Bioinformatics'
p20
sa(dp21
g12
I14047
sg13
S'Engineering'
p22
sa(dp23
g12
I14100
sg13
S'Educational_technology'
p24
sa(dp25
g12
I14169
sg13
S'Pictogram'
p26
sasg12
I14248
sg13
S'Technology'
p27
sa(dp28
g1
(lp29
(dp30
g1
(lp31
(dp32
g12
I13692
sg13
S'Material_safety_data_sheet'
p33
sa(dp34
g12
I14051
sg13
S'Hydrogen'
p35
sasg12
I14264
sg13
S'Molecule'
p36
sa(dp37
g1
(lp38
(dp39
g12
I13743
sg13
S'Platinum'
p40
sa(dp41
g12
I14052
sg13
S'Solid'
p42
sa(dp43
g12
I14113
sg13
S'Magnesium'
p44
sasg12
I14301
sg13
S'Carbon'
p45
sasg12
I14452
sg13
S'International_Union_of_Pure_and_Applied_Chemistry'
p46
sa(dp47
g1
(lp48
(dp49
g1
(lp50
(dp51
g12
I13747
sg13
S'Topology'
p52
sa(dp53
g12
I13887
sg13
S'Axiom'
p54
sa(dp55
g12
I13934
sg13
S'Geometry'
p56
sa(dp57
g12
I13984
sg13
S'Euclidean_space'
p58
sasg12
I14304
sg13
S'MathWorld'
p59
sa(dp60
g1
(lp61
(dp62
g12
I13904
sg13
S'Subspecialty'
p63
sa(dp64
g12
I13972
sg13
S'Telehealth'
p65
sa(dp66
g12
I14087
sg13
S'Regression_analysis'
p67
sa(dp68
g12
I14140
sg13
S'List_of_minor_planets'
p69
sa(dp70
g12
I14168
sg13
S'Asteroid'
p71
sa(dp72
g12
I14204
sg13
S'Expected_value'
p73
sa(dp74
g12
I14227
sg13
S'Clinical_trial'
p75
sa(dp76
g12
I14232
sg13
S'Opinion_poll'
p77
sasg12
I14381
sg13
S'Minor-planet_moon'
p78
sasg12
I14478
sg13
S'Springer_Science+Business_Media'
p79
sa(dp80
g1
(lp81
(dp82
g12
I13777
sg13
S'Anesthesia'
p83
sa(dp84
g12
I13796
sg13
S'Linguistics'
p85
sasg12
I14486
sg13
S'Medicine'
p86
sa(dp87
g1
(lp88
(dp89
g12
I14131
sg13
S'ISO_8601'
p90
sa(dp91
g12
I14198
sg13
S'__PRUNEME__'
p92
sasg12
I14504
sg13
S'ISO_31-1'
p93
sasg12
I14509
sg13
S'Mathematics'
p94
sa(dp95
g1
(lp96
(dp97
g1
(lp98
(dp99
g12
I13686
sg13
S'National_Geographic_Society'
p100
sa(dp101
g12
I13788
sg13
S'Ancient_Greek'
p102
sa(dp103
g12
I13874
sg13
S'John_Wiley_&_Sons'
p104
sa(dp105
g12
I14044
sg13
S'Latin'
p106
sa(dp107
g12
I14053
sg13
S'The_Netherlands'
p108
sasg12
I14258
sg13
S'Public_domain'
p109
sa(dp110
g1
(lp111
(dp112
g1
(lp113
(dp114
g12
I13695
sg13
S'Academic_journal'
p115
sa(dp116
g12
I13764
sg13
S'Isaac_Newton'
p117
sa(dp118
g12
I13783
sg13
S'Library'
p119
sa(dp120
g12
I14212
sg13
S'Royal_Society'
p121
sasg12
I14266
sg13
S'Library_science'
p122
sa(dp123
g1
(lp124
(dp125
g12
I14040
sg13
S'Connectors_for_car_audio'
p126
sa(dp127
g12
I14217
sg13
S'Handle_System'
p128
sasg12
I14410
sg13
S'Unique_identifier'
p129
sa(dp130
g1
(lp131
(dp132
g12
I14049
sg13
S'Political_science'
p133
sa(dp134
g12
I14055
sg13
S'Demography'
p135
sa(dp136
g12
I14136
sg13
S'Anthropology'
p137
sa(dp138
g12
I14155
sg13
S'Mahatma_Gandhi'
p139
sa(dp140
g12
I14189
sg13
S'Nonviolence'
p141
sa(dp142
g12
I14240
sg13
S'Bohemianism'
p143
sasg12
I14412
sg13
S'Sociology'
p144
sasg12
I14454
sg13
S'ASTM_International'
p145
sasg12
I14517
sg13
S'United_States'
p146
sa(dp147
g1
(lp148
(dp149
g1
(lp150
(dp151
g12
I13710
sg13
S'Rock_(geology)'
p152
sa(dp153
g12
I13739
sg13
S'Marine_pollution'
p154
sa(dp155
g12
I13863
sg13
S'Earth'
p156
sa(dp157
g12
I13899
sg13
S'Estuary'
p158
sa(dp159
g12
I14148
sg13
S'Ecosystem'
p160
sasg12
I14279
sg13
S'Erosion'
p161
sa(dp162
g1
(lp163
(dp164
g12
I13735
sg13
S'Conservation_status'
p165
sa(dp166
g12
I13837
sg13
S'Sugar'
p167
sa(dp168
g12
I13969
sg13
S'Alcoholic_beverage'
p169
sa(dp170
g12
I14013
sg13
S'Evergreen'
p171
sasg12
I14295
sg13
S'International_Union_for_Conservation_of_Nature'
p172
sa(dp173
g1
(lp174
(dp175
g12
I13838
sg13
S'Deforestation'
p176
sa(dp177
g12
I13886
sg13
S'Common-pool_resource'
p178
sasg12
I14354
sg13
S'Agriculture'
p179
sa(dp180
g1
(lp181
(dp182
g12
I13959
sg13
S'Copper'
p183
sa(dp184
g12
I14074
sg13
S'Cave_painting'
p185
sasg12
I14399
sg13
S'Deer'
p186
sasg12
I14464
sg13
S'Biodiversity'
p187
sa(dp188
g1
(lp189
(dp190
g1
(lp191
(dp192
g1
(lp193
(dp194
g12
I13717
sg13
S'Electron'
p195
sa(dp196
g12
I13736
sg13
S'Pressure'
p197
sasg12
I14284
sg13
S'Bibcode'
p198
sa(dp199
g1
(lp200
(dp201
g12
I13742
sg13
S'Celestial_mechanics'
p202
sa(dp203
g12
I13881
sg13
S'Physics'
p204
sasg12
I14300
sg13
S'Gravity'
p205
sa(dp206
g1
(lp207
(dp208
g12
I13800
sg13
S'Metre'
p209
sa(dp210
g12
I13801
sg13
S'Frequency'
p211
sasg12
I14333
sg13
S'Watt'
p212
sa(dp213
g1
(lp214
(dp215
g12
I13845
sg13
S'ArXiv'
p216
sa(dp217
g12
I13894
sg13
S'Epoch_(astronomy)'
p218
sa(dp219
g12
I13998
sg13
S'Milky_Way'
p220
sasg12
I14359
sg13
S'Astronomy'
p221
sasg12
I14468
sg13
S'International_System_of_Units'
p222
sa(dp223
g1
(lp224
(dp225
g1
(lp226
(dp227
g12
I13758
sg13
S'Enzyme'
p228
sa(dp229
g12
I13848
sg13
S'Anatomical_terminology'
p230
sasg12
I14312
sg13
S'Protein'
p231
sa(dp232
g1
(lp233
(dp234
g12
I13767
sg13
S'Pregnancy'
p235
sa(dp236
g12
I13769
sg13
S'HIV/AIDS'
p237
sa(dp238
g12
I13812
sg13
S'List_of_ICD-9_codes'
p239
sasg12
I14316
sg13
S'ICD-10'
p240
sa(dp241
g1
(lp242
(dp243
g12
I13776
sg13
S'Science_(journal)'
p244
sa(dp245
g12
I14102
sg13
S'Georges_Cuvier'
p246
sasg12
I14323
sg13
S'Charles_Darwin'
p247
sa(dp248
g1
(lp249
(dp250
g12
I13816
sg13
S'Meiosis'
p251
sa(dp252
g12
I13830
sg13
S'Fungus'
p253
sasg12
I14341
sg13
S'Bacteria'
p254
sasg12
I14482
sg13
S'PubMed_Central'
p255
sa(dp256
g1
(lp257
(dp258
g1
(lp259
(dp260
g12
I13762
sg13
S'Microsporidia'
p261
sa(dp262
g12
I14083
sg13
S'Deuterostome'
p263
sasg12
I14314
sg13
S'Kingdom_(biology)'
p264
sa(dp265
g12
I13792
sg13
S'Plant'
p266
sa(dp267
g1
(lp268
(dp269
g12
I13817
sg13
S'Lepidoptera'
p270
sa(dp271
g12
I14056
sg13
S'Osteichthyes'
p272
sa(dp273
g12
I14194
sg13
S'Mammal'
p274
sasg12
I14342
sg13
S'Insect'
p275
sa(dp276
g1
(lp277
(dp278
g12
I13826
sg13
S'Clade'
p279
sa(dp280
g12
I13844
sg13
S'Eudicots'
p281
sa(dp282
g12
I13893
sg13
S'Genus'
p283
sasg12
I14348
sg13
S'Species'
p284
sa(dp285
g1
(lp286
(dp287
g12
I13890
sg13
S'Fossil'
p288
sa(dp289
g12
I13896
sg13
S'Angiosperms'
p290
sa(dp291
g12
I14176
sg13
S'Hardiness_zone'
p292
sa(dp293
g12
I14209
sg13
S'Carnivore'
p294
sasg12
I14377
sg13
S'Predation'
p295
sa(dp296
g12
I14063
sg13
S'Megaannum'
p297
sasg12
I14483
sg13
S'Biological_classification'
p298
sasg12
I14526
sg13
S'PubMed_Identifier'
p299
sasg12
I14537
sg13
S'PubMed'
p300
sa(dp301
g1
(lp302
(dp303
g1
(lp304
(dp305
g1
(lp306
(dp307
g12
I13677
sg13
S'Record_label'
p308
sa(dp309
g12
I13693
sg13
S'Rolling_Stone'
p310
sa(dp311
g12
I13760
sg13
S'AllMusic'
p312
sasg12
I14249
sg13
S'Rock_music'
p313
sa(dp314
g1
(lp315
(dp316
g12
I13794
sg13
S'The_Daily_Telegraph'
p317
sa(dp318
g12
I13898
sg13
S'Broadcasting_Entertainment_Cinematograph_and_Theatre_Union'
p319
sa(dp320
g12
I13938
sg13
S'Broadsheet'
p321
sa(dp322
g12
I14130
sg13
S'Fleet_Street'
p323
sa(dp324
g12
I14154
sg13
S'List_of_magazines_by_circulation'
p325
sa(dp326
g12
I14166
sg13
S'EMI_Music_Publishing'
p327
sasg12
I14330
sg13
S'Department_for_Culture_Media_and_Sport'
p328
sa(dp329
g1
(lp330
(dp331
g1
(lp332
(dp333
g12
I13819
sg13
S'Pitch_(music)'
p334
sa(dp335
g12
I13822
sg13
S'Music_of_Russia'
p336
sasg12
I14343
sg13
S'Musical_instrument'
p337
sa(dp338
g1
(lp339
(dp340
g12
I13833
sg13
S'Canadian_Hot_100'
p341
sa(dp342
g12
I14098
sg13
S'Latin_American_music'
p343
sasg12
I14351
sg13
S'Billboard_charts'
p344
sasg12
I14493
sg13
S'Classical_music'
p345
sasg12
I14510
sg13
S'Billboard_(magazine)'
p346
sa(dp347
g1
(lp348
(dp349
g1
(lp350
(dp351
g12
I13716
sg13
S'Miami'
p352
sa(dp353
g12
I13856
sg13
S'Oakland_California'
p354
sasg12
I14283
sg13
S'Los_Angeles'
p355
sa(dp356
g1
(lp357
(dp358
g12
I13814
sg13
S'Independent_station_(North_America)'
p359
sa(dp360
g12
I13873
sg13
S'Telemundo'
p361
sa(dp362
g12
I13937
sg13
S'Midtown_Manhattan'
p363
sasg12
I14339
sg13
S'CBS'
p364
sa(dp365
g1
(lp366
(dp367
g12
I13823
sg13
S'United_States_presidential_election_2012'
p368
sa(dp369
g12
I13958
sg13
S'United_States_Department_of_Veterans_Affairs'
p370
sa(dp371
g12
I14058
sg13
S'Energy_Information_Administration'
p372
sa(dp373
g12
I14153
sg13
S'National_Park_Service'
p374
sa(dp375
g12
I14226
sg13
S'National_Oceanic_and_Atmospheric_Administration'
p376
sasg12
I14345
sg13
S'Federal_Register'
p377
sa(dp378
g1
(lp379
(dp380
g12
I13864
sg13
S'Ann_Arbor_Michigan'
p381
sa(dp382
g12
I14081
sg13
S'San_Juan_Puerto_Rico'
p383
sa(dp384
g12
I14162
sg13
S'Sierra_Nevada_(U.S.)'
p385
sasg12
I14367
sg13
S'Lake_Michigan'
p386
sa(dp387
g1
(lp388
(dp389
g12
I13879
sg13
S'Newport_Rhode_Island'
p390
sa(dp391
g12
I14054
sg13
S'Alaska'
p392
sa(dp393
g12
I14183
sg13
S'United_States_Court_of_Appeals_for_the_Ninth_Circuit'
p394
sasg12
I14372
sg13
S'Hawaii'
p395
sa(dp396
g1
(lp397
(dp398
g12
I13942
sg13
S'Federated_States_of_Micronesia'
p399
sa(dp400
g12
I13989
sg13
S'Guam'
p401
sa(dp402
g12
I14061
sg13
S'Midway_Atoll'
p403
sa(dp404
g12
I14182
sg13
S'ITunes_Store'
p405
sa(dp406
g12
I14221
sg13
S'Puerto_Rico'
p407
sa(dp408
g12
I14231
sg13
S'United_States_Minor_Outlying_Islands'
p409
sasg12
I14394
sg13
S'PlayStation_Network'
p410
sasg12
I14467
sg13
S'Portland_Oregon'
p411
sa(dp412
g1
(lp413
(dp414
g1
(lp415
(dp416
g1
(lp417
(dp418
g12
I13681
sg13
S'The_Hollywood_Reporter'
p419
sa(dp420
g12
I13818
sg13
S'Film'
p421
sasg12
I14253
sg13
S'Academy_Awards'
p422
sa(dp423
g1
(lp424
(dp425
g12
I13683
sg13
S'The_Boston_Globe'
p426
sa(dp427
g12
I13748
sg13
S'Associated_Press'
p428
sa(dp429
g12
I14017
sg13
S'Time_(magazine)'
p430
sasg12
I14255
sg13
S'The_Washington_Post'
p431
sa(dp432
g1
(lp433
(dp434
g12
I13753
sg13
S'Chief_executive_officer'
p435
sa(dp436
g12
I13853
sg13
S'Fortune_(magazine)'
p437
sasg12
I14308
sg13
S'Net_income'
p438
sasg12
I14442
sg13
S'Subsidiary'
p439
sa(dp440
g1
(lp441
(dp442
g1
(lp443
(dp444
g12
I13738
sg13
S'Organization'
p445
sa(dp446
g12
I13810
sg13
S'Trade'
p447
sa(dp448
g12
I13831
sg13
S'Mercantilism'
p449
sasg12
I14297
sg13
S'The_Concise_Encyclopedia_of_Economics'
p450
sa(dp451
g1
(lp452
(dp453
g12
I13770
sg13
S'Econometrics'
p454
sa(dp455
g12
I13980
sg13
S'Employment'
p456
sa(dp457
g12
I14105
sg13
S'Hospital'
p458
sasg12
I14318
sg13
S'Profession'
p459
sa(dp460
g1
(lp461
(dp462
g12
I13815
sg13
S'Freedom_of_speech'
p463
sa(dp464
g12
I13932
sg13
S'The_Australian'
p465
sa(dp466
g12
I13992
sg13
S'Graffiti'
p467
sa(dp468
g12
I14082
sg13
S'Al-Qaeda'
p469
sa(dp470
g12
I14139
sg13
S'Demonstration_(people)'
p471
sa(dp472
g12
I14228
sg13
S'Privacy'
p473
sasg12
I14340
sg13
S'Islamic_State_of_Iraq_and_the_Levant'
p474
sa(dp475
g12
I13909
sg13
S'Newspaper'
p476
sa(dp477
g1
(lp478
(dp479
g12
I13917
sg13
S'Earnings_before_interest_taxes_depreciation_and_amortization'
p480
sa(dp481
g12
I14072
sg13
S'Corporate_governance'
p482
sasg12
I14386
sg13
S'Accounting'
p483
sa(dp484
g1
(lp485
(dp486
g12
I14215
sg13
S'Exclusive_economic_zone'
p487
sa(dp488
g12
I14245
sg13
S'List_of_sovereign_states'
p489
sasg12
I14432
sg13
S'Sovereign_state'
p490
sasg12
I14475
sg13
S'Library_of_Economics_and_Liberty'
p491
sasg12
I14531
sg13
S'The_New_York_Times'
p492
sasg12
I14538
sg13
S'Washington_D.C.'
p493
sa(dp494
g1
(lp495
(dp496
g1
(lp497
(dp498
g1
(lp499
(dp500
g1
(lp501
(dp502
g12
I13678
sg13
S'Abkhazia'
p503
sa(dp504
g12
I14022
sg13
S'Kolkata'
p505
sa(dp506
g12
I14023
sg13
S'Guangzhou'
p507
sa(dp508
g12
I14156
sg13
S'Tehran'
p509
sa(dp510
g12
I14171
sg13
S'Osaka'
p511
sa(dp512
g12
I14202
sg13
S'Cairo'
p513
sasg12
I14250
sg13
S'Tokyo'
p514
sa(dp515
g12
I13982
sg13
S'Consumer_price_index'
p516
sasg12
I14439
sg13
S'Beijing'
p517
sa(dp518
g1
(lp519
(dp520
g1
(lp521
(dp522
g12
I13680
sg13
S'Japanese_name'
p523
sa(dp524
g12
I13944
sg13
S'Submarine'
p525
sa(dp526
g12
I14236
sg13
S'German_reunification'
p527
sasg12
I14252
sg13
S'Navy'
p528
sa(dp529
g1
(lp530
(dp531
g12
I13711
sg13
S'Hokkaido'
p532
sa(dp533
g12
I13806
sg13
S'Espionage'
p534
sa(dp535
g12
I13858
sg13
S'Free-to-air'
p536
sa(dp537
g12
I13971
sg13
S'Aspect_ratio_(image)'
p538
sa(dp539
g12
I14159
sg13
S'Prefectures_of_Japan'
p540
sasg12
I14280
sg13
S'High-definition_television'
p541
sa(dp542
g1
(lp543
(dp544
g12
I13811
sg13
S'Politics_of_Germany'
p545
sa(dp546
g12
I13857
sg13
S'List_of_districts_of_the_Czech_Republic'
p547
sa(dp548
g12
I14021
sg13
S'Bremen_(state)'
p549
sa(dp550
g12
I14095
sg13
S'Counties_of_Sweden'
p551
sasg12
I14338
sg13
S'Municipalities_of_Slovenia'
p552
sa(dp553
g1
(lp554
(dp555
g12
I14064
sg13
S'History_of_England'
p556
sa(dp557
g12
I14109
sg13
S'Irish_people'
p558
sa(dp559
g12
I14114
sg13
S'Ireland'
p560
sa(dp561
g12
I14188
sg13
S'London'
p562
sasg12
I14415
sg13
S'British_Isles'
p563
sasg12
I14441
sg13
S'States_of_Germany'
p564
sa(dp565
g1
(lp566
(dp567
g12
I13700
sg13
S'Toronto'
p568
sa(dp569
g1
(lp570
(dp571
g12
I13733
sg13
S'Politics_of_Canada'
p572
sa(dp573
g12
I13993
sg13
S'Great_Lakes'
p574
sa(dp575
g12
I13995
sg13
S'British_Columbia'
p576
sa(dp577
g12
I14009
sg13
S'Government_of_Canada'
p578
sa(dp579
g12
I14145
sg13
S'Aboriginal_peoples_in_Canada'
p580
sa(dp581
g12
I14247
sg13
S'__PRUNEME__'
p582
sasg12
I14293
sg13
S'Ontario'
p583
sa(dp584
g1
(lp585
(dp586
g12
I13821
sg13
S'Parliament_of_Australia'
p587
sa(dp588
g12
I13947
sg13
S'Melbourne'
p589
sa(dp590
g12
I14151
sg13
S'Queensland'
p591
sasg12
I14344
sg13
S'Australian_Capital_Territory'
p592
sa(dp593
g1
(lp594
(dp595
g12
I13880
sg13
S'Geodetic_system'
p596
sa(dp597
g12
I13964
sg13
S'Elevation'
p598
sa(dp599
g12
I14116
sg13
S'Davis_Cup'
p600
sasg12
I14373
sg13
S'Global_Positioning_System'
p601
sasg12
I14457
sg13
S'Geodetic_datum'
p602
sa(dp603
g1
(lp604
(dp605
g1
(lp606
(dp607
g12
I13778
sg13
S'The_Holocaust'
p608
sa(dp609
g12
I13946
sg13
S'Nazi_Germany'
p610
sa(dp611
g12
I13987
sg13
S'G8'
p612
sa(dp613
g12
I14006
sg13
S'Socialist_Federal_Republic_of_Yugoslavia'
p614
sa(dp615
g12
I14035
sg13
S'Le_Monde'
p616
sa(dp617
g12
I14108
sg13
S'Italian_Armed_Forces'
p618
sa(dp619
g12
I14122
sg13
S'2003_invasion_of_Iraq'
p620
sa(dp621
g12
I14190
sg13
S'League_of_Nations'
p622
sasg12
I14325
sg13
S'European_Union'
p623
sa(dp624
g1
(lp625
(dp626
g12
I13897
sg13
S'Bolsheviks'
p627
sa(dp628
g12
I13916
sg13
S'Battle_of_France'
p629
sa(dp630
g12
I13973
sg13
S'Empire_of_Japan'
p631
sa(dp632
g12
I13986
sg13
S'Artillery'
p633
sa(dp634
g12
I14164
sg13
S'KGB'
p635
sa(dp636
g12
I14172
sg13
S'Chinese_Civil_War'
p637
sasg12
I14379
sg13
S'Deng_Xiaoping'
p638
sasg12
I14487
sg13
S'World_War_I'
p639
sasg12
I14511
sg13
S'Soviet_Union'
p640
sa(dp641
g1
(lp642
(dp643
g1
(lp644
(dp645
g1
(lp646
(dp647
g12
I13690
sg13
S'Air_Navigation_and_Transport_Act'
p648
sa(dp649
g12
I13745
sg13
S'Ford_Motor_Company'
p650
sa(dp651
g12
I13782
sg13
S'International_Space_Station'
p652
sa(dp653
g12
I13884
sg13
S'List_of_aircraft_accidents_and_incidents_resulting_in_at_least_50_fatalities'
p654
sa(dp655
g12
I14015
sg13
S'White'
p656
sa(dp657
g12
I14128
sg13
S'Airliner'
p658
sasg12
I14262
sg13
S'Aviation'
p659
sa(dp660
g1
(lp661
(dp662
g12
I13699
sg13
S'Marseille'
p663
sa(dp664
g12
I13789
sg13
S'Helsinki'
p665
sasg12
I14270
sg13
S'UTC+2'
p666
sa(dp667
g12
I13732
sg13
S'Frankfurt'
p668
sa(dp669
g12
I13808
sg13
S'Macedonia_naming_dispute'
p670
sa(dp671
g1
(lp672
(dp673
g12
I13852
sg13
S'Lord_Howe_Island'
p674
sa(dp675
g12
I13854
sg13
S'Madeira'
p676
sasg12
I14362
sg13
S'New_Caledonia'
p677
sa(dp678
g1
(lp679
(dp680
g12
I13930
sg13
S'Wroc\xc5\x82aw'
p681
sa(dp682
g12
I14001
sg13
S'Athens'
p683
sa(dp684
g12
I14125
sg13
S'Saint_Petersburg'
p685
sasg12
I14391
sg13
S'Krak\xc3\xb3w'
p686
sasg12
I14450
sg13
S'Paris'
p687
sa(dp688
g1
(lp689
(dp690
g1
(lp691
(dp692
g12
I13704
sg13
S'Russian_Soviet_Federative_Socialist_Republic'
p693
sa(dp694
g12
I13798
sg13
S'Polish\xe2\x80\x93Lithuanian_Commonwealth'
p695
sa(dp696
g12
I14067
sg13
S'Tatars'
p697
sa(dp698
g12
I14096
sg13
S'Romani_people'
p699
sa(dp700
g12
I14133
sg13
S'Slavs'
p701
sa(dp702
g12
I14174
sg13
S'Latin_Empire'
p703
sasg12
I14275
sg13
S'Russian_Empire'
p704
sa(dp705
g1
(lp706
(dp707
g12
I13722
sg13
S'Monarchy'
p708
sa(dp709
g12
I13723
sg13
S'British_Empire'
p710
sa(dp711
g12
I13952
sg13
S'House_of_Habsburg'
p712
sasg12
I14286
sg13
S'Napoleon'
p713
sa(dp714
g1
(lp715
(dp716
g12
I13746
sg13
S'Assyria'
p717
sa(dp718
g12
I13772
sg13
S'Phoenicia'
p719
sa(dp720
g12
I14118
sg13
S'Yuan_dynasty'
p721
sa(dp722
g12
I14142
sg13
S'Ancient_Egypt'
p723
sasg12
I14303
sg13
S'Ottoman_Empire'
p724
sa(dp725
g1
(lp726
(dp727
g12
I13712
sg13
S'Republic_of_Venice'
p728
sa(dp729
g12
I13755
sg13
S'Francoist_Spain'
p730
sa(dp731
g12
I13793
sg13
S'Italian_unification'
p732
sa(dp733
g12
I13805
sg13
S'Personal_name'
p734
sa(dp735
g12
I13895
sg13
S'French_First_Republic'
p736
sa(dp737
g12
I14033
sg13
S'Valais'
p738
sa(dp739
g12
I14163
sg13
S'Danes'
p740
sa(dp741
g12
I14165
sg13
S'Coloured'
p742
sasg12
I14310
sg13
S'French_Revolution'
p743
sa(dp744
g1
(lp745
(dp746
g12
I13765
sg13
S'Fall_of_Constantinople'
p747
sa(dp748
g12
I13766
sg13
S'Hesiod'
p749
sa(dp750
g12
I13832
sg13
S'Julius_Caesar'
p751
sa(dp752
g12
I13888
sg13
S'Sparta'
p753
sa(dp754
g12
I14036
sg13
S'Augustus'
p755
sa(dp756
g12
I14065
sg13
S'Ancient_Greece'
p757
sa(dp758
g12
I14071
sg13
S'Marcus_Aurelius'
p759
sasg12
I14315
sg13
S'NUTS_of_Turkey'
p760
sa(dp761
g1
(lp762
(dp763
g12
I13774
sg13
S'Vikings'
p764
sa(dp765
g12
I13949
sg13
S'Florence'
p766
sa(dp767
g12
I14041
sg13
S'Andalusia'
p768
sasg12
I14321
sg13
S'Franks'
p769
sasg12
I14460
sg13
S'Byzantine_Empire'
p770
sasg12
I14524
sg13
S'Roman_Empire'
p771
sa(dp772
g1
(lp773
(dp774
g1
(lp775
(dp776
g1
(lp777
(dp778
g12
I13754
sg13
S'Proportional_representation'
p779
sa(dp780
g12
I13761
sg13
S'Unicameralism'
p781
sa(dp782
g12
I13868
sg13
S'Presidential_system'
p783
sa(dp784
g12
I13936
sg13
S'Election'
p785
sa(dp786
g12
I13951
sg13
S'Outline_of_political_science'
p787
sa(dp788
g12
I13961
sg13
S'Statute_of_Westminster_1931'
p789
sa(dp790
g12
I14002
sg13
S'Jersey'
p791
sa(dp792
g12
I14007
sg13
S'British_Overseas_Territories'
p793
sa(dp794
g12
I14170
sg13
S'Amnesty_International'
p795
sa(dp796
g12
I14177
sg13
S'UNESCO'
p797
sa(dp798
g12
I14225
sg13
S'Capital_(political)'
p799
sasg12
I14309
sg13
S'Bicameralism'
p800
sa(dp801
g1
(lp802
(dp803
g12
I13759
sg13
S'Faroe_Islands'
p804
sa(dp805
g12
I13803
sg13
S'UK'
p806
sa(dp807
g12
I14207
sg13
S'Sailing'
p808
sasg12
I14313
sg13
S'Australia'
p809
sa(dp810
g1
(lp811
(dp812
g12
I13839
sg13
S'International_Monetary_Fund'
p813
sa(dp814
g12
I13876
sg13
S'European_integration'
p815
sa(dp816
g12
I13905
sg13
S'International_Labour_Organization'
p817
sa(dp818
g12
I13979
sg13
S'Australian_English'
p819
sa(dp820
g12
I14012
sg13
S'Organisation_for_Economic_Co-operation_and_Development'
p821
sa(dp822
g12
I14026
sg13
S'Gross_domestic_product'
p823
sa(dp824
g12
I14111
sg13
S'Commonwealth_of_Nations'
p825
sasg12
I14355
sg13
S'United_Nations'
p826
sasg12
I14481
sg13
S'Canada'
p827
sa(dp828
g1
(lp829
(dp830
g12
I13850
sg13
S'Christmas_Island'
p831
sa(dp832
g12
I13994
sg13
S'Democratic_Republic_of_the_Congo'
p833
sasg12
I14361
sg13
S'Papua_New_Guinea'
p834
sasg12
I14532
sg13
S'New_Zealand'
p835
sa(dp836
g1
(lp837
(dp838
g1
(lp839
(dp840
g12
I13825
sg13
S'Finland'
p841
sa(dp842
g12
I13976
sg13
S'Switzerland'
p843
sa(dp844
g12
I14060
sg13
S'Japan'
p845
sasg12
I14347
sg13
S'Taiwan'
p846
sa(dp847
g1
(lp848
(dp849
g12
I13882
sg13
S'Armenia'
p850
sa(dp851
g12
I13910
sg13
S'Turkey'
p852
sa(dp853
g12
I14025
sg13
S'Haiti'
p854
sa(dp855
g12
I14097
sg13
S'Burma'
p856
sa(dp857
g12
I14143
sg13
S'Mexico_City'
p858
sa(dp859
g12
I14179
sg13
S'Kosovo'
p860
sa(dp861
g12
I14184
sg13
S'Algeria'
p862
sa(dp863
g12
I14201
sg13
S'Bahrain'
p864
sa(dp865
g12
I14203
sg13
S'Argentina'
p866
sasg12
I14374
sg13
S'Mexico'
p867
sa(dp868
g1
(lp869
(dp870
g12
I13940
sg13
S'Country'
p871
sa(dp872
g12
I13963
sg13
S'Oceania'
p873
sa(dp874
g12
I13997
sg13
S'Caspian_Sea'
p875
sa(dp876
g12
I14068
sg13
S'South_America'
p877
sa(dp878
g12
I14093
sg13
S'North_Africa'
p879
sa(dp880
g12
I14103
sg13
S'Pacific_Ocean'
p881
sa(dp882
g12
I14134
sg13
S'Provinces_of_the_Philippines'
p883
sa(dp884
g12
I14150
sg13
S'Northern_Europe'
p885
sasg12
I14393
sg13
S'Europe'
p886
sasg12
I14495
sg13
S'China'
p887
sasg12
I14539
sg13
S'United_Kingdom'
p888
sa(dp889
g1
(lp890
(dp891
g1
(lp892
(dp893
g1
(lp894
(dp895
g1
(lp896
(dp897
g12
I13679
sg13
S'House_of_Commons_of_the_United_Kingdom'
p898
sa(dp899
g12
I13707
sg13
S'George_V'
p900
sa(dp901
g12
I13715
sg13
S'Henry_VII_of_England'
p902
sa(dp903
g12
I13939
sg13
S'Supreme_Court_of_the_United_Kingdom'
p904
sa(dp905
g12
I14042
sg13
S'Labour_Party_(UK)'
p906
sasg12
I14251
sg13
S'Elizabeth_II'
p907
sa(dp908
g1
(lp909
(dp910
g12
I13744
sg13
S'Royal_Botanic_Gardens_Kew'
p911
sa(dp912
g12
I13862
sg13
S'Crown_dependencies'
p913
sa(dp914
g12
I13906
sg13
S'Office_for_National_Statistics'
p915
sa(dp916
g12
I13921
sg13
S'London_Heathrow_Airport'
p917
sa(dp918
g12
I14003
sg13
S'Department_for_Environment_Food_and_Rural_Affairs'
p919
sa(dp920
g12
I14224
sg13
S'Local_Government_Act_1972'
p921
sasg12
I14302
sg13
S'Bank_of_England'
p922
sa(dp923
g1
(lp924
(dp925
g12
I13780
sg13
S'Bath_Somerset'
p926
sa(dp927
g12
I13950
sg13
S'Leicester'
p928
sa(dp929
g12
I14078
sg13
S'Hampshire'
p930
sa(dp931
g12
I14080
sg13
S'Manchester'
p932
sa(dp933
g12
I14115
sg13
S'Cornwall'
p934
sa(dp935
g12
I14213
sg13
S'Northern_Ireland'
p936
sasg12
I14326
sg13
S'England'
p937
sa(dp938
g1
(lp939
(dp940
g12
I13804
sg13
S'Kingdom_of_England'
p941
sa(dp942
g12
I13892
sg13
S'Orders_decorations_and_medals_of_the_United_Kingdom'
p943
sa(dp944
g12
I13948
sg13
S'Royal_Canadian_Air_Force'
p945
sa(dp946
g12
I14121
sg13
S'Oireachtas'
p947
sa(dp948
g12
I14135
sg13
S'United_Kingdom_of_Great_Britain_and_Ireland'
p949
sa(dp950
g12
I14146
sg13
S'Church_of_England'
p951
sa(dp952
g12
I14229
sg13
S'British_Army'
p953
sa(dp954
g12
I14237
sg13
S'Winston_Churchill'
p955
sasg12
I14335
sg13
S'Acts_of_Union_1707'
p956
sasg12
I14440
sg13
S'Scotland'
p957
sa(dp958
g1
(lp959
(dp960
g1
(lp961
(dp962
g12
I13705
sg13
S'T._S._Eliot'
p963
sa(dp964
g12
I13730
sg13
S'Genre'
p965
sasg12
I14276
sg13
S'William_Shakespeare'
p966
sa(dp967
g1
(lp968
(dp969
g12
I13757
sg13
S'Realism_(arts)'
p970
sa(dp971
g12
I13791
sg13
S'Printmaking'
p972
sa(dp973
g12
I13813
sg13
S'Wolfgang_Amadeus_Mozart'
p974
sa(dp975
g12
I13846
sg13
S'Art_Deco'
p976
sasg12
I14311
sg13
S'Romanticism'
p977
sa(dp978
g1
(lp979
(dp980
g12
I14059
sg13
S'Project_Gutenberg'
p981
sa(dp982
g12
I14126
sg13
S'Library_of_Congress_Control_Number'
p983
sasg12
I14413
sg13
S'National_Library_of_the_Czech_Republic'
p984
sasg12
I14461
sg13
S'Integrated_Authority_File'
p985
sasg12
I14512
sg13
S'Syst\xc3\xa8me_universitaire_de_documentation'
p986
sa(dp987
g1
(lp988
(dp989
g1
(lp990
(dp991
g1
(lp992
(dp993
g12
I13682
sg13
S'Mantra'
p994
sa(dp995
g12
I14069
sg13
S'Shaivism'
p996
sa(dp997
g12
I14073
sg13
S'Vedanta'
p998
sasg12
I14254
sg13
S'Satya'
p999
sa(dp1000
g1
(lp1001
(dp1002
g12
I13855
sg13
S'Government_of_India'
p1003
sa(dp1004
g12
I13988
sg13
S'Portuguese_India'
p1005
sa(dp1006
g12
I14014
sg13
S'Indus_River'
p1007
sasg12
I14363
sg13
S'British_Raj'
p1008
sa(dp1009
g12
I14086
sg13
S'Uttar_Pradesh'
p1010
sasg12
I14443
sg13
S'Buddhism'
p1011
sa(dp1012
g1
(lp1013
(dp1014
g1
(lp1015
(dp1016
g12
I13698
sg13
S'Trinity'
p1017
sa(dp1018
g12
I13718
sg13
S'Cardinal_(Catholicism)'
p1019
sa(dp1020
g12
I13725
sg13
S'Paul_the_Apostle'
p1021
sa(dp1022
g12
I13908
sg13
S'Patriarch'
p1023
sasg12
I14269
sg13
S'Jesus'
p1024
sa(dp1025
g1
(lp1026
(dp1027
g12
I13734
sg13
S'Eastern_Christianity'
p1028
sa(dp1029
g12
I13786
sg13
S'Methodism'
p1030
sa(dp1031
g12
I14057
sg13
S'Pope_Benedict_XVI'
p1032
sa(dp1033
g12
I14175
sg13
S'Roman_Catholic_Church'
p1034
sasg12
I14294
sg13
S'Protestantism'
p1035
sasg12
I14456
sg13
S'Eastern_Orthodox_Church'
p1036
sa(dp1037
g1
(lp1038
(dp1039
g1
(lp1040
(dp1041
g12
I13720
sg13
S'Augustine_of_Hippo'
p1042
sa(dp1043
g12
I13779
sg13
S'Mass_(liturgy)'
p1044
sasg12
I14285
sg13
S'Martin_Luther'
p1045
sa(dp1046
g1
(lp1047
(dp1048
g12
I13768
sg13
S'Monasticism'
p1049
sa(dp1050
g12
I13903
sg13
S'Polytheism'
p1051
sasg12
I14317
sg13
S'Prayer'
p1052
sa(dp1053
g1
(lp1054
(dp1055
g12
I13860
sg13
S'Jerusalem'
p1056
sa(dp1057
g12
I14018
sg13
S'Moses'
p1058
sa(dp1059
g12
I14032
sg13
S'Christianity'
p1060
sa(dp1061
g12
I14094
sg13
S'Torah'
p1062
sasg12
I14365
sg13
S'Jews'
p1063
sa(dp1064
g1
(lp1065
(dp1066
g12
I13920
sg13
S'Secularism'
p1067
sa(dp1068
g12
I14020
sg13
S'Germanic_paganism'
p1069
sa(dp1070
g12
I14208
sg13
S'Zen'
p1071
sasg12
I14387
sg13
S'Wicca'
p1072
sa(dp1073
g12
I14076
sg13
S'Quran'
p1074
sasg12
I14469
sg13
S'Islam'
p1075
sasg12
I14514
sg13
S'Catholic_Church'
p1076
sa(dp1077
g1
(lp1078
(dp1079
g1
(lp1080
(dp1081
g1
(lp1082
(dp1083
g12
I13685
sg13
S'Karl_Marx'
p1084
sa(dp1085
g12
I13918
sg13
S'John_Rawls'
p1086
sa(dp1087
g12
I13925
sg13
S'Plato'
p1088
sasg12
I14257
sg13
S'Aristotle'
p1089
sa(dp1090
g12
I13726
sg13
S'Metaphysics'
p1091
sasg12
I14445
sg13
S'Philosophy'
p1092
sa(dp1093
g1
(lp1094
(dp1095
g1
(lp1096
(dp1097
g12
I13689
sg13
S'Biome'
p1098
sa(dp1099
g12
I13965
sg13
S'Factory'
p1100
sa(dp1101
g12
I14038
sg13
S'Industrial_Revolution'
p1102
sa(dp1103
g12
I14070
sg13
S'Urban_planning'
p1104
sa(dp1105
g12
I14138
sg13
S'Weather_forecasting'
p1106
sasg12
I14261
sg13
S'Golf_course'
p1107
sa(dp1108
g1
(lp1109
(dp1110
g12
I13912
sg13
S'Diesel_fuel'
p1111
sa(dp1112
g12
I13967
sg13
S'Diesel_engine'
p1113
sasg12
I14384
sg13
S'Automobile'
p1114
sasg12
I14449
sg13
S'Petroleum'
p1115
sa(dp1116
g1
(lp1117
(dp1118
g1
(lp1119
(dp1120
g12
I13708
sg13
S'Sidereal_time'
p1121
sa(dp1122
g12
I13820
sg13
S'Duration_(philosophy)'
p1123
sa(dp1124
g12
I14085
sg13
S'Clock'
p1125
sa(dp1126
g12
I14112
sg13
S'Maya_calendar'
p1127
sa(dp1128
g12
I14210
sg13
S'Time_standard'
p1129
sasg12
I14278
sg13
S'Calendar'
p1130
sa(dp1131
g1
(lp1132
(dp1133
g12
I13859
sg13
S'Philosophy_of_space_and_time'
p1134
sa(dp1135
g12
I14077
sg13
S'Julian_calendar'
p1136
sasg12
I14364
sg13
S'Time'
p1137
sa(dp1138
g12
I13957
sg13
S'Geochronology'
p1139
sasg12
I14463
sg13
S'Geologic_time_scale'
p1140
sasg12
I14516
sg13
S'Car'
p1141
sa(dp1142
g1
(lp1143
(dp1144
g1
(lp1145
(dp1146
g12
I13696
sg13
S'University_of_Cambridge'
p1147
sa(dp1148
g1
(lp1149
(dp1150
g12
I13841
sg13
S'Homeschooling'
p1151
sa(dp1152
g12
I13842
sg13
S'High_school'
p1153
sasg12
I14357
sg13
S'Tertiary_education'
p1154
sa(dp1155
g1
(lp1156
(dp1157
g12
I14027
sg13
S"Bachelor's_degree"
p1158
sa(dp1159
g12
I14029
sg13
S'University_College_London'
p1160
sa(dp1161
g12
I14048
sg13
S'Scholarship'
p1162
sa(dp1163
g12
I14099
sg13
S'University_of_Sydney'
p1164
sasg12
I14407
sg13
S'Doctorate'
p1165
sasg12
I14455
sg13
S'University'
p1166
sa(dp1167
g1
(lp1168
(dp1169
g12
I13706
sg13
S'Property_law'
p1170
sa(dp1171
g12
I13763
sg13
S'Jurisdiction'
p1172
sa(dp1173
g12
I13799
sg13
S'Court'
p1174
sa(dp1175
g12
I13907
sg13
S'Sharia'
p1176
sa(dp1177
g12
I14158
sg13
S'Civil_society'
p1178
sasg12
I14277
sg13
S'Common_law'
p1179
sa(dp1180
g1
(lp1181
(dp1182
g12
I13713
sg13
S'Socialism'
p1183
sa(dp1184
g12
I13752
sg13
S'Cultural_assimilation'
p1185
sa(dp1186
g12
I13795
sg13
S'Family'
p1187
sa(dp1188
g12
I13919
sg13
S'Torture'
p1189
sa(dp1190
g12
I13975
sg13
S'Politics'
p1191
sa(dp1192
g12
I14092
sg13
S'Sexual_orientation'
p1193
sasg12
I14281
sg13
S'Human_rights'
p1194
sasg12
I14522
sg13
S'Law'
p1195
sasg12
I14540
sg13
S'Authority_control'
p1196
sasg12
I14546
sg13
S'Digital_object_identifier'
p1197
sa(dp1198
g1
(lp1199
(dp1200
g1
(lp1201
(dp1202
g1
(lp1203
(dp1204
g1
(lp1205
(dp1206
g1
(lp1207
(dp1208
g12
I13684
sg13
S'History_of_the_Internet'
p1209
sa(dp1210
g12
I14187
sg13
S'Communications_in_Argentina'
p1211
sa(dp1212
g12
I14205
sg13
S'Telecommunications_in_Brazil'
p1213
sasg12
I14256
sg13
S'Telecommunications_in_Iraq'
p1214
sa(dp1215
g1
(lp1216
(dp1217
g12
I13867
sg13
S'Integrated_Services_Digital_Network'
p1218
sa(dp1219
g12
I13933
sg13
S'Computer_network'
p1220
sasg12
I14369
sg13
S'Network_switch'
p1221
sa(dp1222
g12
I13999
sg13
S'Orbital_angular_momentum_multiplexing'
p1223
sasg12
I14444
sg13
S'Radio'
p1224
sa(dp1225
g1
(lp1226
(dp1227
g1
(lp1228
(dp1229
g12
I13773
sg13
S'Edwin_Howard_Armstrong'
p1230
sa(dp1231
g12
I13851
sg13
S'Telecommunications_in_China'
p1232
sa(dp1233
g12
I13872
sg13
S'Radio_wave'
p1234
sasg12
I14320
sg13
S'Microwave'
p1235
sa(dp1236
g12
I13840
sg13
S'Telecommunications_in_Georgia_(country)'
p1237
sasg12
I14484
sg13
S'History_of_radio'
p1238
sa(dp1239
g1
(lp1240
(dp1241
g1
(lp1242
(dp1243
g12
I13775
sg13
S'Deutsche_Welle'
p1244
sa(dp1245
g12
I14216
sg13
S'PAL'
p1246
sasg12
I14322
sg13
S'Realm_of_New_Zealand'
p1247
sa(dp1248
g12
I14157
sg13
S'Morse_code'
p1249
sa(dp1250
g12
I14195
sg13
S'BT_Group'
p1251
sasg12
I14485
sg13
S'Semaphore_line'
p1252
sa(dp1253
g1
(lp1254
(dp1255
g12
I13847
sg13
S'Telecommunications_in_East_Timor'
p1256
sa(dp1257
g12
I13849
sg13
S'Telecommunications_in_Switzerland'
p1258
sa(dp1259
g12
I14106
sg13
S'Telex'
p1260
sa(dp1261
g12
I14144
sg13
S'Beacon'
p1262
sasg12
I14360
sg13
S'Telecommunications_in_Egypt'
p1263
sasg12
I14515
sg13
S'Telecommunications_in_Western_Sahara'
p1264
sa(dp1265
g1
(lp1266
(dp1267
g1
(lp1268
(dp1269
g12
I13701
sg13
S'Usenet'
p1270
sa(dp1271
g12
I13709
sg13
S'Operating_system'
p1272
sa(dp1273
g12
I13728
sg13
S'Central_processing_unit'
p1274
sa(dp1275
g12
I13787
sg13
S'Compact_disc'
p1276
sa(dp1277
g12
I13974
sg13
S'Universal_Product_Code'
p1278
sa(dp1279
g12
I14028
sg13
S'OS_X'
p1280
sa(dp1281
g12
I14034
sg13
S'Software_release_life_cycle'
p1282
sa(dp1283
g12
I14062
sg13
S'Hypertext_Transfer_Protocol'
p1284
sa(dp1285
g12
I14101
sg13
S'Tagged_Image_File_Format'
p1286
sasg12
I14272
sg13
S'Microsoft_Windows'
p1287
sa(dp1288
g1
(lp1289
(dp1290
g12
I13703
sg13
S'Video_game'
p1291
sa(dp1292
g12
I13756
sg13
S'Google'
p1293
sa(dp1294
g12
I13781
sg13
S'Website'
p1295
sa(dp1296
g12
I14173
sg13
S'Nikon'
p1297
sasg12
I14274
sg13
S'Sony'
p1298
sa(dp1299
g1
(lp1300
(dp1301
g12
I13835
sg13
S'Proprietary_software'
p1302
sa(dp1303
g12
I13836
sg13
S'Open_Knowledge_Foundation'
p1304
sa(dp1305
g12
I13885
sg13
S'Programming_language'
p1306
sasg12
I14353
sg13
S'Database'
p1307
sasg12
I14458
sg13
S'Apple_Inc.'
p1308
sa(dp1309
g1
(lp1310
(dp1311
g1
(lp1312
(dp1313
g1
(lp1314
(dp1315
g12
I13727
sg13
S'Standard_Chinese'
p1316
sa(dp1317
g12
I13985
sg13
S'Phoneme'
p1318
sasg12
I14289
sg13
S'International_Phonetic_Alphabet'
p1319
sa(dp1320
g1
(lp1321
(dp1322
g12
I13771
sg13
S'Dialect'
p1323
sa(dp1324
g12
I14089
sg13
S'Creole_language'
p1325
sa(dp1326
g12
I14104
sg13
S'Second_language'
p1327
sa(dp1328
g12
I14119
sg13
S'Indo-European_languages'
p1329
sa(dp1330
g12
I14180
sg13
S'Sumerian_language'
p1331
sasg12
I14319
sg13
S'Language'
p1332
sa(dp1333
g1
(lp1334
(dp1335
g12
I13865
sg13
S'Malayalam'
p1336
sa(dp1337
g12
I13929
sg13
S'Pashto_language'
p1338
sasg12
I14368
sg13
S'Urdu'
p1339
sa(dp1340
g1
(lp1341
(dp1342
g12
I13926
sg13
S'Proper_noun'
p1343
sa(dp1344
g12
I13968
sg13
S'Lexicon'
p1345
sa(dp1346
g12
I14024
sg13
S'Adjective'
p1347
sasg12
I14389
sg13
S'Noun'
p1348
sasg12
I14471
sg13
S'Sanskrit'
p1349
sa(dp1350
g1
(lp1351
(dp1352
g1
(lp1353
(dp1354
g12
I13749
sg13
S'Russian_language'
p1355
sa(dp1356
g12
I13828
sg13
S'Italian_language'
p1357
sa(dp1358
g12
I13956
sg13
S'Hebrew_language'
p1359
sa(dp1360
g12
I14031
sg13
S'Korean_language'
p1361
sasg12
I14305
sg13
S'Arabic_language'
p1362
sa(dp1363
g1
(lp1364
(dp1365
g12
I13750
sg13
S'Scottish_Gaelic'
p1366
sa(dp1367
g12
I13924
sg13
S'Norwegian_language'
p1368
sa(dp1369
g12
I13977
sg13
S'Old_English'
p1370
sa(dp1371
g12
I14186
sg13
S'Serbian_language'
p1372
sa(dp1373
g12
I14218
sg13
S'Occitan_language'
p1374
sasg12
I14306
sg13
S'Romance_languages'
p1375
sasg12
I14479
sg13
S'French_language'
p1376
sa(dp1377
g1
(lp1378
(dp1379
g12
I13871
sg13
S'K'
p1380
sa(dp1381
g1
(lp1382
(dp1383
g12
I13913
sg13
S'Deutsches_Institut_f\xc3\xbcr_Normung'
p1384
sa(dp1385
g12
I14124
sg13
S'ISO_3166'
p1386
sa(dp1387
g12
I14132
sg13
S'ISO_3166-1_alpha-2'
p1388
sa(dp1389
g12
I14178
sg13
S'ISO_639-2'
p1390
sasg12
I14385
sg13
S'International_Bank_Account_Number'
p1391
sa(dp1392
g1
(lp1393
(dp1394
g12
I13960
sg13
S'Grapheme'
p1395
sa(dp1396
g12
I13978
sg13
S'Armenian_alphabet'
p1397
sasg12
I14400
sg13
S'Syllabary'
p1398
sa(dp1399
g1
(lp1400
(dp1401
g12
I14037
sg13
S'Latin_alphabet'
p1402
sa(dp1403
g12
I14043
sg13
S'Hyphen'
p1404
sa(dp1405
g12
I14045
sg13
S'Hexadecimal'
p1406
sasg12
I14409
sg13
S'Punctuation'
p1407
sa(dp1408
g1
(lp1409
(dp1410
g12
I14079
sg13
S'ISO_15924'
p1411
sa(dp1412
g12
I14129
sg13
S'ISO/IEC_8859-14'
p1413
sa(dp1414
g12
I14152
sg13
S'ISO_259'
p1415
sasg12
I14417
sg13
S'ISO/IEC_8859'
p1416
sasg12
I14499
sg13
S'Diacritic'
p1417
sasg12
I14527
sg13
S'Unicode'
p1418
sasg12
I14541
sg13
S'English_language'
p1419
sa(dp1420
g1
(lp1421
(dp1422
g1
(lp1423
(dp1424
g1
(lp1425
(dp1426
g1
(lp1427
(dp1428
g12
I13687
sg13
S'FTAM'
p1429
sa(dp1430
g12
I13721
sg13
S'ISO/IEC_27002'
p1431
sa(dp1432
g12
I14107
sg13
S'ISO_31'
p1433
sasg12
I14259
sg13
S'IEC_80000-13'
p1434
sa(dp1435
g1
(lp1436
(dp1437
g12
I13829
sg13
S'POSIX'
p1438
sa(dp1439
g12
I14050
sg13
S'Unified_Modeling_Language'
p1440
sasg12
I14350
sg13
S'OSI_model'
p1441
sasg12
I14447
sg13
S'International_standard'
p1442
sa(dp1443
g12
I13784
sg13
S'International_Standard_Audiovisual_Number'
p1444
sasg12
I14518
sg13
S'ISO/IEC_27000-series'
p1445
sa(dp1446
g1
(lp1447
(dp1448
g1
(lp1449
(dp1450
g1
(lp1451
(dp1452
g12
I13729
sg13
S'LibraryThing'
p1453
sa(dp1454
g12
I14091
sg13
S'Fire_OS'
p1455
sasg12
I14290
sg13
S'Amazon_Kindle'
p1456
sa(dp1457
g12
I13889
sg13
S'Amazon_Vine'
p1458
sasg12
I14472
sg13
S'Alexa_Internet'
p1459
sa(dp1460
g1
(lp1461
(dp1462
g12
I14233
sg13
S'Amazon_Standard_Identification_Number'
p1463
sa(dp1464
g12
I14246
sg13
S'__PRUNEME__'
p1465
sasg12
I14435
sg13
S'Internet_Movie_Database'
p1466
sasg12
I14528
sg13
S'Amazon.com'
p1467
sa(dp1468
g1
(lp1469
(dp1470
g1
(lp1471
(dp1472
g12
I13790
sg13
S'Sabriye_Tenberken'
p1473
sa(dp1474
g1
(lp1475
(dp1476
g12
I14230
sg13
S'Braille_e-book'
p1477
sa(dp1478
g12
I14238
sg13
S'I\xc3\xb1upiaq_Braille'
p1479
sasg12
I14434
sg13
S'International_uniformity_of_braille_alphabets'
p1480
sasg12
I14489
sg13
S'Braille'
p1481
sa(dp1482
g1
(lp1483
(dp1484
g12
I13922
sg13
S'Vascular_plants'
p1485
sa(dp1486
g12
I14039
sg13
S'Glossary_of_botanical_terms'
p1487
sasg12
I14388
sg13
S'Transpiration'
p1488
sa(dp1489
g1
(lp1490
(dp1491
g12
I13970
sg13
S'Alveolo-palatal_consonant'
p1492
sa(dp1493
g12
I14066
sg13
S'Mid_central_vowel'
p1494
sasg12
I14401
sg13
S'Segment_(linguistics)'
p1495
sasg12
I14533
sg13
S'International_Code_of_Nomenclature_for_algae_fungi_and_plants'
p1496
sasg12
I14542
sg13
S'Torx'
p1497
sasg12
I14547
sg13
S'International_Organization_for_Standardization'
p1498
sa(dp1499
g1
(lp1500
(dp1501
g1
(lp1502
(dp1503
g1
(lp1504
(dp1505
g1
(lp1506
(dp1507
g1
(lp1508
(dp1509
g12
I13688
sg13
S'Guberniya'
p1510
sa(dp1511
g12
I13719
sg13
S'Governor-General'
p1512
sa(dp1513
g12
I13878
sg13
S'Merindad'
p1514
sa(dp1515
g12
I14004
sg13
S'Overseas_region'
p1516
sa(dp1517
g12
I14185
sg13
S'Capital_city'
p1518
sasg12
I14260
sg13
S'Kaza'
p1519
sa(dp1520
g1
(lp1521
(dp1522
g12
I13697
sg13
S'Katepano'
p1523
sa(dp1524
g12
I13809
sg13
S'Exarch'
p1525
sa(dp1526
g12
I14219
sg13
S'Table_of_administrative_divisions_by_country'
p1527
sa(dp1528
g12
I14222
sg13
S'Villa'
p1529
sasg12
I14268
sg13
S'Strategos'
p1530
sa(dp1531
g12
I13861
sg13
S'Capital_region'
p1532
sasg12
I14448
sg13
S'Eyalet'
p1533
sa(dp1534
g1
(lp1535
(dp1536
g1
(lp1537
(dp1538
g12
I13714
sg13
S'Mayor'
p1539
sa(dp1540
g12
I14005
sg13
S'Desert_climate'
p1541
sa(dp1542
g12
I14075
sg13
S'Apartment'
p1543
sasg12
I14282
sg13
S'Municipal_corporation'
p1544
sa(dp1545
g12
I13953
sg13
S'Humid_subtropical_climate'
p1546
sa(dp1547
g12
I14010
sg13
S'Train_station'
p1548
sa(dp1549
g1
(lp1550
(dp1551
g12
I14090
sg13
S'South_Pole'
p1552
sa(dp1553
g12
I14181
sg13
S'Prime_Meridian'
p1554
sa(dp1555
g12
I14243
sg13
S'Geographic_coordinate_system'
p1556
sasg12
I14419
sg13
S'Prime_meridian'
p1557
sasg12
I14466
sg13
S'Northern_Hemisphere'
p1558
sasg12
I14519
sg13
S'Rail_transport'
p1559
sa(dp1560
g1
(lp1561
(dp1562
g1
(lp1563
(dp1564
g1
(lp1565
(dp1566
g12
I13737
sg13
S'National_Library_of_Norway'
p1567
sa(dp1568
g12
I13945
sg13
S'National_Library_of_Spain'
p1569
sasg12
I14296
sg13
S'National_Library_of_Ireland'
p1570
sa(dp1571
g12
I14160
sg13
S'Lower_Silesian_Voivodeship'
p1572
sasg12
I14474
sg13
S'Lesser_Poland_Voivodeship'
p1573
sa(dp1574
g1
(lp1575
(dp1576
g12
I13740
sg13
S'UTC\xe2\x88\x9209:30'
p1577
sa(dp1578
g12
I13827
sg13
S'Time_zone'
p1579
sa(dp1580
g1
(lp1581
(dp1582
g12
I14211
sg13
S'List_of_time_zone_abbreviations'
p1583
sa(dp1584
g12
I14214
sg13
S'GPS_eXchange_Format'
p1585
sa(dp1586
g12
I14223
sg13
S'Standard_time'
p1587
sasg12
I14431
sg13
S'IERS_Reference_Meridian'
p1588
sasg12
I14476
sg13
S'Coordinated_Universal_Time'
p1589
sa(dp1590
g1
(lp1591
(dp1592
g1
(lp1593
(dp1594
g12
I13751
sg13
S'National_Register_of_Historic_Places_listings_in_Minnesota'
p1595
sa(dp1596
g12
I14235
sg13
S'National_Register_of_Historic_Places_listings_in_California'
p1597
sasg12
I14307
sg13
S'Historic_districts_in_the_United_States'
p1598
sa(dp1599
g1
(lp1600
(dp1601
g12
I13900
sg13
S'Commander-in-chief'
p1602
sa(dp1603
g12
I13954
sg13
S'Military_organization'
p1604
sa(dp1605
g12
I14120
sg13
S'General_officer'
p1606
sasg12
I14380
sg13
S'Major_general'
p1607
sa(dp1608
g12
I14220
sg13
S'Property_type_(National_Register_of_Historic_Places)'
p1609
sasg12
I14480
sg13
S'National_Register_of_Historic_Places'
p1610
sa(dp1611
g1
(lp1612
(dp1613
g12
I13943
sg13
S'Eastern_Hemisphere'
p1614
sa(dp1615
g12
I14193
sg13
S'45\xc3\x9790_points'
p1616
sasg12
I14501
sg13
S'160th_meridian_east'
p1617
sasg12
I14530
sg13
S'Keyhole_Markup_Language'
p1618
sasg12
I14543
sg13
S'Administrative_division'
p1619
sa(dp1620
g1
(lp1621
(dp1622
g1
(lp1623
(dp1624
g1
(lp1625
(dp1626
g1
(lp1627
(dp1628
g12
I13691
sg13
S'Central_Intelligence_Agency'
p1629
sa(dp1630
g12
I14008
sg13
S'Cinema_of_the_United_States'
p1631
sa(dp1632
g12
I14167
sg13
S'Timeline_of_United_States_history'
p1633
sa(dp1634
g12
I14197
sg13
S'Economy_of_the_United_States'
p1635
sasg12
I14263
sg13
S'American_Civil_War'
p1636
sa(dp1637
g1
(lp1638
(dp1639
g12
I13911
sg13
S'United_States_Constitution'
p1640
sa(dp1641
g12
I14110
sg13
S'United_States_Navy'
p1642
sasg12
I14383
sg13
S'President_of_the_United_States'
p1643
sa(dp1644
g12
I13983
sg13
S'Religion_in_the_United_States'
p1645
sasg12
I14451
sg13
S'United_States_Congress'
p1646
sa(dp1647
g1
(lp1648
(dp1649
g1
(lp1650
(dp1651
g12
I13802
sg13
S'Southern_United_States'
p1652
sa(dp1653
g12
I13941
sg13
S'Military_of_the_United_States'
p1654
sa(dp1655
g12
I14000
sg13
S'German_language_in_the_United_States'
p1656
sa(dp1657
g12
I14192
sg13
S'Ohio_River'
p1658
sa(dp1659
g12
I14200
sg13
S'American_Revolutionary_War'
p1660
sasg12
I14334
sg13
S'Mississippi_River'
p1661
sa(dp1662
g12
I14046
sg13
S'Washington_(state)'
p1663
sasg12
I14491
sg13
S'Arizona'
p1664
sasg12
I14520
sg13
S'Supreme_Court_of_the_United_States'
p1665
sa(dp1666
g1
(lp1667
(dp1668
g1
(lp1669
(dp1670
g12
I13694
sg13
S'Philadelphia'
p1671
sa(dp1672
g12
I13962
sg13
S'Alexandria_Virginia'
p1673
sasg12
I14265
sg13
S'Sacramento_California'
p1674
sa(dp1675
g1
(lp1676
(dp1677
g1
(lp1678
(dp1679
g12
I13702
sg13
S'Hispanic_and_Latino_Americans'
p1680
sa(dp1681
g12
I13785
sg13
S'Native_Americans_in_the_United_States'
p1682
sasg12
I14273
sg13
S'African_American'
p1683
sa(dp1684
g1
(lp1685
(dp1686
g12
I13797
sg13
S'George_Washington'
p1687
sa(dp1688
g12
I14019
sg13
S'Herbert_Hoover'
p1689
sa(dp1690
g12
I14206
sg13
S'September_11_attacks'
p1691
sasg12
I14332
sg13
S'Abraham_Lincoln'
p1692
sa(dp1693
g1
(lp1694
(dp1695
g12
I13883
sg13
S'Census-designated_place'
p1696
sa(dp1697
g12
I13981
sg13
S'School_district'
p1698
sa(dp1699
g12
I13991
sg13
S'North_American_Central_Time_Zone'
p1700
sa(dp1701
g12
I14016
sg13
S'IPUMS'
p1702
sa(dp1703
g12
I14147
sg13
S'College_Station_Texas'
p1704
sasg12
I14375
sg13
S'United_States_Census'
p1705
sa(dp1706
g12
I13891
sg13
S'George_W._Bush'
p1707
sa(dp1708
g12
I14191
sg13
S'1850_United_States_Census'
p1709
sasg12
I14459
sg13
S'United_States_Census_Bureau'
p1710
sa(dp1711
g1
(lp1712
(dp1713
g1
(lp1714
(dp1715
g12
I13724
sg13
S'Georgetown_University'
p1716
sa(dp1717
g12
I14084
sg13
S'Pulitzer_Prize'
p1718
sasg12
I14287
sg13
S'U.S._News_&_World_Report'
p1719
sa(dp1720
g12
I13931
sg13
S'University_of_Maryland_College_Park'
p1721
sa(dp1722
g1
(lp1723
(dp1724
g12
I13955
sg13
S'University_of_California_Berkeley'
p1725
sa(dp1726
g12
I14196
sg13
S'Harvard_University'
p1727
sasg12
I14397
sg13
S'University_of_California_Los_Angeles'
p1728
sasg12
I14470
sg13
S'Stanford_University'
p1729
sa(dp1730
g1
(lp1731
(dp1732
g1
(lp1733
(dp1734
g12
I13824
sg13
S'Surfing'
p1735
sa(dp1736
g12
I13901
sg13
S'One_Day_International'
p1737
sa(dp1738
g12
I13914
sg13
S'International_Olympic_Committee'
p1739
sa(dp1740
g12
I13915
sg13
S'Ski_jumping'
p1741
sa(dp1742
g12
I13928
sg13
S'Winter_Olympic_Games'
p1743
sa(dp1744
g12
I14088
sg13
S'Batting_average'
p1745
sa(dp1746
g12
I14241
sg13
S'Central_Time_Zone'
p1747
sasg12
I14346
sg13
S'Cricket'
p1748
sa(dp1749
g1
(lp1750
(dp1751
g12
I13843
sg13
S'Rugby_football'
p1752
sa(dp1753
g12
I13875
sg13
S'Water_polo'
p1754
sa(dp1755
g12
I13877
sg13
S'Cycle_sport'
p1756
sa(dp1757
g12
I14117
sg13
S'American_football'
p1758
sasg12
I14358
sg13
S'Sport'
p1759
sa(dp1760
g1
(lp1761
(dp1762
g12
I13869
sg13
S'The_Football_Association'
p1763
sa(dp1764
g12
I13870
sg13
S'Football_pitch'
p1765
sa(dp1766
g12
I13902
sg13
S'Africa_Cup_of_Nations'
p1767
sa(dp1768
g12
I13923
sg13
S'The_Football_League'
p1769
sa(dp1770
g12
I13935
sg13
S'Asian_Football_Confederation'
p1771
sa(dp1772
g12
I14127
sg13
S'Germany_national_football_team'
p1773
sasg12
I14370
sg13
S'UEFA'
p1774
sa(dp1775
g1
(lp1776
(dp1777
g12
I14030
sg13
S'National_Football_League_draft'
p1778
sa(dp1779
g12
I14123
sg13
S'National_Basketball_Association'
p1780
sasg12
I14408
sg13
S'National_Collegiate_Athletic_Association'
p1781
sasg12
I14494
sg13
S'Olympic_Games'
p1782
sasg12
I14521
sg13
S'2010_United_States_Census'
p1783
sasg12
I14544
sg13
S'Race_and_ethnicity_in_the_United_States_Census'
p1784
sa(dp1785
g1
(lp1786
(dp1787
g1
(lp1788
(dp1789
g12
I13731
sg13
S'Federal_Reserve_System'
p1790
sa(dp1791
g1
(lp1792
(dp1793
g12
I13741
sg13
S'United_States_courts_of_appeals'
p1794
sa(dp1795
g12
I13927
sg13
S'Timeline_of_United_States_inventions_(after_1991)'
p1796
sasg12
I14477
sg13
S'United_States_federal_executive_departments'
p1797
sa(dp1798
g1
(lp1799
(dp1800
g1
(lp1801
(dp1802
g12
I13834
sg13
S'Economic_Community_of_West_African_States'
p1803
sa(dp1804
g12
I13866
sg13
S'Organisation_of_African_Unity'
p1805
sa(dp1806
g12
I14239
sg13
S'__PRUNEME__'
p1807
sa(dp1808
g12
I14242
sg13
S'900_(number)'
p1809
sasg12
I14352
sg13
S'African_Union'
p1810
sa(dp1811
g1
(lp1812
(dp1813
g12
I14234
sg13
S'U.S._Supreme_Court'
p1814
sa(dp1815
g12
I14244
sg13
S'__PRUNEME__'
p1816
sasg12
I14436
sg13
S'United_States_Capitol'
p1817
sasg12
I14496
sg13
S'Human_Resources_Science_and_Technology_Committee'
p1818
sasg12
I14529
sg13
S'Economic_Social_and_Cultural_Council'
p1819
sa(dp1820
g1
(lp1821
(dp1822
g1
(lp1823
(dp1824
g12
I13807
sg13
S'Hainan'
p1825
sa(dp1826
g12
I14137
sg13
S'Zhou_dynasty'
p1827
sasg12
I14492
sg13
S'Administrative_divisions_of_China'
p1828
sa(dp1829
g12
I13996
sg13
S'Arab_League'
p1830
sasg12
I14534
sg13
S'State_of_Palestine'
p1831
sa(dp1832
g1
(lp1833
(dp1834
g12
I14141
sg13
S'Music_of_the_United_States'
p1835
sa(dp1836
g12
I14149
sg13
S'Television_in_the_United_States'
p1837
sa(dp1838
g1
(lp1839
(dp1840
g12
I14161
sg13
S'Transcendentalism'
p1841
sa(dp1842
g12
I14199
sg13
S'__PRUNEME__'
p1843
sasg12
I14426
sg13
S'American_English'
p1844
sasg12
I14536
sg13
S'Radio_in_the_United_States'
p1845
sasg12
I14545
sg13
S'Ethnic_groups_in_Africa'
p1846
sasg12
I14548
sg13
S'Association_football'
p1847
sasg12
I14549
sg13
S'International_Standard_Book_Number'
p1848
s(dp1849
I14338
(dp1850
g1
(lp1851
(dp1852
g12
I13811
sg13
g545
sa(dp1853
g12
I13857
sg13
g547
sa(dp1854
g12
I14021
sg13
g549
sa(dp1855
g12
I14095
sg13
g551
sasg12
I14338
sg13
g552
ssI14339
(dp1856
g1
(lp1857
(dp1858
g12
I13814
sg13
g359
sa(dp1859
g12
I13873
sg13
g361
sa(dp1860
g12
I13937
sg13
g363
sasg12
I14339
sg13
g364
ssI14340
(dp1861
g1
(lp1862
(dp1863
g12
I13815
sg13
g463
sa(dp1864
g12
I13932
sg13
g465
sa(dp1865
g12
I13992
sg13
g467
sa(dp1866
g12
I14082
sg13
g469
sa(dp1867
g12
I14139
sg13
g471
sa(dp1868
g12
I14228
sg13
g473
sasg12
I14340
sg13
g474
ssI14341
(dp1869
g1
(lp1870
(dp1871
g12
I13816
sg13
g251
sa(dp1872
g12
I13830
sg13
g253
sasg12
I14341
sg13
g254
ssI14342
(dp1873
g1
(lp1874
(dp1875
g12
I13817
sg13
g270
sa(dp1876
g12
I14056
sg13
g272
sa(dp1877
g12
I14194
sg13
g274
sasg12
I14342
sg13
g275
ssI14343
(dp1878
g1
(lp1879
(dp1880
g12
I13819
sg13
g334
sa(dp1881
g12
I13822
sg13
g336
sasg12
I14343
sg13
g337
ssI14344
(dp1882
g1
(lp1883
(dp1884
g12
I13821
sg13
g587
sa(dp1885
g12
I13947
sg13
g589
sa(dp1886
g12
I14151
sg13
g591
sasg12
I14344
sg13
g592
ssI14345
(dp1887
g1
(lp1888
(dp1889
g12
I13823
sg13
g368
sa(dp1890
g12
I13958
sg13
g370
sa(dp1891
g12
I14058
sg13
g372
sa(dp1892
g12
I14153
sg13
g374
sa(dp1893
g12
I14226
sg13
g376
sasg12
I14345
sg13
g377
ssI14346
(dp1894
g1
(lp1895
(dp1896
g12
I13824
sg13
g1735
sa(dp1897
g12
I13901
sg13
g1737
sa(dp1898
g12
I13914
sg13
g1739
sa(dp1899
g12
I13915
sg13
g1741
sa(dp1900
g12
I13928
sg13
g1743
sa(dp1901
g12
I14088
sg13
g1745
sa(dp1902
g12
I14241
sg13
g1747
sasg12
I14346
sg13
g1748
ssI14347
(dp1903
g1
(lp1904
(dp1905
g12
I13825
sg13
g841
sa(dp1906
g12
I13976
sg13
g843
sa(dp1907
g12
I14060
sg13
g845
sasg12
I14347
sg13
g846
ssI14348
(dp1908
g1
(lp1909
(dp1910
g12
I13826
sg13
g279
sa(dp1911
g12
I13844
sg13
g281
sa(dp1912
g12
I13893
sg13
g283
sasg12
I14348
sg13
g284
ssI14350
(dp1913
g1
(lp1914
(dp1915
g12
I13829
sg13
g1438
sa(dp1916
g12
I14050
sg13
g1440
sasg12
I14350
sg13
g1441
ssI14351
(dp1917
g1
(lp1918
(dp1919
g12
I13833
sg13
g341
sa(dp1920
g12
I14098
sg13
g343
sasg12
I14351
sg13
g344
ssI14352
(dp1921
g1
(lp1922
(dp1923
g12
I13834
sg13
g1803
sa(dp1924
g12
I13866
sg13
g1805
sa(dp1925
g12
I14239
sg13
g1807
sa(dp1926
g12
I14242
sg13
g1809
sasg12
I14352
sg13
g1810
ssI14353
(dp1927
g1
(lp1928
(dp1929
g12
I13835
sg13
g1302
sa(dp1930
g12
I13836
sg13
g1304
sa(dp1931
g12
I13885
sg13
g1306
sasg12
I14353
sg13
g1307
ssI14354
(dp1932
g1
(lp1933
(dp1934
g12
I13838
sg13
g176
sa(dp1935
g12
I13886
sg13
g178
sasg12
I14354
sg13
g179
ssI14355
(dp1936
g1
(lp1937
(dp1938
g12
I13839
sg13
g813
sa(dp1939
g12
I13876
sg13
g815
sa(dp1940
g12
I13905
sg13
g817
sa(dp1941
g12
I13979
sg13
g819
sa(dp1942
g12
I14012
sg13
g821
sa(dp1943
g12
I14026
sg13
g823
sa(dp1944
g12
I14111
sg13
g825
sasg12
I14355
sg13
g826
ssI14357
(dp1945
g1
(lp1946
(dp1947
g12
I13841
sg13
g1151
sa(dp1948
g12
I13842
sg13
g1153
sasg12
I14357
sg13
g1154
ssI14358
(dp1949
g1
(lp1950
(dp1951
g12
I13843
sg13
g1752
sa(dp1952
g12
I13875
sg13
g1754
sa(dp1953
g12
I13877
sg13
g1756
sa(dp1954
g12
I14117
sg13
g1758
sasg12
I14358
sg13
g1759
ssI14359
(dp1955
g1
(lp1956
(dp1957
g12
I13845
sg13
g216
sa(dp1958
g12
I13894
sg13
g218
sa(dp1959
g12
I13998
sg13
g220
sasg12
I14359
sg13
g221
ssI14360
(dp1960
g1
(lp1961
(dp1962
g12
I13847
sg13
g1256
sa(dp1963
g12
I13849
sg13
g1258
sa(dp1964
g12
I14106
sg13
g1260
sa(dp1965
g12
I14144
sg13
g1262
sasg12
I14360
sg13
g1263
ssI14361
(dp1966
g1
(lp1967
(dp1968
g12
I13850
sg13
g831
sa(dp1969
g12
I13994
sg13
g833
sasg12
I14361
sg13
g834
ssI14362
(dp1970
g1
(lp1971
(dp1972
g12
I13852
sg13
g674
sa(dp1973
g12
I13854
sg13
g676
sasg12
I14362
sg13
g677
ssI14363
(dp1974
g1
(lp1975
(dp1976
g12
I13855
sg13
g1003
sa(dp1977
g12
I13988
sg13
g1005
sa(dp1978
g12
I14014
sg13
g1007
sasg12
I14363
sg13
g1008
ssI14364
(dp1979
g1
(lp1980
(dp1981
g12
I13859
sg13
g1134
sa(dp1982
g12
I14077
sg13
g1136
sasg12
I14364
sg13
g1137
ssI14365
(dp1983
g1
(lp1984
(dp1985
g12
I13860
sg13
g1056
sa(dp1986
g12
I14018
sg13
g1058
sa(dp1987
g12
I14032
sg13
g1060
sa(dp1988
g12
I14094
sg13
g1062
sasg12
I14365
sg13
g1063
ssI14367
(dp1989
g1
(lp1990
(dp1991
g12
I13864
sg13
g381
sa(dp1992
g12
I14081
sg13
g383
sa(dp1993
g12
I14162
sg13
g385
sasg12
I14367
sg13
g386
ssI14368
(dp1994
g1
(lp1995
(dp1996
g12
I13865
sg13
g1336
sa(dp1997
g12
I13929
sg13
g1338
sasg12
I14368
sg13
g1339
ssI14369
(dp1998
g1
(lp1999
(dp2000
g12
I13867
sg13
g1218
sa(dp2001
g12
I13933
sg13
g1220
sasg12
I14369
sg13
g1221
ssI14370
(dp2002
g1
(lp2003
(dp2004
g12
I13869
sg13
g1763
sa(dp2005
g12
I13870
sg13
g1765
sa(dp2006
g12
I13902
sg13
g1767
sa(dp2007
g12
I13923
sg13
g1769
sa(dp2008
g12
I13935
sg13
g1771
sa(dp2009
g12
I14127
sg13
g1773
sasg12
I14370
sg13
g1774
ssI14372
(dp2010
g1
(lp2011
(dp2012
g12
I13879
sg13
g390
sa(dp2013
g12
I14054
sg13
g392
sa(dp2014
g12
I14183
sg13
g394
sasg12
I14372
sg13
g395
ssI14373
(dp2015
g1
(lp2016
(dp2017
g12
I13880
sg13
g596
sa(dp2018
g12
I13964
sg13
g598
sa(dp2019
g12
I14116
sg13
g600
sasg12
I14373
sg13
g601
ssI14374
(dp2020
g1
(lp2021
(dp2022
g12
I13882
sg13
g850
sa(dp2023
g12
I13910
sg13
g852
sa(dp2024
g12
I14025
sg13
g854
sa(dp2025
g12
I14097
sg13
g856
sa(dp2026
g12
I14143
sg13
g858
sa(dp2027
g12
I14179
sg13
g860
sa(dp2028
g12
I14184
sg13
g862
sa(dp2029
g12
I14201
sg13
g864
sa(dp2030
g12
I14203
sg13
g866
sasg12
I14374
sg13
g867
ssI14375
(dp2031
g1
(lp2032
(dp2033
g12
I13883
sg13
g1696
sa(dp2034
g12
I13981
sg13
g1698
sa(dp2035
g12
I13991
sg13
g1700
sa(dp2036
g12
I14016
sg13
g1702
sa(dp2037
g12
I14147
sg13
g1704
sasg12
I14375
sg13
g1705
ssI14377
(dp2038
g1
(lp2039
(dp2040
g12
I13890
sg13
g288
sa(dp2041
g12
I13896
sg13
g290
sa(dp2042
g12
I14176
sg13
g292
sa(dp2043
g12
I14209
sg13
g294
sasg12
I14377
sg13
g295
ssI14379
(dp2044
g1
(lp2045
(dp2046
g12
I13897
sg13
g627
sa(dp2047
g12
I13916
sg13
g629
sa(dp2048
g12
I13973
sg13
g631
sa(dp2049
g12
I13986
sg13
g633
sa(dp2050
g12
I14164
sg13
g635
sa(dp2051
g12
I14172
sg13
g637
sasg12
I14379
sg13
g638
ssI14380
(dp2052
g1
(lp2053
(dp2054
g12
I13900
sg13
g1602
sa(dp2055
g12
I13954
sg13
g1604
sa(dp2056
g12
I14120
sg13
g1606
sasg12
I14380
sg13
g1607
ssI14381
(dp2057
g1
(lp2058
(dp2059
g12
I13904
sg13
g63
sa(dp2060
g12
I13972
sg13
g65
sa(dp2061
g12
I14087
sg13
g67
sa(dp2062
g12
I14140
sg13
g69
sa(dp2063
g12
I14168
sg13
g71
sa(dp2064
g12
I14204
sg13
g73
sa(dp2065
g12
I14227
sg13
g75
sa(dp2066
g12
I14232
sg13
g77
sasg12
I14381
sg13
g78
ssI14383
(dp2067
g1
(lp2068
(dp2069
g12
I13911
sg13
g1640
sa(dp2070
g12
I14110
sg13
g1642
sasg12
I14383
sg13
g1643
ssI14384
(dp2071
g1
(lp2072
(dp2073
g12
I13912
sg13
g1111
sa(dp2074
g12
I13967
sg13
g1113
sasg12
I14384
sg13
g1114
ssI14385
(dp2075
g1
(lp2076
(dp2077
g12
I13913
sg13
g1384
sa(dp2078
g12
I14124
sg13
g1386
sa(dp2079
g12
I14132
sg13
g1388
sa(dp2080
g12
I14178
sg13
g1390
sasg12
I14385
sg13
g1391
ssI14386
(dp2081
g1
(lp2082
(dp2083
g12
I13917
sg13
g480
sa(dp2084
g12
I14072
sg13
g482
sasg12
I14386
sg13
g483
ssI14387
(dp2085
g1
(lp2086
(dp2087
g12
I13920
sg13
g1067
sa(dp2088
g12
I14020
sg13
g1069
sa(dp2089
g12
I14208
sg13
g1071
sasg12
I14387
sg13
g1072
ssI14388
(dp2090
g1
(lp2091
(dp2092
g12
I13922
sg13
g1485
sa(dp2093
g12
I14039
sg13
g1487
sasg12
I14388
sg13
g1488
ssI14389
(dp2094
g1
(lp2095
(dp2096
g12
I13926
sg13
g1343
sa(dp2097
g12
I13968
sg13
g1345
sa(dp2098
g12
I14024
sg13
g1347
sasg12
I14389
sg13
g1348
ssI14391
(dp2099
g1
(lp2100
(dp2101
g12
I13930
sg13
g681
sa(dp2102
g12
I14001
sg13
g683
sa(dp2103
g12
I14125
sg13
g685
sasg12
I14391
sg13
g686
ssI14393
(dp2104
g1
(lp2105
(dp2106
g12
I13940
sg13
g871
sa(dp2107
g12
I13963
sg13
g873
sa(dp2108
g12
I13997
sg13
g875
sa(dp2109
g12
I14068
sg13
g877
sa(dp2110
g12
I14093
sg13
g879
sa(dp2111
g12
I14103
sg13
g881
sa(dp2112
g12
I14134
sg13
g883
sa(dp2113
g12
I14150
sg13
g885
sasg12
I14393
sg13
g886
ssI14394
(dp2114
g1
(lp2115
(dp2116
g12
I13942
sg13
g399
sa(dp2117
g12
I13989
sg13
g401
sa(dp2118
g12
I14061
sg13
g403
sa(dp2119
g12
I14182
sg13
g405
sa(dp2120
g12
I14221
sg13
g407
sa(dp2121
g12
I14231
sg13
g409
sasg12
I14394
sg13
g410
ssI14397
(dp2122
g1
(lp2123
(dp2124
g12
I13955
sg13
g1725
sa(dp2125
g12
I14196
sg13
g1727
sasg12
I14397
sg13
g1728
ssI14399
(dp2126
g1
(lp2127
(dp2128
g12
I13959
sg13
g183
sa(dp2129
g12
I14074
sg13
g185
sasg12
I14399
sg13
g186
ssI14400
(dp2130
g1
(lp2131
(dp2132
g12
I13960
sg13
g1395
sa(dp2133
g12
I13978
sg13
g1397
sasg12
I14400
sg13
g1398
ssI14401
(dp2134
g1
(lp2135
(dp2136
g12
I13970
sg13
g1492
sa(dp2137
g12
I14066
sg13
g1494
sasg12
I14401
sg13
g1495
ssI14407
(dp2138
g1
(lp2139
(dp2140
g12
I14027
sg13
g1158
sa(dp2141
g12
I14029
sg13
g1160
sa(dp2142
g12
I14048
sg13
g1162
sa(dp2143
g12
I14099
sg13
g1164
sasg12
I14407
sg13
g1165
ssI14408
(dp2144
g1
(lp2145
(dp2146
g12
I14030
sg13
g1778
sa(dp2147
g12
I14123
sg13
g1780
sasg12
I14408
sg13
g1781
ssI14409
(dp2148
g1
(lp2149
(dp2150
g12
I14037
sg13
g1402
sa(dp2151
g12
I14043
sg13
g1404
sa(dp2152
g12
I14045
sg13
g1406
sasg12
I14409
sg13
g1407
ssI14410
(dp2153
g1
(lp2154
(dp2155
g12
I14040
sg13
g126
sa(dp2156
g12
I14217
sg13
g128
sasg12
I14410
sg13
g129
ssI14412
(dp2157
g1
(lp2158
(dp2159
g12
I14049
sg13
g133
sa(dp2160
g12
I14055
sg13
g135
sa(dp2161
g12
I14136
sg13
g137
sa(dp2162
g12
I14155
sg13
g139
sa(dp2163
g12
I14189
sg13
g141
sa(dp2164
g12
I14240
sg13
g143
sasg12
I14412
sg13
g144
ssI14413
(dp2165
g1
(lp2166
(dp2167
g12
I14059
sg13
g981
sa(dp2168
g12
I14126
sg13
g983
sasg12
I14413
sg13
g984
ssI14415
(dp2169
g1
(lp2170
(dp2171
g12
I14064
sg13
g556
sa(dp2172
g12
I14109
sg13
g558
sa(dp2173
g12
I14114
sg13
g560
sa(dp2174
g12
I14188
sg13
g562
sasg12
I14415
sg13
g563
ssI14417
(dp2175
g1
(lp2176
(dp2177
g12
I14079
sg13
g1411
sa(dp2178
g12
I14129
sg13
g1413
sa(dp2179
g12
I14152
sg13
g1415
sasg12
I14417
sg13
g1416
ssI14419
(dp2180
g1
(lp2181
(dp2182
g12
I14090
sg13
g1552
sa(dp2183
g12
I14181
sg13
g1554
sa(dp2184
g12
I14243
sg13
g1556
sasg12
I14419
sg13
g1557
ssI14426
(dp2185
g1
(lp2186
(dp2187
g12
I14161
sg13
g1841
sa(dp2188
g12
I14199
sg13
g1843
sasg12
I14426
sg13
g1844
ssI14431
(dp2189
g1
(lp2190
(dp2191
g12
I14211
sg13
g1583
sa(dp2192
g12
I14214
sg13
g1585
sa(dp2193
g12
I14223
sg13
g1587
sasg12
I14431
sg13
g1588
ssI14432
(dp2194
g1
(lp2195
(dp2196
g12
I14215
sg13
g487
sa(dp2197
g12
I14245
sg13
g489
sasg12
I14432
sg13
g490
ssI14434
(dp2198
g1
(lp2199
(dp2200
g12
I14230
sg13
g1477
sa(dp2201
g12
I14238
sg13
g1479
sasg12
I14434
sg13
g1480
ssI14435
(dp2202
g1
(lp2203
(dp2204
g12
I14233
sg13
g1463
sa(dp2205
g12
I14246
sg13
g1465
sasg12
I14435
sg13
g1466
ssI14436
(dp2206
g1
(lp2207
(dp2208
g12
I14234
sg13
g1814
sa(dp2209
g12
I14244
sg13
g1816
sasg12
I14436
sg13
g1817
ssI14439
(dp2210
g1
(lp2211
(dp2212
g1
(lp2213
(dp2214
g12
I13678
sg13
g503
sa(dp2215
g12
I14022
sg13
g505
sa(dp2216
g12
I14023
sg13
g507
sa(dp2217
g12
I14156
sg13
g509
sa(dp2218
g12
I14171
sg13
g511
sa(dp2219
g12
I14202
sg13
g513
sasg12
I14250
sg13
g514
sa(dp2220
g12
I13982
sg13
g516
sasg12
I14439
sg13
g517
ssI14440
(dp2221
g1
(lp2222
(dp2223
g1
(lp2224
(dp2225
g12
I13679
sg13
g898
sa(dp2226
g12
I13707
sg13
g900
sa(dp2227
g12
I13715
sg13
g902
sa(dp2228
g12
I13939
sg13
g904
sa(dp2229
g12
I14042
sg13
g906
sasg12
I14251
sg13
g907
sa(dp2230
g1
(lp2231
(dp2232
g12
I13744
sg13
g911
sa(dp2233
g12
I13862
sg13
g913
sa(dp2234
g12
I13906
sg13
g915
sa(dp2235
g12
I13921
sg13
g917
sa(dp2236
g12
I14003
sg13
g919
sa(dp2237
g12
I14224
sg13
g921
sasg12
I14302
sg13
g922
sa(dp2238
g1
(lp2239
(dp2240
g12
I13780
sg13
g926
sa(dp2241
g12
I13950
sg13
g928
sa(dp2242
g12
I14078
sg13
g930
sa(dp2243
g12
I14080
sg13
g932
sa(dp2244
g12
I14115
sg13
g934
sa(dp2245
g12
I14213
sg13
g936
sasg12
I14326
sg13
g937
sa(dp2246
g1
(lp2247
(dp2248
g12
I13804
sg13
g941
sa(dp2249
g12
I13892
sg13
g943
sa(dp2250
g12
I13948
sg13
g945
sa(dp2251
g12
I14121
sg13
g947
sa(dp2252
g12
I14135
sg13
g949
sa(dp2253
g12
I14146
sg13
g951
sa(dp2254
g12
I14229
sg13
g953
sa(dp2255
g12
I14237
sg13
g955
sasg12
I14335
sg13
g956
sasg12
I14440
sg13
g957
ssI14441
(dp2256
g1
(lp2257
(dp2258
g1
(lp2259
(dp2260
g12
I13680
sg13
g523
sa(dp2261
g12
I13944
sg13
g525
sa(dp2262
g12
I14236
sg13
g527
sasg12
I14252
sg13
g528
sa(dp2263
g1
(lp2264
(dp2265
g12
I13711
sg13
g532
sa(dp2266
g12
I13806
sg13
g534
sa(dp2267
g12
I13858
sg13
g536
sa(dp2268
g12
I13971
sg13
g538
sa(dp2269
g12
I14159
sg13
g540
sasg12
I14280
sg13
g541
sa(dp2270
g1
(lp2271
(dp2272
g12
I13811
sg13
g545
sa(dp2273
g12
I13857
sg13
g547
sa(dp2274
g12
I14021
sg13
g549
sa(dp2275
g12
I14095
sg13
g551
sasg12
I14338
sg13
g552
sa(dp2276
g1
(lp2277
(dp2278
g12
I14064
sg13
g556
sa(dp2279
g12
I14109
sg13
g558
sa(dp2280
g12
I14114
sg13
g560
sa(dp2281
g12
I14188
sg13
g562
sasg12
I14415
sg13
g563
sasg12
I14441
sg13
g564
ssI14442
(dp2282
g1
(lp2283
(dp2284
g1
(lp2285
(dp2286
g12
I13681
sg13
g419
sa(dp2287
g12
I13818
sg13
g421
sasg12
I14253
sg13
g422
sa(dp2288
g1
(lp2289
(dp2290
g12
I13683
sg13
g426
sa(dp2291
g12
I13748
sg13
g428
sa(dp2292
g12
I14017
sg13
g430
sasg12
I14255
sg13
g431
sa(dp2293
g1
(lp2294
(dp2295
g12
I13753
sg13
g435
sa(dp2296
g12
I13853
sg13
g437
sasg12
I14308
sg13
g438
sasg12
I14442
sg13
g439
ssI14443
(dp2297
g1
(lp2298
(dp2299
g1
(lp2300
(dp2301
g12
I13682
sg13
g994
sa(dp2302
g12
I14069
sg13
g996
sa(dp2303
g12
I14073
sg13
g998
sasg12
I14254
sg13
g999
sa(dp2304
g1
(lp2305
(dp2306
g12
I13855
sg13
g1003
sa(dp2307
g12
I13988
sg13
g1005
sa(dp2308
g12
I14014
sg13
g1007
sasg12
I14363
sg13
g1008
sa(dp2309
g12
I14086
sg13
g1010
sasg12
I14443
sg13
g1011
ssI14444
(dp2310
g1
(lp2311
(dp2312
g1
(lp2313
(dp2314
g12
I13684
sg13
g1209
sa(dp2315
g12
I14187
sg13
g1211
sa(dp2316
g12
I14205
sg13
g1213
sasg12
I14256
sg13
g1214
sa(dp2317
g1
(lp2318
(dp2319
g12
I13867
sg13
g1218
sa(dp2320
g12
I13933
sg13
g1220
sasg12
I14369
sg13
g1221
sa(dp2321
g12
I13999
sg13
g1223
sasg12
I14444
sg13
g1224
ssI14445
(dp2322
g1
(lp2323
(dp2324
g1
(lp2325
(dp2326
g12
I13685
sg13
g1084
sa(dp2327
g12
I13918
sg13
g1086
sa(dp2328
g12
I13925
sg13
g1088
sasg12
I14257
sg13
g1089
sa(dp2329
g12
I13726
sg13
g1091
sasg12
I14445
sg13
g1092
ssI14447
(dp2330
g1
(lp2331
(dp2332
g1
(lp2333
(dp2334
g12
I13687
sg13
g1429
sa(dp2335
g12
I13721
sg13
g1431
sa(dp2336
g12
I14107
sg13
g1433
sasg12
I14259
sg13
g1434
sa(dp2337
g1
(lp2338
(dp2339
g12
I13829
sg13
g1438
sa(dp2340
g12
I14050
sg13
g1440
sasg12
I14350
sg13
g1441
sasg12
I14447
sg13
g1442
ssI14448
(dp2341
g1
(lp2342
(dp2343
g1
(lp2344
(dp2345
g12
I13688
sg13
g1510
sa(dp2346
g12
I13719
sg13
g1512
sa(dp2347
g12
I13878
sg13
g1514
sa(dp2348
g12
I14004
sg13
g1516
sa(dp2349
g12
I14185
sg13
g1518
sasg12
I14260
sg13
g1519
sa(dp2350
g1
(lp2351
(dp2352
g12
I13697
sg13
g1523
sa(dp2353
g12
I13809
sg13
g1525
sa(dp2354
g12
I14219
sg13
g1527
sa(dp2355
g12
I14222
sg13
g1529
sasg12
I14268
sg13
g1530
sa(dp2356
g12
I13861
sg13
g1532
sasg12
I14448
sg13
g1533
ssI14449
(dp2357
g1
(lp2358
(dp2359
g1
(lp2360
(dp2361
g12
I13689
sg13
g1098
sa(dp2362
g12
I13965
sg13
g1100
sa(dp2363
g12
I14038
sg13
g1102
sa(dp2364
g12
I14070
sg13
g1104
sa(dp2365
g12
I14138
sg13
g1106
sasg12
I14261
sg13
g1107
sa(dp2366
g1
(lp2367
(dp2368
g12
I13912
sg13
g1111
sa(dp2369
g12
I13967
sg13
g1113
sasg12
I14384
sg13
g1114
sasg12
I14449
sg13
g1115
ssI14450
(dp2370
g1
(lp2371
(dp2372
g1
(lp2373
(dp2374
g12
I13690
sg13
g648
sa(dp2375
g12
I13745
sg13
g650
sa(dp2376
g12
I13782
sg13
g652
sa(dp2377
g12
I13884
sg13
g654
sa(dp2378
g12
I14015
sg13
g656
sa(dp2379
g12
I14128
sg13
g658
sasg12
I14262
sg13
g659
sa(dp2380
g1
(lp2381
(dp2382
g12
I13699
sg13
g663
sa(dp2383
g12
I13789
sg13
g665
sasg12
I14270
sg13
g666
sa(dp2384
g12
I13732
sg13
g668
sa(dp2385
g12
I13808
sg13
g670
sa(dp2386
g1
(lp2387
(dp2388
g12
I13852
sg13
g674
sa(dp2389
g12
I13854
sg13
g676
sasg12
I14362
sg13
g677
sa(dp2390
g1
(lp2391
(dp2392
g12
I13930
sg13
g681
sa(dp2393
g12
I14001
sg13
g683
sa(dp2394
g12
I14125
sg13
g685
sasg12
I14391
sg13
g686
sasg12
I14450
sg13
g687
ssI14451
(dp2395
g1
(lp2396
(dp2397
g1
(lp2398
(dp2399
g12
I13691
sg13
g1629
sa(dp2400
g12
I14008
sg13
g1631
sa(dp2401
g12
I14167
sg13
g1633
sa(dp2402
g12
I14197
sg13
g1635
sasg12
I14263
sg13
g1636
sa(dp2403
g1
(lp2404
(dp2405
g12
I13911
sg13
g1640
sa(dp2406
g12
I14110
sg13
g1642
sasg12
I14383
sg13
g1643
sa(dp2407
g12
I13983
sg13
g1645
sasg12
I14451
sg13
g1646
ssI14452
(dp2408
g1
(lp2409
(dp2410
g1
(lp2411
(dp2412
g12
I13692
sg13
g33
sa(dp2413
g12
I14051
sg13
g35
sasg12
I14264
sg13
g36
sa(dp2414
g1
(lp2415
(dp2416
g12
I13743
sg13
g40
sa(dp2417
g12
I14052
sg13
g42
sa(dp2418
g12
I14113
sg13
g44
sasg12
I14301
sg13
g45
sasg12
I14452
sg13
g46
ssI14454
(dp2419
g1
(lp2420
(dp2421
g1
(lp2422
(dp2423
g12
I13695
sg13
g115
sa(dp2424
g12
I13764
sg13
g117
sa(dp2425
g12
I13783
sg13
g119
sa(dp2426
g12
I14212
sg13
g121
sasg12
I14266
sg13
g122
sa(dp2427
g1
(lp2428
(dp2429
g12
I14040
sg13
g126
sa(dp2430
g12
I14217
sg13
g128
sasg12
I14410
sg13
g129
sa(dp2431
g1
(lp2432
(dp2433
g12
I14049
sg13
g133
sa(dp2434
g12
I14055
sg13
g135
sa(dp2435
g12
I14136
sg13
g137
sa(dp2436
g12
I14155
sg13
g139
sa(dp2437
g12
I14189
sg13
g141
sa(dp2438
g12
I14240
sg13
g143
sasg12
I14412
sg13
g144
sasg12
I14454
sg13
g145
ssI14455
(dp2439
g1
(lp2440
(dp2441
g12
I13696
sg13
g1147
sa(dp2442
g1
(lp2443
(dp2444
g12
I13841
sg13
g1151
sa(dp2445
g12
I13842
sg13
g1153
sasg12
I14357
sg13
g1154
sa(dp2446
g1
(lp2447
(dp2448
g12
I14027
sg13
g1158
sa(dp2449
g12
I14029
sg13
g1160
sa(dp2450
g12
I14048
sg13
g1162
sa(dp2451
g12
I14099
sg13
g1164
sasg12
I14407
sg13
g1165
sasg12
I14455
sg13
g1166
ssI14456
(dp2452
g1
(lp2453
(dp2454
g1
(lp2455
(dp2456
g12
I13698
sg13
g1017
sa(dp2457
g12
I13718
sg13
g1019
sa(dp2458
g12
I13725
sg13
g1021
sa(dp2459
g12
I13908
sg13
g1023
sasg12
I14269
sg13
g1024
sa(dp2460
g1
(lp2461
(dp2462
g12
I13734
sg13
g1028
sa(dp2463
g12
I13786
sg13
g1030
sa(dp2464
g12
I14057
sg13
g1032
sa(dp2465
g12
I14175
sg13
g1034
sasg12
I14294
sg13
g1035
sasg12
I14456
sg13
g1036
ssI14457
(dp2466
g1
(lp2467
(dp2468
g12
I13700
sg13
g568
sa(dp2469
g1
(lp2470
(dp2471
g12
I13733
sg13
g572
sa(dp2472
g12
I13993
sg13
g574
sa(dp2473
g12
I13995
sg13
g576
sa(dp2474
g12
I14009
sg13
g578
sa(dp2475
g12
I14145
sg13
g580
sa(dp2476
g12
I14247
sg13
g582
sasg12
I14293
sg13
g583
sa(dp2477
g1
(lp2478
(dp2479
g12
I13821
sg13
g587
sa(dp2480
g12
I13947
sg13
g589
sa(dp2481
g12
I14151
sg13
g591
sasg12
I14344
sg13
g592
sa(dp2482
g1
(lp2483
(dp2484
g12
I13880
sg13
g596
sa(dp2485
g12
I13964
sg13
g598
sa(dp2486
g12
I14116
sg13
g600
sasg12
I14373
sg13
g601
sasg12
I14457
sg13
g602
ssI14458
(dp2487
g1
(lp2488
(dp2489
g1
(lp2490
(dp2491
g12
I13701
sg13
g1270
sa(dp2492
g12
I13709
sg13
g1272
sa(dp2493
g12
I13728
sg13
g1274
sa(dp2494
g12
I13787
sg13
g1276
sa(dp2495
g12
I13974
sg13
g1278
sa(dp2496
g12
I14028
sg13
g1280
sa(dp2497
g12
I14034
sg13
g1282
sa(dp2498
g12
I14062
sg13
g1284
sa(dp2499
g12
I14101
sg13
g1286
sasg12
I14272
sg13
g1287
sa(dp2500
g1
(lp2501
(dp2502
g12
I13703
sg13
g1291
sa(dp2503
g12
I13756
sg13
g1293
sa(dp2504
g12
I13781
sg13
g1295
sa(dp2505
g12
I14173
sg13
g1297
sasg12
I14274
sg13
g1298
sa(dp2506
g1
(lp2507
(dp2508
g12
I13835
sg13
g1302
sa(dp2509
g12
I13836
sg13
g1304
sa(dp2510
g12
I13885
sg13
g1306
sasg12
I14353
sg13
g1307
sasg12
I14458
sg13
g1308
ssI14459
(dp2511
g1
(lp2512
(dp2513
g1
(lp2514
(dp2515
g12
I13702
sg13
g1680
sa(dp2516
g12
I13785
sg13
g1682
sasg12
I14273
sg13
g1683
sa(dp2517
g1
(lp2518
(dp2519
g12
I13797
sg13
g1687
sa(dp2520
g12
I14019
sg13
g1689
sa(dp2521
g12
I14206
sg13
g1691
sasg12
I14332
sg13
g1692
sa(dp2522
g1
(lp2523
(dp2524
g12
I13883
sg13
g1696
sa(dp2525
g12
I13981
sg13
g1698
sa(dp2526
g12
I13991
sg13
g1700
sa(dp2527
g12
I14016
sg13
g1702
sa(dp2528
g12
I14147
sg13
g1704
sasg12
I14375
sg13
g1705
sa(dp2529
g12
I13891
sg13
g1707
sa(dp2530
g12
I14191
sg13
g1709
sasg12
I14459
sg13
g1710
ssI14460
(dp2531
g1
(lp2532
(dp2533
g1
(lp2534
(dp2535
g12
I13704
sg13
g693
sa(dp2536
g12
I13798
sg13
g695
sa(dp2537
g12
I14067
sg13
g697
sa(dp2538
g12
I14096
sg13
g699
sa(dp2539
g12
I14133
sg13
g701
sa(dp2540
g12
I14174
sg13
g703
sasg12
I14275
sg13
g704
sa(dp2541
g1
(lp2542
(dp2543
g12
I13722
sg13
g708
sa(dp2544
g12
I13723
sg13
g710
sa(dp2545
g12
I13952
sg13
g712
sasg12
I14286
sg13
g713
sa(dp2546
g1
(lp2547
(dp2548
g12
I13746
sg13
g717
sa(dp2549
g12
I13772
sg13
g719
sa(dp2550
g12
I14118
sg13
g721
sa(dp2551
g12
I14142
sg13
g723
sasg12
I14303
sg13
g724
sa(dp2552
g1
(lp2553
(dp2554
g12
I13712
sg13
g728
sa(dp2555
g12
I13755
sg13
g730
sa(dp2556
g12
I13793
sg13
g732
sa(dp2557
g12
I13805
sg13
g734
sa(dp2558
g12
I13895
sg13
g736
sa(dp2559
g12
I14033
sg13
g738
sa(dp2560
g12
I14163
sg13
g740
sa(dp2561
g12
I14165
sg13
g742
sasg12
I14310
sg13
g743
sa(dp2562
g1
(lp2563
(dp2564
g12
I13765
sg13
g747
sa(dp2565
g12
I13766
sg13
g749
sa(dp2566
g12
I13832
sg13
g751
sa(dp2567
g12
I13888
sg13
g753
sa(dp2568
g12
I14036
sg13
g755
sa(dp2569
g12
I14065
sg13
g757
sa(dp2570
g12
I14071
sg13
g759
sasg12
I14315
sg13
g760
sa(dp2571
g1
(lp2572
(dp2573
g12
I13774
sg13
g764
sa(dp2574
g12
I13949
sg13
g766
sa(dp2575
g12
I14041
sg13
g768
sasg12
I14321
sg13
g769
sasg12
I14460
sg13
g770
ssI14461
(dp2576
g1
(lp2577
(dp2578
g1
(lp2579
(dp2580
g12
I13705
sg13
g963
sa(dp2581
g12
I13730
sg13
g965
sasg12
I14276
sg13
g966
sa(dp2582
g1
(lp2583
(dp2584
g12
I13757
sg13
g970
sa(dp2585
g12
I13791
sg13
g972
sa(dp2586
g12
I13813
sg13
g974
sa(dp2587
g12
I13846
sg13
g976
sasg12
I14311
sg13
g977
sa(dp2588
g1
(lp2589
(dp2590
g12
I14059
sg13
g981
sa(dp2591
g12
I14126
sg13
g983
sasg12
I14413
sg13
g984
sasg12
I14461
sg13
g985
ssI14463
(dp2592
g1
(lp2593
(dp2594
g1
(lp2595
(dp2596
g12
I13708
sg13
g1121
sa(dp2597
g12
I13820
sg13
g1123
sa(dp2598
g12
I14085
sg13
g1125
sa(dp2599
g12
I14112
sg13
g1127
sa(dp2600
g12
I14210
sg13
g1129
sasg12
I14278
sg13
g1130
sa(dp2601
g1
(lp2602
(dp2603
g12
I13859
sg13
g1134
sa(dp2604
g12
I14077
sg13
g1136
sasg12
I14364
sg13
g1137
sa(dp2605
g12
I13957
sg13
g1139
sasg12
I14463
sg13
g1140
ssI14464
(dp2606
g1
(lp2607
(dp2608
g1
(lp2609
(dp2610
g12
I13710
sg13
g152
sa(dp2611
g12
I13739
sg13
g154
sa(dp2612
g12
I13863
sg13
g156
sa(dp2613
g12
I13899
sg13
g158
sa(dp2614
g12
I14148
sg13
g160
sasg12
I14279
sg13
g161
sa(dp2615
g1
(lp2616
(dp2617
g12
I13735
sg13
g165
sa(dp2618
g12
I13837
sg13
g167
sa(dp2619
g12
I13969
sg13
g169
sa(dp2620
g12
I14013
sg13
g171
sasg12
I14295
sg13
g172
sa(dp2621
g1
(lp2622
(dp2623
g12
I13838
sg13
g176
sa(dp2624
g12
I13886
sg13
g178
sasg12
I14354
sg13
g179
sa(dp2625
g1
(lp2626
(dp2627
g12
I13959
sg13
g183
sa(dp2628
g12
I14074
sg13
g185
sasg12
I14399
sg13
g186
sasg12
I14464
sg13
g187
ssI14466
(dp2629
g1
(lp2630
(dp2631
g1
(lp2632
(dp2633
g12
I13714
sg13
g1539
sa(dp2634
g12
I14005
sg13
g1541
sa(dp2635
g12
I14075
sg13
g1543
sasg12
I14282
sg13
g1544
sa(dp2636
g12
I13953
sg13
g1546
sa(dp2637
g12
I14010
sg13
g1548
sa(dp2638
g1
(lp2639
(dp2640
g12
I14090
sg13
g1552
sa(dp2641
g12
I14181
sg13
g1554
sa(dp2642
g12
I14243
sg13
g1556
sasg12
I14419
sg13
g1557
sasg12
I14466
sg13
g1558
ssI14467
(dp2643
g1
(lp2644
(dp2645
g1
(lp2646
(dp2647
g12
I13716
sg13
g352
sa(dp2648
g12
I13856
sg13
g354
sasg12
I14283
sg13
g355
sa(dp2649
g1
(lp2650
(dp2651
g12
I13814
sg13
g359
sa(dp2652
g12
I13873
sg13
g361
sa(dp2653
g12
I13937
sg13
g363
sasg12
I14339
sg13
g364
sa(dp2654
g1
(lp2655
(dp2656
g12
I13823
sg13
g368
sa(dp2657
g12
I13958
sg13
g370
sa(dp2658
g12
I14058
sg13
g372
sa(dp2659
g12
I14153
sg13
g374
sa(dp2660
g12
I14226
sg13
g376
sasg12
I14345
sg13
g377
sa(dp2661
g1
(lp2662
(dp2663
g12
I13864
sg13
g381
sa(dp2664
g12
I14081
sg13
g383
sa(dp2665
g12
I14162
sg13
g385
sasg12
I14367
sg13
g386
sa(dp2666
g1
(lp2667
(dp2668
g12
I13879
sg13
g390
sa(dp2669
g12
I14054
sg13
g392
sa(dp2670
g12
I14183
sg13
g394
sasg12
I14372
sg13
g395
sa(dp2671
g1
(lp2672
(dp2673
g12
I13942
sg13
g399
sa(dp2674
g12
I13989
sg13
g401
sa(dp2675
g12
I14061
sg13
g403
sa(dp2676
g12
I14182
sg13
g405
sa(dp2677
g12
I14221
sg13
g407
sa(dp2678
g12
I14231
sg13
g409
sasg12
I14394
sg13
g410
sasg12
I14467
sg13
g411
ssI14468
(dp2679
g1
(lp2680
(dp2681
g1
(lp2682
(dp2683
g12
I13717
sg13
g195
sa(dp2684
g12
I13736
sg13
g197
sasg12
I14284
sg13
g198
sa(dp2685
g1
(lp2686
(dp2687
g12
I13742
sg13
g202
sa(dp2688
g12
I13881
sg13
g204
sasg12
I14300
sg13
g205
sa(dp2689
g1
(lp2690
(dp2691
g12
I13800
sg13
g209
sa(dp2692
g12
I13801
sg13
g211
sasg12
I14333
sg13
g212
sa(dp2693
g1
(lp2694
(dp2695
g12
I13845
sg13
g216
sa(dp2696
g12
I13894
sg13
g218
sa(dp2697
g12
I13998
sg13
g220
sasg12
I14359
sg13
g221
sasg12
I14468
sg13
g222
ssI14469
(dp2698
g1
(lp2699
(dp2700
g1
(lp2701
(dp2702
g12
I13720
sg13
g1042
sa(dp2703
g12
I13779
sg13
g1044
sasg12
I14285
sg13
g1045
sa(dp2704
g1
(lp2705
(dp2706
g12
I13768
sg13
g1049
sa(dp2707
g12
I13903
sg13
g1051
sasg12
I14317
sg13
g1052
sa(dp2708
g1
(lp2709
(dp2710
g12
I13860
sg13
g1056
sa(dp2711
g12
I14018
sg13
g1058
sa(dp2712
g12
I14032
sg13
g1060
sa(dp2713
g12
I14094
sg13
g1062
sasg12
I14365
sg13
g1063
sa(dp2714
g1
(lp2715
(dp2716
g12
I13920
sg13
g1067
sa(dp2717
g12
I14020
sg13
g1069
sa(dp2718
g12
I14208
sg13
g1071
sasg12
I14387
sg13
g1072
sa(dp2719
g12
I14076
sg13
g1074
sasg12
I14469
sg13
g1075
ssI14470
(dp2720
g1
(lp2721
(dp2722
g1
(lp2723
(dp2724
g12
I13724
sg13
g1716
sa(dp2725
g12
I14084
sg13
g1718
sasg12
I14287
sg13
g1719
sa(dp2726
g12
I13931
sg13
g1721
sa(dp2727
g1
(lp2728
(dp2729
g12
I13955
sg13
g1725
sa(dp2730
g12
I14196
sg13
g1727
sasg12
I14397
sg13
g1728
sasg12
I14470
sg13
g1729
ssI14471
(dp2731
g1
(lp2732
(dp2733
g1
(lp2734
(dp2735
g12
I13727
sg13
g1316
sa(dp2736
g12
I13985
sg13
g1318
sasg12
I14289
sg13
g1319
sa(dp2737
g1
(lp2738
(dp2739
g12
I13771
sg13
g1323
sa(dp2740
g12
I14089
sg13
g1325
sa(dp2741
g12
I14104
sg13
g1327
sa(dp2742
g12
I14119
sg13
g1329
sa(dp2743
g12
I14180
sg13
g1331
sasg12
I14319
sg13
g1332
sa(dp2744
g1
(lp2745
(dp2746
g12
I13865
sg13
g1336
sa(dp2747
g12
I13929
sg13
g1338
sasg12
I14368
sg13
g1339
sa(dp2748
g1
(lp2749
(dp2750
g12
I13926
sg13
g1343
sa(dp2751
g12
I13968
sg13
g1345
sa(dp2752
g12
I14024
sg13
g1347
sasg12
I14389
sg13
g1348
sasg12
I14471
sg13
g1349
ssI14472
(dp2753
g1
(lp2754
(dp2755
g1
(lp2756
(dp2757
g12
I13729
sg13
g1453
sa(dp2758
g12
I14091
sg13
g1455
sasg12
I14290
sg13
g1456
sa(dp2759
g12
I13889
sg13
g1458
sasg12
I14472
sg13
g1459
ssI14474
(dp2760
g1
(lp2761
(dp2762
g1
(lp2763
(dp2764
g12
I13737
sg13
g1567
sa(dp2765
g12
I13945
sg13
g1569
sasg12
I14296
sg13
g1570
sa(dp2766
g12
I14160
sg13
g1572
sasg12
I14474
sg13
g1573
ssI14475
(dp2767
g1
(lp2768
(dp2769
g1
(lp2770
(dp2771
g12
I13738
sg13
g445
sa(dp2772
g12
I13810
sg13
g447
sa(dp2773
g12
I13831
sg13
g449
sasg12
I14297
sg13
g450
sa(dp2774
g1
(lp2775
(dp2776
g12
I13770
sg13
g454
sa(dp2777
g12
I13980
sg13
g456
sa(dp2778
g12
I14105
sg13
g458
sasg12
I14318
sg13
g459
sa(dp2779
g1
(lp2780
(dp2781
g12
I13815
sg13
g463
sa(dp2782
g12
I13932
sg13
g465
sa(dp2783
g12
I13992
sg13
g467
sa(dp2784
g12
I14082
sg13
g469
sa(dp2785
g12
I14139
sg13
g471
sa(dp2786
g12
I14228
sg13
g473
sasg12
I14340
sg13
g474
sa(dp2787
g12
I13909
sg13
g476
sa(dp2788
g1
(lp2789
(dp2790
g12
I13917
sg13
g480
sa(dp2791
g12
I14072
sg13
g482
sasg12
I14386
sg13
g483
sa(dp2792
g1
(lp2793
(dp2794
g12
I14215
sg13
g487
sa(dp2795
g12
I14245
sg13
g489
sasg12
I14432
sg13
g490
sasg12
I14475
sg13
g491
ssI14476
(dp2796
g1
(lp2797
(dp2798
g12
I13740
sg13
g1577
sa(dp2799
g12
I13827
sg13
g1579
sa(dp2800
g1
(lp2801
(dp2802
g12
I14211
sg13
g1583
sa(dp2803
g12
I14214
sg13
g1585
sa(dp2804
g12
I14223
sg13
g1587
sasg12
I14431
sg13
g1588
sasg12
I14476
sg13
g1589
ssI14477
(dp2805
g1
(lp2806
(dp2807
g12
I13741
sg13
g1794
sa(dp2808
g12
I13927
sg13
g1796
sasg12
I14477
sg13
g1797
ssI14478
(dp2809
g1
(lp2810
(dp2811
g1
(lp2812
(dp2813
g12
I13747
sg13
g52
sa(dp2814
g12
I13887
sg13
g54
sa(dp2815
g12
I13934
sg13
g56
sa(dp2816
g12
I13984
sg13
g58
sasg12
I14304
sg13
g59
sa(dp2817
g1
(lp2818
(dp2819
g12
I13904
sg13
g63
sa(dp2820
g12
I13972
sg13
g65
sa(dp2821
g12
I14087
sg13
g67
sa(dp2822
g12
I14140
sg13
g69
sa(dp2823
g12
I14168
sg13
g71
sa(dp2824
g12
I14204
sg13
g73
sa(dp2825
g12
I14227
sg13
g75
sa(dp2826
g12
I14232
sg13
g77
sasg12
I14381
sg13
g78
sasg12
I14478
sg13
g79
ssI14479
(dp2827
g1
(lp2828
(dp2829
g1
(lp2830
(dp2831
g12
I13749
sg13
g1355
sa(dp2832
g12
I13828
sg13
g1357
sa(dp2833
g12
I13956
sg13
g1359
sa(dp2834
g12
I14031
sg13
g1361
sasg12
I14305
sg13
g1362
sa(dp2835
g1
(lp2836
(dp2837
g12
I13750
sg13
g1366
sa(dp2838
g12
I13924
sg13
g1368
sa(dp2839
g12
I13977
sg13
g1370
sa(dp2840
g12
I14186
sg13
g1372
sa(dp2841
g12
I14218
sg13
g1374
sasg12
I14306
sg13
g1375
sasg12
I14479
sg13
g1376
ssI14480
(dp2842
g1
(lp2843
(dp2844
g1
(lp2845
(dp2846
g12
I13751
sg13
g1595
sa(dp2847
g12
I14235
sg13
g1597
sasg12
I14307
sg13
g1598
sa(dp2848
g1
(lp2849
(dp2850
g12
I13900
sg13
g1602
sa(dp2851
g12
I13954
sg13
g1604
sa(dp2852
g12
I14120
sg13
g1606
sasg12
I14380
sg13
g1607
sa(dp2853
g12
I14220
sg13
g1609
sasg12
I14480
sg13
g1610
ssI14481
(dp2854
g1
(lp2855
(dp2856
g1
(lp2857
(dp2858
g12
I13754
sg13
g779
sa(dp2859
g12
I13761
sg13
g781
sa(dp2860
g12
I13868
sg13
g783
sa(dp2861
g12
I13936
sg13
g785
sa(dp2862
g12
I13951
sg13
g787
sa(dp2863
g12
I13961
sg13
g789
sa(dp2864
g12
I14002
sg13
g791
sa(dp2865
g12
I14007
sg13
g793
sa(dp2866
g12
I14170
sg13
g795
sa(dp2867
g12
I14177
sg13
g797
sa(dp2868
g12
I14225
sg13
g799
sasg12
I14309
sg13
g800
sa(dp2869
g1
(lp2870
(dp2871
g12
I13759
sg13
g804
sa(dp2872
g12
I13803
sg13
g806
sa(dp2873
g12
I14207
sg13
g808
sasg12
I14313
sg13
g809
sa(dp2874
g1
(lp2875
(dp2876
g12
I13839
sg13
g813
sa(dp2877
g12
I13876
sg13
g815
sa(dp2878
g12
I13905
sg13
g817
sa(dp2879
g12
I13979
sg13
g819
sa(dp2880
g12
I14012
sg13
g821
sa(dp2881
g12
I14026
sg13
g823
sa(dp2882
g12
I14111
sg13
g825
sasg12
I14355
sg13
g826
sasg12
I14481
sg13
g827
ssI14482
(dp2883
g1
(lp2884
(dp2885
g1
(lp2886
(dp2887
g12
I13758
sg13
g228
sa(dp2888
g12
I13848
sg13
g230
sasg12
I14312
sg13
g231
sa(dp2889
g1
(lp2890
(dp2891
g12
I13767
sg13
g235
sa(dp2892
g12
I13769
sg13
g237
sa(dp2893
g12
I13812
sg13
g239
sasg12
I14316
sg13
g240
sa(dp2894
g1
(lp2895
(dp2896
g12
I13776
sg13
g244
sa(dp2897
g12
I14102
sg13
g246
sasg12
I14323
sg13
g247
sa(dp2898
g1
(lp2899
(dp2900
g12
I13816
sg13
g251
sa(dp2901
g12
I13830
sg13
g253
sasg12
I14341
sg13
g254
sasg12
I14482
sg13
g255
ssI14483
(dp2902
g1
(lp2903
(dp2904
g1
(lp2905
(dp2906
g12
I13762
sg13
g261
sa(dp2907
g12
I14083
sg13
g263
sasg12
I14314
sg13
g264
sa(dp2908
g12
I13792
sg13
g266
sa(dp2909
g1
(lp2910
(dp2911
g12
I13817
sg13
g270
sa(dp2912
g12
I14056
sg13
g272
sa(dp2913
g12
I14194
sg13
g274
sasg12
I14342
sg13
g275
sa(dp2914
g1
(lp2915
(dp2916
g12
I13826
sg13
g279
sa(dp2917
g12
I13844
sg13
g281
sa(dp2918
g12
I13893
sg13
g283
sasg12
I14348
sg13
g284
sa(dp2919
g1
(lp2920
(dp2921
g12
I13890
sg13
g288
sa(dp2922
g12
I13896
sg13
g290
sa(dp2923
g12
I14176
sg13
g292
sa(dp2924
g12
I14209
sg13
g294
sasg12
I14377
sg13
g295
sa(dp2925
g12
I14063
sg13
g297
sasg12
I14483
sg13
g298
ssI14484
(dp2926
g1
(lp2927
(dp2928
g1
(lp2929
(dp2930
g12
I13773
sg13
g1230
sa(dp2931
g12
I13851
sg13
g1232
sa(dp2932
g12
I13872
sg13
g1234
sasg12
I14320
sg13
g1235
sa(dp2933
g12
I13840
sg13
g1237
sasg12
I14484
sg13
g1238
ssI14485
(dp2934
g1
(lp2935
(dp2936
g1
(lp2937
(dp2938
g12
I13775
sg13
g1244
sa(dp2939
g12
I14216
sg13
g1246
sasg12
I14322
sg13
g1247
sa(dp2940
g12
I14157
sg13
g1249
sa(dp2941
g12
I14195
sg13
g1251
sasg12
I14485
sg13
g1252
ssI14486
(dp2942
g1
(lp2943
(dp2944
g12
I13777
sg13
g83
sa(dp2945
g12
I13796
sg13
g85
sasg12
I14486
sg13
g86
ssI14487
(dp2946
g1
(lp2947
(dp2948
g1
(lp2949
(dp2950
g12
I13778
sg13
g608
sa(dp2951
g12
I13946
sg13
g610
sa(dp2952
g12
I13987
sg13
g612
sa(dp2953
g12
I14006
sg13
g614
sa(dp2954
g12
I14035
sg13
g616
sa(dp2955
g12
I14108
sg13
g618
sa(dp2956
g12
I14122
sg13
g620
sa(dp2957
g12
I14190
sg13
g622
sasg12
I14325
sg13
g623
sa(dp2958
g1
(lp2959
(dp2960
g12
I13897
sg13
g627
sa(dp2961
g12
I13916
sg13
g629
sa(dp2962
g12
I13973
sg13
g631
sa(dp2963
g12
I13986
sg13
g633
sa(dp2964
g12
I14164
sg13
g635
sa(dp2965
g12
I14172
sg13
g637
sasg12
I14379
sg13
g638
sasg12
I14487
sg13
g639
ssI14489
(dp2966
g1
(lp2967
(dp2968
g12
I13790
sg13
g1473
sa(dp2969
g1
(lp2970
(dp2971
g12
I14230
sg13
g1477
sa(dp2972
g12
I14238
sg13
g1479
sasg12
I14434
sg13
g1480
sasg12
I14489
sg13
g1481
ssI14491
(dp2973
g1
(lp2974
(dp2975
g1
(lp2976
(dp2977
g12
I13802
sg13
g1652
sa(dp2978
g12
I13941
sg13
g1654
sa(dp2979
g12
I14000
sg13
g1656
sa(dp2980
g12
I14192
sg13
g1658
sa(dp2981
g12
I14200
sg13
g1660
sasg12
I14334
sg13
g1661
sa(dp2982
g12
I14046
sg13
g1663
sasg12
I14491
sg13
g1664
ssI14492
(dp2983
g1
(lp2984
(dp2985
g12
I13807
sg13
g1825
sa(dp2986
g12
I14137
sg13
g1827
sasg12
I14492
sg13
g1828
ssI14493
(dp2987
g1
(lp2988
(dp2989
g1
(lp2990
(dp2991
g12
I13819
sg13
g334
sa(dp2992
g12
I13822
sg13
g336
sasg12
I14343
sg13
g337
sa(dp2993
g1
(lp2994
(dp2995
g12
I13833
sg13
g341
sa(dp2996
g12
I14098
sg13
g343
sasg12
I14351
sg13
g344
sasg12
I14493
sg13
g345
ssI14494
(dp2997
g1
(lp2998
(dp2999
g1
(lp3000
(dp3001
g12
I13824
sg13
g1735
sa(dp3002
g12
I13901
sg13
g1737
sa(dp3003
g12
I13914
sg13
g1739
sa(dp3004
g12
I13915
sg13
g1741
sa(dp3005
g12
I13928
sg13
g1743
sa(dp3006
g12
I14088
sg13
g1745
sa(dp3007
g12
I14241
sg13
g1747
sasg12
I14346
sg13
g1748
sa(dp3008
g1
(lp3009
(dp3010
g12
I13843
sg13
g1752
sa(dp3011
g12
I13875
sg13
g1754
sa(dp3012
g12
I13877
sg13
g1756
sa(dp3013
g12
I14117
sg13
g1758
sasg12
I14358
sg13
g1759
sa(dp3014
g1
(lp3015
(dp3016
g12
I13869
sg13
g1763
sa(dp3017
g12
I13870
sg13
g1765
sa(dp3018
g12
I13902
sg13
g1767
sa(dp3019
g12
I13923
sg13
g1769
sa(dp3020
g12
I13935
sg13
g1771
sa(dp3021
g12
I14127
sg13
g1773
sasg12
I14370
sg13
g1774
sa(dp3022
g1
(lp3023
(dp3024
g12
I14030
sg13
g1778
sa(dp3025
g12
I14123
sg13
g1780
sasg12
I14408
sg13
g1781
sasg12
I14494
sg13
g1782
ssI14495
(dp3026
g1
(lp3027
(dp3028
g1
(lp3029
(dp3030
g12
I13825
sg13
g841
sa(dp3031
g12
I13976
sg13
g843
sa(dp3032
g12
I14060
sg13
g845
sasg12
I14347
sg13
g846
sa(dp3033
g1
(lp3034
(dp3035
g12
I13882
sg13
g850
sa(dp3036
g12
I13910
sg13
g852
sa(dp3037
g12
I14025
sg13
g854
sa(dp3038
g12
I14097
sg13
g856
sa(dp3039
g12
I14143
sg13
g858
sa(dp3040
g12
I14179
sg13
g860
sa(dp3041
g12
I14184
sg13
g862
sa(dp3042
g12
I14201
sg13
g864
sa(dp3043
g12
I14203
sg13
g866
sasg12
I14374
sg13
g867
sa(dp3044
g1
(lp3045
(dp3046
g12
I13940
sg13
g871
sa(dp3047
g12
I13963
sg13
g873
sa(dp3048
g12
I13997
sg13
g875
sa(dp3049
g12
I14068
sg13
g877
sa(dp3050
g12
I14093
sg13
g879
sa(dp3051
g12
I14103
sg13
g881
sa(dp3052
g12
I14134
sg13
g883
sa(dp3053
g12
I14150
sg13
g885
sasg12
I14393
sg13
g886
sasg12
I14495
sg13
g887
ssI14496
(dp3054
g1
(lp3055
(dp3056
g1
(lp3057
(dp3058
g12
I13834
sg13
g1803
sa(dp3059
g12
I13866
sg13
g1805
sa(dp3060
g12
I14239
sg13
g1807
sa(dp3061
g12
I14242
sg13
g1809
sasg12
I14352
sg13
g1810
sa(dp3062
g1
(lp3063
(dp3064
g12
I14234
sg13
g1814
sa(dp3065
g12
I14244
sg13
g1816
sasg12
I14436
sg13
g1817
sasg12
I14496
sg13
g1818
ssI14499
(dp3066
g1
(lp3067
(dp3068
g12
I13871
sg13
g1380
sa(dp3069
g1
(lp3070
(dp3071
g12
I13913
sg13
g1384
sa(dp3072
g12
I14124
sg13
g1386
sa(dp3073
g12
I14132
sg13
g1388
sa(dp3074
g12
I14178
sg13
g1390
sasg12
I14385
sg13
g1391
sa(dp3075
g1
(lp3076
(dp3077
g12
I13960
sg13
g1395
sa(dp3078
g12
I13978
sg13
g1397
sasg12
I14400
sg13
g1398
sa(dp3079
g1
(lp3080
(dp3081
g12
I14037
sg13
g1402
sa(dp3082
g12
I14043
sg13
g1404
sa(dp3083
g12
I14045
sg13
g1406
sasg12
I14409
sg13
g1407
sa(dp3084
g1
(lp3085
(dp3086
g12
I14079
sg13
g1411
sa(dp3087
g12
I14129
sg13
g1413
sa(dp3088
g12
I14152
sg13
g1415
sasg12
I14417
sg13
g1416
sasg12
I14499
sg13
g1417
ssI14501
(dp3089
g1
(lp3090
(dp3091
g12
I13943
sg13
g1614
sa(dp3092
g12
I14193
sg13
g1616
sasg12
I14501
sg13
g1617
ssI14504
(dp3093
g1
(lp3094
(dp3095
g12
I14131
sg13
g90
sa(dp3096
g12
I14198
sg13
g92
sasg12
I14504
sg13
g93
ssI14509
(dp3097
g1
(lp3098
(dp3099
g1
(lp3100
(dp3101
g12
I13676
sg13
g14
sa(dp3102
g12
I13966
sg13
g16
sa(dp3103
g12
I13990
sg13
g18
sa(dp3104
g12
I14011
sg13
g20
sa(dp3105
g12
I14047
sg13
g22
sa(dp3106
g12
I14100
sg13
g24
sa(dp3107
g12
I14169
sg13
g26
sasg12
I14248
sg13
g27
sa(dp3108
g1
(lp3109
(dp3110
g12
I14264
sg13
g36
sa(dp3111
g12
I14301
sg13
g45
sasg12
I14452
sg13
g46
sa(dp3112
g1
(lp3113
(dp3114
g12
I14304
sg13
g59
sa(dp3115
g12
I14381
sg13
g78
sasg12
I14478
sg13
g79
sa(dp3116
g1
(lp3117
(dp3118
g12
I13777
sg13
g83
sa(dp3119
g12
I13796
sg13
g85
sasg12
I14486
sg13
g86
sa(dp3120
g1
(lp3121
(dp3122
g12
I14131
sg13
g90
sa(dp3123
g12
I14198
sg13
g92
sasg12
I14504
sg13
g93
sasg12
I14509
sg13
g94
ssI14510
(dp3124
g1
(lp3125
(dp3126
g1
(lp3127
(dp3128
g12
I13677
sg13
g308
sa(dp3129
g12
I13693
sg13
g310
sa(dp3130
g12
I13760
sg13
g312
sasg12
I14249
sg13
g313
sa(dp3131
g1
(lp3132
(dp3133
g12
I13794
sg13
g317
sa(dp3134
g12
I13898
sg13
g319
sa(dp3135
g12
I13938
sg13
g321
sa(dp3136
g12
I14130
sg13
g323
sa(dp3137
g12
I14154
sg13
g325
sa(dp3138
g12
I14166
sg13
g327
sasg12
I14330
sg13
g328
sa(dp3139
g1
(lp3140
(dp3141
g12
I14343
sg13
g337
sa(dp3142
g12
I14351
sg13
g344
sasg12
I14493
sg13
g345
sasg12
I14510
sg13
g346
ssI14511
(dp3143
g1
(lp3144
(dp3145
g1
(lp3146
(dp3147
g12
I14250
sg13
g514
sa(dp3148
g12
I13982
sg13
g516
sasg12
I14439
sg13
g517
sa(dp3149
g1
(lp3150
(dp3151
g12
I14252
sg13
g528
sa(dp3152
g12
I14280
sg13
g541
sa(dp3153
g12
I14338
sg13
g552
sa(dp3154
g12
I14415
sg13
g563
sasg12
I14441
sg13
g564
sa(dp3155
g1
(lp3156
(dp3157
g12
I13700
sg13
g568
sa(dp3158
g12
I14293
sg13
g583
sa(dp3159
g12
I14344
sg13
g592
sa(dp3160
g12
I14373
sg13
g601
sasg12
I14457
sg13
g602
sa(dp3161
g1
(lp3162
(dp3163
g12
I14325
sg13
g623
sa(dp3164
g12
I14379
sg13
g638
sasg12
I14487
sg13
g639
sasg12
I14511
sg13
g640
ssI14512
(dp3165
g1
(lp3166
(dp3167
g1
(lp3168
(dp3169
g12
I14251
sg13
g907
sa(dp3170
g12
I14302
sg13
g922
sa(dp3171
g12
I14326
sg13
g937
sa(dp3172
g12
I14335
sg13
g956
sasg12
I14440
sg13
g957
sa(dp3173
g1
(lp3174
(dp3175
g12
I14276
sg13
g966
sa(dp3176
g12
I14311
sg13
g977
sa(dp3177
g12
I14413
sg13
g984
sasg12
I14461
sg13
g985
sasg12
I14512
sg13
g986
ssI14514
(dp3178
g1
(lp3179
(dp3180
g1
(lp3181
(dp3182
g12
I14254
sg13
g999
sa(dp3183
g12
I14363
sg13
g1008
sa(dp3184
g12
I14086
sg13
g1010
sasg12
I14443
sg13
g1011
sa(dp3185
g1
(lp3186
(dp3187
g12
I14269
sg13
g1024
sa(dp3188
g12
I14294
sg13
g1035
sasg12
I14456
sg13
g1036
sa(dp3189
g1
(lp3190
(dp3191
g12
I14285
sg13
g1045
sa(dp3192
g12
I14317
sg13
g1052
sa(dp3193
g12
I14365
sg13
g1063
sa(dp3194
g12
I14387
sg13
g1072
sa(dp3195
g12
I14076
sg13
g1074
sasg12
I14469
sg13
g1075
sasg12
I14514
sg13
g1076
ssI14515
(dp3196
g1
(lp3197
(dp3198
g1
(lp3199
(dp3200
g12
I14256
sg13
g1214
sa(dp3201
g12
I14369
sg13
g1221
sa(dp3202
g12
I13999
sg13
g1223
sasg12
I14444
sg13
g1224
sa(dp3203
g1
(lp3204
(dp3205
g12
I14320
sg13
g1235
sa(dp3206
g12
I13840
sg13
g1237
sasg12
I14484
sg13
g1238
sa(dp3207
g1
(lp3208
(dp3209
g12
I14322
sg13
g1247
sa(dp3210
g12
I14157
sg13
g1249
sa(dp3211
g12
I14195
sg13
g1251
sasg12
I14485
sg13
g1252
sa(dp3212
g1
(lp3213
(dp3214
g12
I13847
sg13
g1256
sa(dp3215
g12
I13849
sg13
g1258
sa(dp3216
g12
I14106
sg13
g1260
sa(dp3217
g12
I14144
sg13
g1262
sasg12
I14360
sg13
g1263
sasg12
I14515
sg13
g1264
ssI14516
(dp3218
g1
(lp3219
(dp3220
g1
(lp3221
(dp3222
g12
I14257
sg13
g1089
sa(dp3223
g12
I13726
sg13
g1091
sasg12
I14445
sg13
g1092
sa(dp3224
g1
(lp3225
(dp3226
g12
I14261
sg13
g1107
sa(dp3227
g12
I14384
sg13
g1114
sasg12
I14449
sg13
g1115
sa(dp3228
g1
(lp3229
(dp3230
g12
I14278
sg13
g1130
sa(dp3231
g12
I14364
sg13
g1137
sa(dp3232
g12
I13957
sg13
g1139
sasg12
I14463
sg13
g1140
sasg12
I14516
sg13
g1141
ssI14517
(dp3233
g1
(lp3234
(dp3235
g1
(lp3236
(dp3237
g12
I13686
sg13
g100
sa(dp3238
g12
I13788
sg13
g102
sa(dp3239
g12
I13874
sg13
g104
sa(dp3240
g12
I14044
sg13
g106
sa(dp3241
g12
I14053
sg13
g108
sasg12
I14258
sg13
g109
sa(dp3242
g1
(lp3243
(dp3244
g12
I14266
sg13
g122
sa(dp3245
g12
I14410
sg13
g129
sa(dp3246
g12
I14412
sg13
g144
sasg12
I14454
sg13
g145
sasg12
I14517
sg13
g146
ssI14518
(dp3247
g1
(lp3248
(dp3249
g1
(lp3250
(dp3251
g12
I14259
sg13
g1434
sa(dp3252
g12
I14350
sg13
g1441
sasg12
I14447
sg13
g1442
sa(dp3253
g12
I13784
sg13
g1444
sasg12
I14518
sg13
g1445
ssI14519
(dp3254
g1
(lp3255
(dp3256
g1
(lp3257
(dp3258
g12
I14260
sg13
g1519
sa(dp3259
g12
I14268
sg13
g1530
sa(dp3260
g12
I13861
sg13
g1532
sasg12
I14448
sg13
g1533
sa(dp3261
g1
(lp3262
(dp3263
g12
I14282
sg13
g1544
sa(dp3264
g12
I13953
sg13
g1546
sa(dp3265
g12
I14010
sg13
g1548
sa(dp3266
g12
I14419
sg13
g1557
sasg12
I14466
sg13
g1558
sasg12
I14519
sg13
g1559
ssI14520
(dp3267
g1
(lp3268
(dp3269
g1
(lp3270
(dp3271
g12
I14263
sg13
g1636
sa(dp3272
g12
I14383
sg13
g1643
sa(dp3273
g12
I13983
sg13
g1645
sasg12
I14451
sg13
g1646
sa(dp3274
g1
(lp3275
(dp3276
g12
I14334
sg13
g1661
sa(dp3277
g12
I14046
sg13
g1663
sasg12
I14491
sg13
g1664
sasg12
I14520
sg13
g1665
ssI14521
(dp3278
g1
(lp3279
(dp3280
g1
(lp3281
(dp3282
g12
I13694
sg13
g1671
sa(dp3283
g12
I13962
sg13
g1673
sasg12
I14265
sg13
g1674
sa(dp3284
g1
(lp3285
(dp3286
g12
I14273
sg13
g1683
sa(dp3287
g12
I14332
sg13
g1692
sa(dp3288
g12
I14375
sg13
g1705
sa(dp3289
g12
I13891
sg13
g1707
sa(dp3290
g12
I14191
sg13
g1709
sasg12
I14459
sg13
g1710
sa(dp3291
g1
(lp3292
(dp3293
g12
I14287
sg13
g1719
sa(dp3294
g12
I13931
sg13
g1721
sa(dp3295
g12
I14397
sg13
g1728
sasg12
I14470
sg13
g1729
sa(dp3296
g1
(lp3297
(dp3298
g12
I14346
sg13
g1748
sa(dp3299
g12
I14358
sg13
g1759
sa(dp3300
g12
I14370
sg13
g1774
sa(dp3301
g12
I14408
sg13
g1781
sasg12
I14494
sg13
g1782
sasg12
I14521
sg13
g1783
ssI14522
(dp3302
g1
(lp3303
(dp3304
g1
(lp3305
(dp3306
g12
I13696
sg13
g1147
sa(dp3307
g12
I14357
sg13
g1154
sa(dp3308
g12
I14407
sg13
g1165
sasg12
I14455
sg13
g1166
sa(dp3309
g1
(lp3310
(dp3311
g12
I13706
sg13
g1170
sa(dp3312
g12
I13763
sg13
g1172
sa(dp3313
g12
I13799
sg13
g1174
sa(dp3314
g12
I13907
sg13
g1176
sa(dp3315
g12
I14158
sg13
g1178
sasg12
I14277
sg13
g1179
sa(dp3316
g1
(lp3317
(dp3318
g12
I13713
sg13
g1183
sa(dp3319
g12
I13752
sg13
g1185
sa(dp3320
g12
I13795
sg13
g1187
sa(dp3321
g12
I13919
sg13
g1189
sa(dp3322
g12
I13975
sg13
g1191
sa(dp3323
g12
I14092
sg13
g1193
sasg12
I14281
sg13
g1194
sasg12
I14522
sg13
g1195
ssI14524
(dp3324
g1
(lp3325
(dp3326
g1
(lp3327
(dp3328
g12
I14262
sg13
g659
sa(dp3329
g12
I14270
sg13
g666
sa(dp3330
g12
I13732
sg13
g668
sa(dp3331
g12
I13808
sg13
g670
sa(dp3332
g12
I14362
sg13
g677
sa(dp3333
g12
I14391
sg13
g686
sasg12
I14450
sg13
g687
sa(dp3334
g1
(lp3335
(dp3336
g12
I14275
sg13
g704
sa(dp3337
g12
I14286
sg13
g713
sa(dp3338
g12
I14303
sg13
g724
sa(dp3339
g12
I14310
sg13
g743
sa(dp3340
g12
I14315
sg13
g760
sa(dp3341
g12
I14321
sg13
g769
sasg12
I14460
sg13
g770
sasg12
I14524
sg13
g771
ssI14526
(dp3342
g1
(lp3343
(dp3344
g1
(lp3345
(dp3346
g12
I14284
sg13
g198
sa(dp3347
g12
I14300
sg13
g205
sa(dp3348
g12
I14333
sg13
g212
sa(dp3349
g12
I14359
sg13
g221
sasg12
I14468
sg13
g222
sa(dp3350
g1
(lp3351
(dp3352
g12
I14312
sg13
g231
sa(dp3353
g12
I14316
sg13
g240
sa(dp3354
g12
I14323
sg13
g247
sa(dp3355
g12
I14341
sg13
g254
sasg12
I14482
sg13
g255
sa(dp3356
g1
(lp3357
(dp3358
g12
I14314
sg13
g264
sa(dp3359
g12
I13792
sg13
g266
sa(dp3360
g12
I14342
sg13
g275
sa(dp3361
g12
I14348
sg13
g284
sa(dp3362
g12
I14377
sg13
g295
sa(dp3363
g12
I14063
sg13
g297
sasg12
I14483
sg13
g298
sasg12
I14526
sg13
g299
ssI14527
(dp3364
g1
(lp3365
(dp3366
g1
(lp3367
(dp3368
g12
I14289
sg13
g1319
sa(dp3369
g12
I14319
sg13
g1332
sa(dp3370
g12
I14368
sg13
g1339
sa(dp3371
g12
I14389
sg13
g1348
sasg12
I14471
sg13
g1349
sa(dp3372
g1
(lp3373
(dp3374
g12
I14305
sg13
g1362
sa(dp3375
g12
I14306
sg13
g1375
sasg12
I14479
sg13
g1376
sa(dp3376
g1
(lp3377
(dp3378
g12
I13871
sg13
g1380
sa(dp3379
g12
I14385
sg13
g1391
sa(dp3380
g12
I14400
sg13
g1398
sa(dp3381
g12
I14409
sg13
g1407
sa(dp3382
g12
I14417
sg13
g1416
sasg12
I14499
sg13
g1417
sasg12
I14527
sg13
g1418
ssI14528
(dp3383
g1
(lp3384
(dp3385
g1
(lp3386
(dp3387
g12
I14290
sg13
g1456
sa(dp3388
g12
I13889
sg13
g1458
sasg12
I14472
sg13
g1459
sa(dp3389
g1
(lp3390
(dp3391
g12
I14233
sg13
g1463
sa(dp3392
g12
I14246
sg13
g1465
sasg12
I14435
sg13
g1466
sasg12
I14528
sg13
g1467
ssI14529
(dp3393
g1
(lp3394
(dp3395
g12
I13731
sg13
g1790
sa(dp3396
g1
(lp3397
(dp3398
g12
I13741
sg13
g1794
sa(dp3399
g12
I13927
sg13
g1796
sasg12
I14477
sg13
g1797
sa(dp3400
g1
(lp3401
(dp3402
g12
I14352
sg13
g1810
sa(dp3403
g12
I14436
sg13
g1817
sasg12
I14496
sg13
g1818
sasg12
I14529
sg13
g1819
ssI14530
(dp3404
g1
(lp3405
(dp3406
g1
(lp3407
(dp3408
g12
I14296
sg13
g1570
sa(dp3409
g12
I14160
sg13
g1572
sasg12
I14474
sg13
g1573
sa(dp3410
g1
(lp3411
(dp3412
g12
I13740
sg13
g1577
sa(dp3413
g12
I13827
sg13
g1579
sa(dp3414
g12
I14431
sg13
g1588
sasg12
I14476
sg13
g1589
sa(dp3415
g1
(lp3416
(dp3417
g12
I14307
sg13
g1598
sa(dp3418
g12
I14380
sg13
g1607
sa(dp3419
g12
I14220
sg13
g1609
sasg12
I14480
sg13
g1610
sa(dp3420
g1
(lp3421
(dp3422
g12
I13943
sg13
g1614
sa(dp3423
g12
I14193
sg13
g1616
sasg12
I14501
sg13
g1617
sasg12
I14530
sg13
g1618
ssI14531
(dp3424
g1
(lp3425
(dp3426
g1
(lp3427
(dp3428
g12
I14253
sg13
g422
sa(dp3429
g12
I14255
sg13
g431
sa(dp3430
g12
I14308
sg13
g438
sasg12
I14442
sg13
g439
sa(dp3431
g1
(lp3432
(dp3433
g12
I14297
sg13
g450
sa(dp3434
g12
I14318
sg13
g459
sa(dp3435
g12
I14340
sg13
g474
sa(dp3436
g12
I13909
sg13
g476
sa(dp3437
g12
I14386
sg13
g483
sa(dp3438
g12
I14432
sg13
g490
sasg12
I14475
sg13
g491
sasg12
I14531
sg13
g492
ssI14532
(dp3439
g1
(lp3440
(dp3441
g1
(lp3442
(dp3443
g12
I14309
sg13
g800
sa(dp3444
g12
I14313
sg13
g809
sa(dp3445
g12
I14355
sg13
g826
sasg12
I14481
sg13
g827
sa(dp3446
g1
(lp3447
(dp3448
g12
I13850
sg13
g831
sa(dp3449
g12
I13994
sg13
g833
sasg12
I14361
sg13
g834
sasg12
I14532
sg13
g835
ssI14533
(dp3450
g1
(lp3451
(dp3452
g1
(lp3453
(dp3454
g12
I13790
sg13
g1473
sa(dp3455
g12
I14434
sg13
g1480
sasg12
I14489
sg13
g1481
sa(dp3456
g1
(lp3457
(dp3458
g12
I13922
sg13
g1485
sa(dp3459
g12
I14039
sg13
g1487
sasg12
I14388
sg13
g1488
sa(dp3460
g1
(lp3461
(dp3462
g12
I13970
sg13
g1492
sa(dp3463
g12
I14066
sg13
g1494
sasg12
I14401
sg13
g1495
sasg12
I14533
sg13
g1496
ssI14534
(dp3464
g1
(lp3465
(dp3466
g1
(lp3467
(dp3468
g12
I13807
sg13
g1825
sa(dp3469
g12
I14137
sg13
g1827
sasg12
I14492
sg13
g1828
sa(dp3470
g12
I13996
sg13
g1830
sasg12
I14534
sg13
g1831
ssI14536
(dp3471
g1
(lp3472
(dp3473
g12
I14141
sg13
g1835
sa(dp3474
g12
I14149
sg13
g1837
sa(dp3475
g1
(lp3476
(dp3477
g12
I14161
sg13
g1841
sa(dp3478
g12
I14199
sg13
g1843
sasg12
I14426
sg13
g1844
sasg12
I14536
sg13
g1845
ssI14537
(dp3479
g1
(lp3480
(dp3481
g1
(lp3482
(dp3483
g12
I14248
sg13
g27
sa(dp3484
g12
I14452
sg13
g46
sa(dp3485
g12
I14478
sg13
g79
sa(dp3486
g12
I14486
sg13
g86
sa(dp3487
g12
I14504
sg13
g93
sasg12
I14509
sg13
g94
sa(dp3488
g1
(lp3489
(dp3490
g12
I14258
sg13
g109
sa(dp3491
g12
I14454
sg13
g145
sasg12
I14517
sg13
g146
sa(dp3492
g1
(lp3493
(dp3494
g12
I14279
sg13
g161
sa(dp3495
g12
I14295
sg13
g172
sa(dp3496
g12
I14354
sg13
g179
sa(dp3497
g12
I14399
sg13
g186
sasg12
I14464
sg13
g187
sa(dp3498
g1
(lp3499
(dp3500
g12
I14468
sg13
g222
sa(dp3501
g12
I14482
sg13
g255
sa(dp3502
g12
I14483
sg13
g298
sasg12
I14526
sg13
g299
sasg12
I14537
sg13
g300
ssI14538
(dp3503
g1
(lp3504
(dp3505
g1
(lp3506
(dp3507
g12
I14249
sg13
g313
sa(dp3508
g12
I14330
sg13
g328
sa(dp3509
g12
I14493
sg13
g345
sasg12
I14510
sg13
g346
sa(dp3510
g1
(lp3511
(dp3512
g12
I14283
sg13
g355
sa(dp3513
g12
I14339
sg13
g364
sa(dp3514
g12
I14345
sg13
g377
sa(dp3515
g12
I14367
sg13
g386
sa(dp3516
g12
I14372
sg13
g395
sa(dp3517
g12
I14394
sg13
g410
sasg12
I14467
sg13
g411
sa(dp3518
g1
(lp3519
(dp3520
g12
I14442
sg13
g439
sa(dp3521
g12
I14475
sg13
g491
sasg12
I14531
sg13
g492
sasg12
I14538
sg13
g493
ssI14539
(dp3522
g1
(lp3523
(dp3524
g1
(lp3525
(dp3526
g12
I14439
sg13
g517
sa(dp3527
g12
I14441
sg13
g564
sa(dp3528
g12
I14457
sg13
g602
sa(dp3529
g12
I14487
sg13
g639
sasg12
I14511
sg13
g640
sa(dp3530
g1
(lp3531
(dp3532
g12
I14450
sg13
g687
sa(dp3533
g12
I14460
sg13
g770
sasg12
I14524
sg13
g771
sa(dp3534
g1
(lp3535
(dp3536
g12
I14481
sg13
g827
sa(dp3537
g12
I14361
sg13
g834
sasg12
I14532
sg13
g835
sa(dp3538
g1
(lp3539
(dp3540
g12
I14347
sg13
g846
sa(dp3541
g12
I14374
sg13
g867
sa(dp3542
g12
I14393
sg13
g886
sasg12
I14495
sg13
g887
sasg12
I14539
sg13
g888
ssI14540
(dp3543
g1
(lp3544
(dp3545
g1
(lp3546
(dp3547
g12
I14440
sg13
g957
sa(dp3548
g12
I14461
sg13
g985
sasg12
I14512
sg13
g986
sa(dp3549
g1
(lp3550
(dp3551
g12
I14443
sg13
g1011
sa(dp3552
g12
I14456
sg13
g1036
sa(dp3553
g12
I14469
sg13
g1075
sasg12
I14514
sg13
g1076
sa(dp3554
g1
(lp3555
(dp3556
g12
I14445
sg13
g1092
sa(dp3557
g12
I14449
sg13
g1115
sa(dp3558
g12
I14463
sg13
g1140
sasg12
I14516
sg13
g1141
sa(dp3559
g1
(lp3560
(dp3561
g12
I14455
sg13
g1166
sa(dp3562
g12
I14277
sg13
g1179
sa(dp3563
g12
I14281
sg13
g1194
sasg12
I14522
sg13
g1195
sasg12
I14540
sg13
g1196
ssI14541
(dp3564
g1
(lp3565
(dp3566
g1
(lp3567
(dp3568
g12
I14444
sg13
g1224
sa(dp3569
g12
I14484
sg13
g1238
sa(dp3570
g12
I14485
sg13
g1252
sa(dp3571
g12
I14360
sg13
g1263
sasg12
I14515
sg13
g1264
sa(dp3572
g1
(lp3573
(dp3574
g12
I14272
sg13
g1287
sa(dp3575
g12
I14274
sg13
g1298
sa(dp3576
g12
I14353
sg13
g1307
sasg12
I14458
sg13
g1308
sa(dp3577
g1
(lp3578
(dp3579
g12
I14471
sg13
g1349
sa(dp3580
g12
I14479
sg13
g1376
sa(dp3581
g12
I14499
sg13
g1417
sasg12
I14527
sg13
g1418
sasg12
I14541
sg13
g1419
ssI14542
(dp3582
g1
(lp3583
(dp3584
g1
(lp3585
(dp3586
g12
I14447
sg13
g1442
sa(dp3587
g12
I13784
sg13
g1444
sasg12
I14518
sg13
g1445
sa(dp3588
g1
(lp3589
(dp3590
g12
I14472
sg13
g1459
sa(dp3591
g12
I14435
sg13
g1466
sasg12
I14528
sg13
g1467
sa(dp3592
g1
(lp3593
(dp3594
g12
I14489
sg13
g1481
sa(dp3595
g12
I14388
sg13
g1488
sa(dp3596
g12
I14401
sg13
g1495
sasg12
I14533
sg13
g1496
sasg12
I14542
sg13
g1497
ssI14543
(dp3597
g1
(lp3598
(dp3599
g1
(lp3600
(dp3601
g12
I14448
sg13
g1533
sa(dp3602
g12
I14466
sg13
g1558
sasg12
I14519
sg13
g1559
sa(dp3603
g1
(lp3604
(dp3605
g12
I14474
sg13
g1573
sa(dp3606
g12
I14476
sg13
g1589
sa(dp3607
g12
I14480
sg13
g1610
sa(dp3608
g12
I14501
sg13
g1617
sasg12
I14530
sg13
g1618
sasg12
I14543
sg13
g1619
ssI14544
(dp3609
g1
(lp3610
(dp3611
g1
(lp3612
(dp3613
g12
I14451
sg13
g1646
sa(dp3614
g12
I14491
sg13
g1664
sasg12
I14520
sg13
g1665
sa(dp3615
g1
(lp3616
(dp3617
g12
I14265
sg13
g1674
sa(dp3618
g12
I14459
sg13
g1710
sa(dp3619
g12
I14470
sg13
g1729
sa(dp3620
g12
I14494
sg13
g1782
sasg12
I14521
sg13
g1783
sasg12
I14544
sg13
g1784
ssI14545
(dp3621
g1
(lp3622
(dp3623
g1
(lp3624
(dp3625
g12
I13731
sg13
g1790
sa(dp3626
g12
I14477
sg13
g1797
sa(dp3627
g12
I14496
sg13
g1818
sasg12
I14529
sg13
g1819
sa(dp3628
g1
(lp3629
(dp3630
g12
I14492
sg13
g1828
sa(dp3631
g12
I13996
sg13
g1830
sasg12
I14534
sg13
g1831
sa(dp3632
g1
(lp3633
(dp3634
g12
I14141
sg13
g1835
sa(dp3635
g12
I14149
sg13
g1837
sa(dp3636
g12
I14426
sg13
g1844
sasg12
I14536
sg13
g1845
sasg12
I14545
sg13
g1846
ssI14546
(dp3637
g1
(lp3638
(dp3639
g1
(lp3640
(dp3641
g12
I14509
sg13
g94
sa(dp3642
g12
I14517
sg13
g146
sa(dp3643
g12
I14464
sg13
g187
sa(dp3644
g12
I14526
sg13
g299
sasg12
I14537
sg13
g300
sa(dp3645
g1
(lp3646
(dp3647
g12
I14510
sg13
g346
sa(dp3648
g12
I14467
sg13
g411
sa(dp3649
g12
I14531
sg13
g492
sasg12
I14538
sg13
g493
sa(dp3650
g1
(lp3651
(dp3652
g12
I14511
sg13
g640
sa(dp3653
g12
I14524
sg13
g771
sa(dp3654
g12
I14532
sg13
g835
sa(dp3655
g12
I14495
sg13
g887
sasg12
I14539
sg13
g888
sa(dp3656
g1
(lp3657
(dp3658
g12
I14512
sg13
g986
sa(dp3659
g12
I14514
sg13
g1076
sa(dp3660
g12
I14516
sg13
g1141
sa(dp3661
g12
I14522
sg13
g1195
sasg12
I14540
sg13
g1196
sasg12
I14546
sg13
g1197
ssI14547
(dp3662
g1
(lp3663
(dp3664
g1
(lp3665
(dp3666
g12
I14515
sg13
g1264
sa(dp3667
g12
I14458
sg13
g1308
sa(dp3668
g12
I14527
sg13
g1418
sasg12
I14541
sg13
g1419
sa(dp3669
g1
(lp3670
(dp3671
g12
I14518
sg13
g1445
sa(dp3672
g12
I14528
sg13
g1467
sa(dp3673
g12
I14533
sg13
g1496
sasg12
I14542
sg13
g1497
sasg12
I14547
sg13
g1498
ssI14548
(dp3674
g1
(lp3675
(dp3676
g1
(lp3677
(dp3678
g12
I14519
sg13
g1559
sa(dp3679
g12
I14530
sg13
g1618
sasg12
I14543
sg13
g1619
sa(dp3680
g1
(lp3681
(dp3682
g12
I14520
sg13
g1665
sa(dp3683
g12
I14521
sg13
g1783
sasg12
I14544
sg13
g1784
sa(dp3684
g1
(lp3685
(dp3686
g12
I14529
sg13
g1819
sa(dp3687
g12
I14534
sg13
g1831
sa(dp3688
g12
I14536
sg13
g1845
sasg12
I14545
sg13
g1846
sasg12
I14548
sg13
g1847
ssI14549
(dp3689
g1
(lp3690
(dp3691
g1
(lp3692
(dp3693
g12
I14537
sg13
g300
sa(dp3694
g12
I14538
sg13
g493
sa(dp3695
g12
I14539
sg13
g888
sa(dp3696
g12
I14540
sg13
g1196
sasg12
I14546
sg13
g1197
sa(dp3697
g1
(lp3698
(dp3699
g12
I14541
sg13
g1419
sa(dp3700
g12
I14542
sg13
g1497
sasg12
I14547
sg13
g1498
sa(dp3701
g1
(lp3702
(dp3703
g12
I14543
sg13
g1619
sa(dp3704
g12
I14544
sg13
g1784
sa(dp3705
g12
I14545
sg13
g1846
sasg12
I14548
sg13
g1847
sasg12
I14549
sg13
g1848
ssI13676
(dp3706
g12
I13676
sg13
g14
ssI13677
(dp3707
g12
I13677
sg13
g308
ssI13678
(dp3708
g12
I13678
sg13
g503
ssI13679
(dp3709
g12
I13679
sg13
g898
ssI13680
(dp3710
g12
I13680
sg13
g523
ssI13681
(dp3711
g12
I13681
sg13
g419
ssI13682
(dp3712
g12
I13682
sg13
g994
ssI13683
(dp3713
g12
I13683
sg13
g426
ssI13684
(dp3714
g12
I13684
sg13
g1209
ssI13685
(dp3715
g12
I13685
sg13
g1084
ssI13686
(dp3716
g12
I13686
sg13
g100
ssI13687
(dp3717
g12
I13687
sg13
g1429
ssI13688
(dp3718
g12
I13688
sg13
g1510
ssI13689
(dp3719
g12
I13689
sg13
g1098
ssI13690
(dp3720
g12
I13690
sg13
g648
ssI13691
(dp3721
g12
I13691
sg13
g1629
ssI13692
(dp3722
g12
I13692
sg13
g33
ssI13693
(dp3723
g12
I13693
sg13
g310
ssI13694
(dp3724
g12
I13694
sg13
g1671
ssI13695
(dp3725
g12
I13695
sg13
g115
ssI13696
(dp3726
g12
I13696
sg13
g1147
ssI13697
(dp3727
g12
I13697
sg13
g1523
ssI13698
(dp3728
g12
I13698
sg13
g1017
ssI13699
(dp3729
g12
I13699
sg13
g663
ssI13700
(dp3730
g12
I13700
sg13
g568
ssI13701
(dp3731
g12
I13701
sg13
g1270
ssI13702
(dp3732
g12
I13702
sg13
g1680
ssI13703
(dp3733
g12
I13703
sg13
g1291
ssI13704
(dp3734
g12
I13704
sg13
g693
ssI13705
(dp3735
g12
I13705
sg13
g963
ssI13706
(dp3736
g12
I13706
sg13
g1170
ssI13707
(dp3737
g12
I13707
sg13
g900
ssI13708
(dp3738
g12
I13708
sg13
g1121
ssI13709
(dp3739
g12
I13709
sg13
g1272
ssI13710
(dp3740
g12
I13710
sg13
g152
ssI13711
(dp3741
g12
I13711
sg13
g532
ssI13712
(dp3742
g12
I13712
sg13
g728
ssI13713
(dp3743
g12
I13713
sg13
g1183
ssI13714
(dp3744
g12
I13714
sg13
g1539
ssI13715
(dp3745
g12
I13715
sg13
g902
ssI13716
(dp3746
g12
I13716
sg13
g352
ssI13717
(dp3747
g12
I13717
sg13
g195
ssI13718
(dp3748
g12
I13718
sg13
g1019
ssI13719
(dp3749
g12
I13719
sg13
g1512
ssI13720
(dp3750
g12
I13720
sg13
g1042
ssI13721
(dp3751
g12
I13721
sg13
g1431
ssI13722
(dp3752
g12
I13722
sg13
g708
ssI13723
(dp3753
g12
I13723
sg13
g710
ssI13724
(dp3754
g12
I13724
sg13
g1716
ssI13725
(dp3755
g12
I13725
sg13
g1021
ssI13726
(dp3756
g12
I13726
sg13
g1091
ssI13727
(dp3757
g12
I13727
sg13
g1316
ssI13728
(dp3758
g12
I13728
sg13
g1274
ssI13729
(dp3759
g12
I13729
sg13
g1453
ssI13730
(dp3760
g12
I13730
sg13
g965
ssI13731
(dp3761
g12
I13731
sg13
g1790
ssI13732
(dp3762
g12
I13732
sg13
g668
ssI13733
(dp3763
g12
I13733
sg13
g572
ssI13734
(dp3764
g12
I13734
sg13
g1028
ssI13735
(dp3765
g12
I13735
sg13
g165
ssI13736
(dp3766
g12
I13736
sg13
g197
ssI13737
(dp3767
g12
I13737
sg13
g1567
ssI13738
(dp3768
g12
I13738
sg13
g445
ssI13739
(dp3769
g12
I13739
sg13
g154
ssI13740
(dp3770
g12
I13740
sg13
g1577
ssI13741
(dp3771
g12
I13741
sg13
g1794
ssI13742
(dp3772
g12
I13742
sg13
g202
ssI13743
(dp3773
g12
I13743
sg13
g40
ssI13744
(dp3774
g12
I13744
sg13
g911
ssI13745
(dp3775
g12
I13745
sg13
g650
ssI13746
(dp3776
g12
I13746
sg13
g717
ssI13747
(dp3777
g12
I13747
sg13
g52
ssI13748
(dp3778
g12
I13748
sg13
g428
ssI13749
(dp3779
g12
I13749
sg13
g1355
ssI13750
(dp3780
g12
I13750
sg13
g1366
ssI13751
(dp3781
g12
I13751
sg13
g1595
ssI13752
(dp3782
g12
I13752
sg13
g1185
ssI13753
(dp3783
g12
I13753
sg13
g435
ssI13754
(dp3784
g12
I13754
sg13
g779
ssI13755
(dp3785
g12
I13755
sg13
g730
ssI13756
(dp3786
g12
I13756
sg13
g1293
ssI13757
(dp3787
g12
I13757
sg13
g970
ssI13758
(dp3788
g12
I13758
sg13
g228
ssI13759
(dp3789
g12
I13759
sg13
g804
ssI13760
(dp3790
g12
I13760
sg13
g312
ssI13761
(dp3791
g12
I13761
sg13
g781
ssI13762
(dp3792
g12
I13762
sg13
g261
ssI13763
(dp3793
g12
I13763
sg13
g1172
ssI13764
(dp3794
g12
I13764
sg13
g117
ssI13765
(dp3795
g12
I13765
sg13
g747
ssI13766
(dp3796
g12
I13766
sg13
g749
ssI13767
(dp3797
g12
I13767
sg13
g235
ssI13768
(dp3798
g12
I13768
sg13
g1049
ssI13769
(dp3799
g12
I13769
sg13
g237
ssI13770
(dp3800
g12
I13770
sg13
g454
ssI13771
(dp3801
g12
I13771
sg13
g1323
ssI13772
(dp3802
g12
I13772
sg13
g719
ssI13773
(dp3803
g12
I13773
sg13
g1230
ssI13774
(dp3804
g12
I13774
sg13
g764
ssI13775
(dp3805
g12
I13775
sg13
g1244
ssI13776
(dp3806
g12
I13776
sg13
g244
ssI13777
(dp3807
g12
I13777
sg13
g83
ssI13778
(dp3808
g12
I13778
sg13
g608
ssI13779
(dp3809
g12
I13779
sg13
g1044
ssI13780
(dp3810
g12
I13780
sg13
g926
ssI13781
(dp3811
g12
I13781
sg13
g1295
ssI13782
(dp3812
g12
I13782
sg13
g652
ssI13783
(dp3813
g12
I13783
sg13
g119
ssI13784
(dp3814
g12
I13784
sg13
g1444
ssI13785
(dp3815
g12
I13785
sg13
g1682
ssI13786
(dp3816
g12
I13786
sg13
g1030
ssI13787
(dp3817
g12
I13787
sg13
g1276
ssI13788
(dp3818
g12
I13788
sg13
g102
ssI13789
(dp3819
g12
I13789
sg13
g665
ssI13790
(dp3820
g12
I13790
sg13
g1473
ssI13791
(dp3821
g12
I13791
sg13
g972
ssI13792
(dp3822
g12
I13792
sg13
g266
ssI13793
(dp3823
g12
I13793
sg13
g732
ssI13794
(dp3824
g12
I13794
sg13
g317
ssI13795
(dp3825
g12
I13795
sg13
g1187
ssI13796
(dp3826
g12
I13796
sg13
g85
ssI13797
(dp3827
g12
I13797
sg13
g1687
ssI13798
(dp3828
g12
I13798
sg13
g695
ssI13799
(dp3829
g12
I13799
sg13
g1174
ssI13800
(dp3830
g12
I13800
sg13
g209
ssI13801
(dp3831
g12
I13801
sg13
g211
ssI13802
(dp3832
g12
I13802
sg13
g1652
ssI13803
(dp3833
g12
I13803
sg13
g806
ssI13804
(dp3834
g12
I13804
sg13
g941
ssI13805
(dp3835
g12
I13805
sg13
g734
ssI13806
(dp3836
g12
I13806
sg13
g534
ssI13807
(dp3837
g12
I13807
sg13
g1825
ssI13808
(dp3838
g12
I13808
sg13
g670
ssI13809
(dp3839
g12
I13809
sg13
g1525
ssI13810
(dp3840
g12
I13810
sg13
g447
ssI13811
(dp3841
g12
I13811
sg13
g545
ssI13812
(dp3842
g12
I13812
sg13
g239
ssI13813
(dp3843
g12
I13813
sg13
g974
ssI13814
(dp3844
g12
I13814
sg13
g359
ssI13815
(dp3845
g12
I13815
sg13
g463
ssI13816
(dp3846
g12
I13816
sg13
g251
ssI13817
(dp3847
g12
I13817
sg13
g270
ssI13818
(dp3848
g12
I13818
sg13
g421
ssI13819
(dp3849
g12
I13819
sg13
g334
ssI13820
(dp3850
g12
I13820
sg13
g1123
ssI13821
(dp3851
g12
I13821
sg13
g587
ssI13822
(dp3852
g12
I13822
sg13
g336
ssI13823
(dp3853
g12
I13823
sg13
g368
ssI13824
(dp3854
g12
I13824
sg13
g1735
ssI13825
(dp3855
g12
I13825
sg13
g841
ssI13826
(dp3856
g12
I13826
sg13
g279
ssI13827
(dp3857
g12
I13827
sg13
g1579
ssI13828
(dp3858
g12
I13828
sg13
g1357
ssI13829
(dp3859
g12
I13829
sg13
g1438
ssI13830
(dp3860
g12
I13830
sg13
g253
ssI13831
(dp3861
g12
I13831
sg13
g449
ssI13832
(dp3862
g12
I13832
sg13
g751
ssI13833
(dp3863
g12
I13833
sg13
g341
ssI13834
(dp3864
g12
I13834
sg13
g1803
ssI13835
(dp3865
g12
I13835
sg13
g1302
ssI13836
(dp3866
g12
I13836
sg13
g1304
ssI13837
(dp3867
g12
I13837
sg13
g167
ssI13838
(dp3868
g12
I13838
sg13
g176
ssI13839
(dp3869
g12
I13839
sg13
g813
ssI13840
(dp3870
g12
I13840
sg13
g1237
ssI13841
(dp3871
g12
I13841
sg13
g1151
ssI13842
(dp3872
g12
I13842
sg13
g1153
ssI13843
(dp3873
g12
I13843
sg13
g1752
ssI13844
(dp3874
g12
I13844
sg13
g281
ssI13845
(dp3875
g12
I13845
sg13
g216
ssI13846
(dp3876
g12
I13846
sg13
g976
ssI13847
(dp3877
g12
I13847
sg13
g1256
ssI13848
(dp3878
g12
I13848
sg13
g230
ssI13849
(dp3879
g12
I13849
sg13
g1258
ssI13850
(dp3880
g12
I13850
sg13
g831
ssI13851
(dp3881
g12
I13851
sg13
g1232
ssI13852
(dp3882
g12
I13852
sg13
g674
ssI13853
(dp3883
g12
I13853
sg13
g437
ssI13854
(dp3884
g12
I13854
sg13
g676
ssI13855
(dp3885
g12
I13855
sg13
g1003
ssI13856
(dp3886
g12
I13856
sg13
g354
ssI13857
(dp3887
g12
I13857
sg13
g547
ssI13858
(dp3888
g12
I13858
sg13
g536
ssI13859
(dp3889
g12
I13859
sg13
g1134
ssI13860
(dp3890
g12
I13860
sg13
g1056
ssI13861
(dp3891
g12
I13861
sg13
g1532
ssI13862
(dp3892
g12
I13862
sg13
g913
ssI13863
(dp3893
g12
I13863
sg13
g156
ssI13864
(dp3894
g12
I13864
sg13
g381
ssI13865
(dp3895
g12
I13865
sg13
g1336
ssI13866
(dp3896
g12
I13866
sg13
g1805
ssI13867
(dp3897
g12
I13867
sg13
g1218
ssI13868
(dp3898
g12
I13868
sg13
g783
ssI13869
(dp3899
g12
I13869
sg13
g1763
ssI13870
(dp3900
g12
I13870
sg13
g1765
ssI13871
(dp3901
g12
I13871
sg13
g1380
ssI13872
(dp3902
g12
I13872
sg13
g1234
ssI13873
(dp3903
g12
I13873
sg13
g361
ssI13874
(dp3904
g12
I13874
sg13
g104
ssI13875
(dp3905
g12
I13875
sg13
g1754
ssI13876
(dp3906
g12
I13876
sg13
g815
ssI13877
(dp3907
g12
I13877
sg13
g1756
ssI13878
(dp3908
g12
I13878
sg13
g1514
ssI13879
(dp3909
g12
I13879
sg13
g390
ssI13880
(dp3910
g12
I13880
sg13
g596
ssI13881
(dp3911
g12
I13881
sg13
g204
ssI13882
(dp3912
g12
I13882
sg13
g850
ssI13883
(dp3913
g12
I13883
sg13
g1696
ssI13884
(dp3914
g12
I13884
sg13
g654
ssI13885
(dp3915
g12
I13885
sg13
g1306
ssI13886
(dp3916
g12
I13886
sg13
g178
ssI13887
(dp3917
g12
I13887
sg13
g54
ssI13888
(dp3918
g12
I13888
sg13
g753
ssI13889
(dp3919
g12
I13889
sg13
g1458
ssI13890
(dp3920
g12
I13890
sg13
g288
ssI13891
(dp3921
g12
I13891
sg13
g1707
ssI13892
(dp3922
g12
I13892
sg13
g943
ssI13893
(dp3923
g12
I13893
sg13
g283
ssI13894
(dp3924
g12
I13894
sg13
g218
ssI13895
(dp3925
g12
I13895
sg13
g736
ssI13896
(dp3926
g12
I13896
sg13
g290
ssI13897
(dp3927
g12
I13897
sg13
g627
ssI13898
(dp3928
g12
I13898
sg13
g319
ssI13899
(dp3929
g12
I13899
sg13
g158
ssI13900
(dp3930
g12
I13900
sg13
g1602
ssI13901
(dp3931
g12
I13901
sg13
g1737
ssI13902
(dp3932
g12
I13902
sg13
g1767
ssI13903
(dp3933
g12
I13903
sg13
g1051
ssI13904
(dp3934
g12
I13904
sg13
g63
ssI13905
(dp3935
g12
I13905
sg13
g817
ssI13906
(dp3936
g12
I13906
sg13
g915
ssI13907
(dp3937
g12
I13907
sg13
g1176
ssI13908
(dp3938
g12
I13908
sg13
g1023
ssI13909
(dp3939
g12
I13909
sg13
g476
ssI13910
(dp3940
g12
I13910
sg13
g852
ssI13911
(dp3941
g12
I13911
sg13
g1640
ssI13912
(dp3942
g12
I13912
sg13
g1111
ssI13913
(dp3943
g12
I13913
sg13
g1384
ssI13914
(dp3944
g12
I13914
sg13
g1739
ssI13915
(dp3945
g12
I13915
sg13
g1741
ssI13916
(dp3946
g12
I13916
sg13
g629
ssI13917
(dp3947
g12
I13917
sg13
g480
ssI13918
(dp3948
g12
I13918
sg13
g1086
ssI13919
(dp3949
g12
I13919
sg13
g1189
ssI13920
(dp3950
g12
I13920
sg13
g1067
ssI13921
(dp3951
g12
I13921
sg13
g917
ssI13922
(dp3952
g12
I13922
sg13
g1485
ssI13923
(dp3953
g12
I13923
sg13
g1769
ssI13924
(dp3954
g12
I13924
sg13
g1368
ssI13925
(dp3955
g12
I13925
sg13
g1088
ssI13926
(dp3956
g12
I13926
sg13
g1343
ssI13927
(dp3957
g12
I13927
sg13
g1796
ssI13928
(dp3958
g12
I13928
sg13
g1743
ssI13929
(dp3959
g12
I13929
sg13
g1338
ssI13930
(dp3960
g12
I13930
sg13
g681
ssI13931
(dp3961
g12
I13931
sg13
g1721
ssI13932
(dp3962
g12
I13932
sg13
g465
ssI13933
(dp3963
g12
I13933
sg13
g1220
ssI13934
(dp3964
g12
I13934
sg13
g56
ssI13935
(dp3965
g12
I13935
sg13
g1771
ssI13936
(dp3966
g12
I13936
sg13
g785
ssI13937
(dp3967
g12
I13937
sg13
g363
ssI13938
(dp3968
g12
I13938
sg13
g321
ssI13939
(dp3969
g12
I13939
sg13
g904
ssI13940
(dp3970
g12
I13940
sg13
g871
ssI13941
(dp3971
g12
I13941
sg13
g1654
ssI13942
(dp3972
g12
I13942
sg13
g399
ssI13943
(dp3973
g12
I13943
sg13
g1614
ssI13944
(dp3974
g12
I13944
sg13
g525
ssI13945
(dp3975
g12
I13945
sg13
g1569
ssI13946
(dp3976
g12
I13946
sg13
g610
ssI13947
(dp3977
g12
I13947
sg13
g589
ssI13948
(dp3978
g12
I13948
sg13
g945
ssI13949
(dp3979
g12
I13949
sg13
g766
ssI13950
(dp3980
g12
I13950
sg13
g928
ssI13951
(dp3981
g12
I13951
sg13
g787
ssI13952
(dp3982
g12
I13952
sg13
g712
ssI13953
(dp3983
g12
I13953
sg13
g1546
ssI13954
(dp3984
g12
I13954
sg13
g1604
ssI13955
(dp3985
g12
I13955
sg13
g1725
ssI13956
(dp3986
g12
I13956
sg13
g1359
ssI13957
(dp3987
g12
I13957
sg13
g1139
ssI13958
(dp3988
g12
I13958
sg13
g370
ssI13959
(dp3989
g12
I13959
sg13
g183
ssI13960
(dp3990
g12
I13960
sg13
g1395
ssI13961
(dp3991
g12
I13961
sg13
g789
ssI13962
(dp3992
g12
I13962
sg13
g1673
ssI13963
(dp3993
g12
I13963
sg13
g873
ssI13964
(dp3994
g12
I13964
sg13
g598
ssI13965
(dp3995
g12
I13965
sg13
g1100
ssI13966
(dp3996
g12
I13966
sg13
g16
ssI13967
(dp3997
g12
I13967
sg13
g1113
ssI13968
(dp3998
g12
I13968
sg13
g1345
ssI13969
(dp3999
g12
I13969
sg13
g169
ssI13970
(dp4000
g12
I13970
sg13
g1492
ssI13971
(dp4001
g12
I13971
sg13
g538
ssI13972
(dp4002
g12
I13972
sg13
g65
ssI13973
(dp4003
g12
I13973
sg13
g631
ssI13974
(dp4004
g12
I13974
sg13
g1278
ssI13975
(dp4005
g12
I13975
sg13
g1191
ssI13976
(dp4006
g12
I13976
sg13
g843
ssI13977
(dp4007
g12
I13977
sg13
g1370
ssI13978
(dp4008
g12
I13978
sg13
g1397
ssI13979
(dp4009
g12
I13979
sg13
g819
ssI13980
(dp4010
g12
I13980
sg13
g456
ssI13981
(dp4011
g12
I13981
sg13
g1698
ssI13982
(dp4012
g12
I13982
sg13
g516
ssI13983
(dp4013
g12
I13983
sg13
g1645
ssI13984
(dp4014
g12
I13984
sg13
g58
ssI13985
(dp4015
g12
I13985
sg13
g1318
ssI13986
(dp4016
g12
I13986
sg13
g633
ssI13987
(dp4017
g12
I13987
sg13
g612
ssI13988
(dp4018
g12
I13988
sg13
g1005
ssI13989
(dp4019
g12
I13989
sg13
g401
ssI13990
(dp4020
g12
I13990
sg13
g18
ssI13991
(dp4021
g12
I13991
sg13
g1700
ssI13992
(dp4022
g12
I13992
sg13
g467
ssI13993
(dp4023
g12
I13993
sg13
g574
ssI13994
(dp4024
g12
I13994
sg13
g833
ssI13995
(dp4025
g12
I13995
sg13
g576
ssI13996
(dp4026
g12
I13996
sg13
g1830
ssI13997
(dp4027
g12
I13997
sg13
g875
ssI13998
(dp4028
g12
I13998
sg13
g220
ssI13999
(dp4029
g12
I13999
sg13
g1223
ssI14000
(dp4030
g12
I14000
sg13
g1656
ssI14001
(dp4031
g12
I14001
sg13
g683
ssI14002
(dp4032
g12
I14002
sg13
g791
ssI14003
(dp4033
g12
I14003
sg13
g919
ssI14004
(dp4034
g12
I14004
sg13
g1516
ssI14005
(dp4035
g12
I14005
sg13
g1541
ssI14006
(dp4036
g12
I14006
sg13
g614
ssI14007
(dp4037
g12
I14007
sg13
g793
ssI14008
(dp4038
g12
I14008
sg13
g1631
ssI14009
(dp4039
g12
I14009
sg13
g578
ssI14010
(dp4040
g12
I14010
sg13
g1548
ssI14011
(dp4041
g12
I14011
sg13
g20
ssI14012
(dp4042
g12
I14012
sg13
g821
ssI14013
(dp4043
g12
I14013
sg13
g171
ssI14014
(dp4044
g12
I14014
sg13
g1007
ssI14015
(dp4045
g12
I14015
sg13
g656
ssI14016
(dp4046
g12
I14016
sg13
g1702
ssI14017
(dp4047
g12
I14017
sg13
g430
ssI14018
(dp4048
g12
I14018
sg13
g1058
ssI14019
(dp4049
g12
I14019
sg13
g1689
ssI14020
(dp4050
g12
I14020
sg13
g1069
ssI14021
(dp4051
g12
I14021
sg13
g549
ssI14022
(dp4052
g12
I14022
sg13
g505
ssI14023
(dp4053
g12
I14023
sg13
g507
ssI14024
(dp4054
g12
I14024
sg13
g1347
ssI14025
(dp4055
g12
I14025
sg13
g854
ssI14026
(dp4056
g12
I14026
sg13
g823
ssI14027
(dp4057
g12
I14027
sg13
g1158
ssI14028
(dp4058
g12
I14028
sg13
g1280
ssI14029
(dp4059
g12
I14029
sg13
g1160
ssI14030
(dp4060
g12
I14030
sg13
g1778
ssI14031
(dp4061
g12
I14031
sg13
g1361
ssI14032
(dp4062
g12
I14032
sg13
g1060
ssI14033
(dp4063
g12
I14033
sg13
g738
ssI14034
(dp4064
g12
I14034
sg13
g1282
ssI14035
(dp4065
g12
I14035
sg13
g616
ssI14036
(dp4066
g12
I14036
sg13
g755
ssI14037
(dp4067
g12
I14037
sg13
g1402
ssI14038
(dp4068
g12
I14038
sg13
g1102
ssI14039
(dp4069
g12
I14039
sg13
g1487
ssI14040
(dp4070
g12
I14040
sg13
g126
ssI14041
(dp4071
g12
I14041
sg13
g768
ssI14042
(dp4072
g12
I14042
sg13
g906
ssI14043
(dp4073
g12
I14043
sg13
g1404
ssI14044
(dp4074
g12
I14044
sg13
g106
ssI14045
(dp4075
g12
I14045
sg13
g1406
ssI14046
(dp4076
g12
I14046
sg13
g1663
ssI14047
(dp4077
g12
I14047
sg13
g22
ssI14048
(dp4078
g12
I14048
sg13
g1162
ssI14049
(dp4079
g12
I14049
sg13
g133
ssI14050
(dp4080
g12
I14050
sg13
g1440
ssI14051
(dp4081
g12
I14051
sg13
g35
ssI14052
(dp4082
g12
I14052
sg13
g42
ssI14053
(dp4083
g12
I14053
sg13
g108
ssI14054
(dp4084
g12
I14054
sg13
g392
ssI14055
(dp4085
g12
I14055
sg13
g135
ssI14056
(dp4086
g12
I14056
sg13
g272
ssI14057
(dp4087
g12
I14057
sg13
g1032
ssI14058
(dp4088
g12
I14058
sg13
g372
ssI14059
(dp4089
g12
I14059
sg13
g981
ssI14060
(dp4090
g12
I14060
sg13
g845
ssI14061
(dp4091
g12
I14061
sg13
g403
ssI14062
(dp4092
g12
I14062
sg13
g1284
ssI14063
(dp4093
g12
I14063
sg13
g297
ssI14064
(dp4094
g12
I14064
sg13
g556
ssI14065
(dp4095
g12
I14065
sg13
g757
ssI14066
(dp4096
g12
I14066
sg13
g1494
ssI14067
(dp4097
g12
I14067
sg13
g697
ssI14068
(dp4098
g12
I14068
sg13
g877
ssI14069
(dp4099
g12
I14069
sg13
g996
ssI14070
(dp4100
g12
I14070
sg13
g1104
ssI14071
(dp4101
g12
I14071
sg13
g759
ssI14072
(dp4102
g12
I14072
sg13
g482
ssI14073
(dp4103
g12
I14073
sg13
g998
ssI14074
(dp4104
g12
I14074
sg13
g185
ssI14075
(dp4105
g12
I14075
sg13
g1543
ssI14076
(dp4106
g12
I14076
sg13
g1074
ssI14077
(dp4107
g12
I14077
sg13
g1136
ssI14078
(dp4108
g12
I14078
sg13
g930
ssI14079
(dp4109
g12
I14079
sg13
g1411
ssI14080
(dp4110
g12
I14080
sg13
g932
ssI14081
(dp4111
g12
I14081
sg13
g383
ssI14082
(dp4112
g12
I14082
sg13
g469
ssI14083
(dp4113
g12
I14083
sg13
g263
ssI14084
(dp4114
g12
I14084
sg13
g1718
ssI14085
(dp4115
g12
I14085
sg13
g1125
ssI14086
(dp4116
g12
I14086
sg13
g1010
ssI14087
(dp4117
g12
I14087
sg13
g67
ssI14088
(dp4118
g12
I14088
sg13
g1745
ssI14089
(dp4119
g12
I14089
sg13
g1325
ssI14090
(dp4120
g12
I14090
sg13
g1552
ssI14091
(dp4121
g12
I14091
sg13
g1455
ssI14092
(dp4122
g12
I14092
sg13
g1193
ssI14093
(dp4123
g12
I14093
sg13
g879
ssI14094
(dp4124
g12
I14094
sg13
g1062
ssI14095
(dp4125
g12
I14095
sg13
g551
ssI14096
(dp4126
g12
I14096
sg13
g699
ssI14097
(dp4127
g12
I14097
sg13
g856
ssI14098
(dp4128
g12
I14098
sg13
g343
ssI14099
(dp4129
g12
I14099
sg13
g1164
ssI14100
(dp4130
g12
I14100
sg13
g24
ssI14101
(dp4131
g12
I14101
sg13
g1286
ssI14102
(dp4132
g12
I14102
sg13
g246
ssI14103
(dp4133
g12
I14103
sg13
g881
ssI14104
(dp4134
g12
I14104
sg13
g1327
ssI14105
(dp4135
g12
I14105
sg13
g458
ssI14106
(dp4136
g12
I14106
sg13
g1260
ssI14107
(dp4137
g12
I14107
sg13
g1433
ssI14108
(dp4138
g12
I14108
sg13
g618
ssI14109
(dp4139
g12
I14109
sg13
g558
ssI14110
(dp4140
g12
I14110
sg13
g1642
ssI14111
(dp4141
g12
I14111
sg13
g825
ssI14112
(dp4142
g12
I14112
sg13
g1127
ssI14113
(dp4143
g12
I14113
sg13
g44
ssI14114
(dp4144
g12
I14114
sg13
g560
ssI14115
(dp4145
g12
I14115
sg13
g934
ssI14116
(dp4146
g12
I14116
sg13
g600
ssI14117
(dp4147
g12
I14117
sg13
g1758
ssI14118
(dp4148
g12
I14118
sg13
g721
ssI14119
(dp4149
g12
I14119
sg13
g1329
ssI14120
(dp4150
g12
I14120
sg13
g1606
ssI14121
(dp4151
g12
I14121
sg13
g947
ssI14122
(dp4152
g12
I14122
sg13
g620
ssI14123
(dp4153
g12
I14123
sg13
g1780
ssI14124
(dp4154
g12
I14124
sg13
g1386
ssI14125
(dp4155
g12
I14125
sg13
g685
ssI14126
(dp4156
g12
I14126
sg13
g983
ssI14127
(dp4157
g12
I14127
sg13
g1773
ssI14128
(dp4158
g12
I14128
sg13
g658
ssI14129
(dp4159
g12
I14129
sg13
g1413
ssI14130
(dp4160
g12
I14130
sg13
g323
ssI14131
(dp4161
g12
I14131
sg13
g90
ssI14132
(dp4162
g12
I14132
sg13
g1388
ssI14133
(dp4163
g12
I14133
sg13
g701
ssI14134
(dp4164
g12
I14134
sg13
g883
ssI14135
(dp4165
g12
I14135
sg13
g949
ssI14136
(dp4166
g12
I14136
sg13
g137
ssI14137
(dp4167
g12
I14137
sg13
g1827
ssI14138
(dp4168
g12
I14138
sg13
g1106
ssI14139
(dp4169
g12
I14139
sg13
g471
ssI14140
(dp4170
g12
I14140
sg13
g69
ssI14141
(dp4171
g12
I14141
sg13
g1835
ssI14142
(dp4172
g12
I14142
sg13
g723
ssI14143
(dp4173
g12
I14143
sg13
g858
ssI14144
(dp4174
g12
I14144
sg13
g1262
ssI14145
(dp4175
g12
I14145
sg13
g580
ssI14146
(dp4176
g12
I14146
sg13
g951
ssI14147
(dp4177
g12
I14147
sg13
g1704
ssI14148
(dp4178
g12
I14148
sg13
g160
ssI14149
(dp4179
g12
I14149
sg13
g1837
ssI14150
(dp4180
g12
I14150
sg13
g885
ssI14151
(dp4181
g12
I14151
sg13
g591
ssI14152
(dp4182
g12
I14152
sg13
g1415
ssI14153
(dp4183
g12
I14153
sg13
g374
ssI14154
(dp4184
g12
I14154
sg13
g325
ssI14155
(dp4185
g12
I14155
sg13
g139
ssI14156
(dp4186
g12
I14156
sg13
g509
ssI14157
(dp4187
g12
I14157
sg13
g1249
ssI14158
(dp4188
g12
I14158
sg13
g1178
ssI14159
(dp4189
g12
I14159
sg13
g540
ssI14160
(dp4190
g12
I14160
sg13
g1572
ssI14161
(dp4191
g12
I14161
sg13
g1841
ssI14162
(dp4192
g12
I14162
sg13
g385
ssI14163
(dp4193
g12
I14163
sg13
g740
ssI14164
(dp4194
g12
I14164
sg13
g635
ssI14165
(dp4195
g12
I14165
sg13
g742
ssI14166
(dp4196
g12
I14166
sg13
g327
ssI14167
(dp4197
g12
I14167
sg13
g1633
ssI14168
(dp4198
g12
I14168
sg13
g71
ssI14169
(dp4199
g12
I14169
sg13
g26
ssI14170
(dp4200
g12
I14170
sg13
g795
ssI14171
(dp4201
g12
I14171
sg13
g511
ssI14172
(dp4202
g12
I14172
sg13
g637
ssI14173
(dp4203
g12
I14173
sg13
g1297
ssI14174
(dp4204
g12
I14174
sg13
g703
ssI14175
(dp4205
g12
I14175
sg13
g1034
ssI14176
(dp4206
g12
I14176
sg13
g292
ssI14177
(dp4207
g12
I14177
sg13
g797
ssI14178
(dp4208
g12
I14178
sg13
g1390
ssI14179
(dp4209
g12
I14179
sg13
g860
ssI14180
(dp4210
g12
I14180
sg13
g1331
ssI14181
(dp4211
g12
I14181
sg13
g1554
ssI14182
(dp4212
g12
I14182
sg13
g405
ssI14183
(dp4213
g12
I14183
sg13
g394
ssI14184
(dp4214
g12
I14184
sg13
g862
ssI14185
(dp4215
g12
I14185
sg13
g1518
ssI14186
(dp4216
g12
I14186
sg13
g1372
ssI14187
(dp4217
g12
I14187
sg13
g1211
ssI14188
(dp4218
g12
I14188
sg13
g562
ssI14189
(dp4219
g12
I14189
sg13
g141
ssI14190
(dp4220
g12
I14190
sg13
g622
ssI14191
(dp4221
g12
I14191
sg13
g1709
ssI14192
(dp4222
g12
I14192
sg13
g1658
ssI14193
(dp4223
g12
I14193
sg13
g1616
ssI14194
(dp4224
g12
I14194
sg13
g274
ssI14195
(dp4225
g12
I14195
sg13
g1251
ssI14196
(dp4226
g12
I14196
sg13
g1727
ssI14197
(dp4227
g12
I14197
sg13
g1635
ssI14198
(dp4228
g12
I14198
sg13
g92
ssI14199
(dp4229
g12
I14199
sg13
g1843
ssI14200
(dp4230
g12
I14200
sg13
g1660
ssI14201
(dp4231
g12
I14201
sg13
g864
ssI14202
(dp4232
g12
I14202
sg13
g513
ssI14203
(dp4233
g12
I14203
sg13
g866
ssI14204
(dp4234
g12
I14204
sg13
g73
ssI14205
(dp4235
g12
I14205
sg13
g1213
ssI14206
(dp4236
g12
I14206
sg13
g1691
ssI14207
(dp4237
g12
I14207
sg13
g808
ssI14208
(dp4238
g12
I14208
sg13
g1071
ssI14209
(dp4239
g12
I14209
sg13
g294
ssI14210
(dp4240
g12
I14210
sg13
g1129
ssI14211
(dp4241
g12
I14211
sg13
g1583
ssI14212
(dp4242
g12
I14212
sg13
g121
ssI14213
(dp4243
g12
I14213
sg13
g936
ssI14214
(dp4244
g12
I14214
sg13
g1585
ssI14215
(dp4245
g12
I14215
sg13
g487
ssI14216
(dp4246
g12
I14216
sg13
g1246
ssI14217
(dp4247
g12
I14217
sg13
g128
ssI14218
(dp4248
g12
I14218
sg13
g1374
ssI14219
(dp4249
g12
I14219
sg13
g1527
ssI14220
(dp4250
g12
I14220
sg13
g1609
ssI14221
(dp4251
g12
I14221
sg13
g407
ssI14222
(dp4252
g12
I14222
sg13
g1529
ssI14223
(dp4253
g12
I14223
sg13
g1587
ssI14224
(dp4254
g12
I14224
sg13
g921
ssI14225
(dp4255
g12
I14225
sg13
g799
ssI14226
(dp4256
g12
I14226
sg13
g376
ssI14227
(dp4257
g12
I14227
sg13
g75
ssI14228
(dp4258
g12
I14228
sg13
g473
ssI14229
(dp4259
g12
I14229
sg13
g953
ssI14230
(dp4260
g12
I14230
sg13
g1477
ssI14231
(dp4261
g12
I14231
sg13
g409
ssI14232
(dp4262
g12
I14232
sg13
g77
ssI14233
(dp4263
g12
I14233
sg13
g1463
ssI14234
(dp4264
g12
I14234
sg13
g1814
ssI14235
(dp4265
g12
I14235
sg13
g1597
ssI14236
(dp4266
g12
I14236
sg13
g527
ssI14237
(dp4267
g12
I14237
sg13
g955
ssI14238
(dp4268
g12
I14238
sg13
g1479
ssI14239
(dp4269
g12
I14239
sg13
g1807
ssI14240
(dp4270
g12
I14240
sg13
g143
ssI14241
(dp4271
g12
I14241
sg13
g1747
ssI14242
(dp4272
g12
I14242
sg13
g1809
ssI14243
(dp4273
g12
I14243
sg13
g1556
ssI14244
(dp4274
g12
I14244
sg13
g1816
ssI14245
(dp4275
g12
I14245
sg13
g489
ssI14246
(dp4276
g12
I14246
sg13
g1465
ssI14247
(dp4277
g12
I14247
sg13
g582
ssI14248
(dp4278
g1
(lp4279
(dp4280
g12
I13676
sg13
g14
sa(dp4281
g12
I13966
sg13
g16
sa(dp4282
g12
I13990
sg13
g18
sa(dp4283
g12
I14011
sg13
g20
sa(dp4284
g12
I14047
sg13
g22
sa(dp4285
g12
I14100
sg13
g24
sa(dp4286
g12
I14169
sg13
g26
sasg12
I14248
sg13
g27
ssI14249
(dp4287
g1
(lp4288
(dp4289
g12
I13677
sg13
g308
sa(dp4290
g12
I13693
sg13
g310
sa(dp4291
g12
I13760
sg13
g312
sasg12
I14249
sg13
g313
ssI14250
(dp4292
g1
(lp4293
(dp4294
g12
I13678
sg13
g503
sa(dp4295
g12
I14022
sg13
g505
sa(dp4296
g12
I14023
sg13
g507
sa(dp4297
g12
I14156
sg13
g509
sa(dp4298
g12
I14171
sg13
g511
sa(dp4299
g12
I14202
sg13
g513
sasg12
I14250
sg13
g514
ssI14251
(dp4300
g1
(lp4301
(dp4302
g12
I13679
sg13
g898
sa(dp4303
g12
I13707
sg13
g900
sa(dp4304
g12
I13715
sg13
g902
sa(dp4305
g12
I13939
sg13
g904
sa(dp4306
g12
I14042
sg13
g906
sasg12
I14251
sg13
g907
ssI14252
(dp4307
g1
(lp4308
(dp4309
g12
I13680
sg13
g523
sa(dp4310
g12
I13944
sg13
g525
sa(dp4311
g12
I14236
sg13
g527
sasg12
I14252
sg13
g528
ssI14253
(dp4312
g1
(lp4313
(dp4314
g12
I13681
sg13
g419
sa(dp4315
g12
I13818
sg13
g421
sasg12
I14253
sg13
g422
ssI14254
(dp4316
g1
(lp4317
(dp4318
g12
I13682
sg13
g994
sa(dp4319
g12
I14069
sg13
g996
sa(dp4320
g12
I14073
sg13
g998
sasg12
I14254
sg13
g999
ssI14255
(dp4321
g1
(lp4322
(dp4323
g12
I13683
sg13
g426
sa(dp4324
g12
I13748
sg13
g428
sa(dp4325
g12
I14017
sg13
g430
sasg12
I14255
sg13
g431
ssI14256
(dp4326
g1
(lp4327
(dp4328
g12
I13684
sg13
g1209
sa(dp4329
g12
I14187
sg13
g1211
sa(dp4330
g12
I14205
sg13
g1213
sasg12
I14256
sg13
g1214
ssI14257
(dp4331
g1
(lp4332
(dp4333
g12
I13685
sg13
g1084
sa(dp4334
g12
I13918
sg13
g1086
sa(dp4335
g12
I13925
sg13
g1088
sasg12
I14257
sg13
g1089
ssI14258
(dp4336
g1
(lp4337
(dp4338
g12
I13686
sg13
g100
sa(dp4339
g12
I13788
sg13
g102
sa(dp4340
g12
I13874
sg13
g104
sa(dp4341
g12
I14044
sg13
g106
sa(dp4342
g12
I14053
sg13
g108
sasg12
I14258
sg13
g109
ssI14259
(dp4343
g1
(lp4344
(dp4345
g12
I13687
sg13
g1429
sa(dp4346
g12
I13721
sg13
g1431
sa(dp4347
g12
I14107
sg13
g1433
sasg12
I14259
sg13
g1434
ssI14260
(dp4348
g1
(lp4349
(dp4350
g12
I13688
sg13
g1510
sa(dp4351
g12
I13719
sg13
g1512
sa(dp4352
g12
I13878
sg13
g1514
sa(dp4353
g12
I14004
sg13
g1516
sa(dp4354
g12
I14185
sg13
g1518
sasg12
I14260
sg13
g1519
ssI14261
(dp4355
g1
(lp4356
(dp4357
g12
I13689
sg13
g1098
sa(dp4358
g12
I13965
sg13
g1100
sa(dp4359
g12
I14038
sg13
g1102
sa(dp4360
g12
I14070
sg13
g1104
sa(dp4361
g12
I14138
sg13
g1106
sasg12
I14261
sg13
g1107
ssI14262
(dp4362
g1
(lp4363
(dp4364
g12
I13690
sg13
g648
sa(dp4365
g12
I13745
sg13
g650
sa(dp4366
g12
I13782
sg13
g652
sa(dp4367
g12
I13884
sg13
g654
sa(dp4368
g12
I14015
sg13
g656
sa(dp4369
g12
I14128
sg13
g658
sasg12
I14262
sg13
g659
ssI14263
(dp4370
g1
(lp4371
(dp4372
g12
I13691
sg13
g1629
sa(dp4373
g12
I14008
sg13
g1631
sa(dp4374
g12
I14167
sg13
g1633
sa(dp4375
g12
I14197
sg13
g1635
sasg12
I14263
sg13
g1636
ssI14264
(dp4376
g1
(lp4377
(dp4378
g12
I13692
sg13
g33
sa(dp4379
g12
I14051
sg13
g35
sasg12
I14264
sg13
g36
ssI14265
(dp4380
g1
(lp4381
(dp4382
g12
I13694
sg13
g1671
sa(dp4383
g12
I13962
sg13
g1673
sasg12
I14265
sg13
g1674
ssI14266
(dp4384
g1
(lp4385
(dp4386
g12
I13695
sg13
g115
sa(dp4387
g12
I13764
sg13
g117
sa(dp4388
g12
I13783
sg13
g119
sa(dp4389
g12
I14212
sg13
g121
sasg12
I14266
sg13
g122
ssI14268
(dp4390
g1
(lp4391
(dp4392
g12
I13697
sg13
g1523
sa(dp4393
g12
I13809
sg13
g1525
sa(dp4394
g12
I14219
sg13
g1527
sa(dp4395
g12
I14222
sg13
g1529
sasg12
I14268
sg13
g1530
ssI14269
(dp4396
g1
(lp4397
(dp4398
g12
I13698
sg13
g1017
sa(dp4399
g12
I13718
sg13
g1019
sa(dp4400
g12
I13725
sg13
g1021
sa(dp4401
g12
I13908
sg13
g1023
sasg12
I14269
sg13
g1024
ssI14270
(dp4402
g1
(lp4403
(dp4404
g12
I13699
sg13
g663
sa(dp4405
g12
I13789
sg13
g665
sasg12
I14270
sg13
g666
ssI14272
(dp4406
g1
(lp4407
(dp4408
g12
I13701
sg13
g1270
sa(dp4409
g12
I13709
sg13
g1272
sa(dp4410
g12
I13728
sg13
g1274
sa(dp4411
g12
I13787
sg13
g1276
sa(dp4412
g12
I13974
sg13
g1278
sa(dp4413
g12
I14028
sg13
g1280
sa(dp4414
g12
I14034
sg13
g1282
sa(dp4415
g12
I14062
sg13
g1284
sa(dp4416
g12
I14101
sg13
g1286
sasg12
I14272
sg13
g1287
ssI14273
(dp4417
g1
(lp4418
(dp4419
g12
I13702
sg13
g1680
sa(dp4420
g12
I13785
sg13
g1682
sasg12
I14273
sg13
g1683
ssI14274
(dp4421
g1
(lp4422
(dp4423
g12
I13703
sg13
g1291
sa(dp4424
g12
I13756
sg13
g1293
sa(dp4425
g12
I13781
sg13
g1295
sa(dp4426
g12
I14173
sg13
g1297
sasg12
I14274
sg13
g1298
ssI14275
(dp4427
g1
(lp4428
(dp4429
g12
I13704
sg13
g693
sa(dp4430
g12
I13798
sg13
g695
sa(dp4431
g12
I14067
sg13
g697
sa(dp4432
g12
I14096
sg13
g699
sa(dp4433
g12
I14133
sg13
g701
sa(dp4434
g12
I14174
sg13
g703
sasg12
I14275
sg13
g704
ssI14276
(dp4435
g1
(lp4436
(dp4437
g12
I13705
sg13
g963
sa(dp4438
g12
I13730
sg13
g965
sasg12
I14276
sg13
g966
ssI14277
(dp4439
g1
(lp4440
(dp4441
g12
I13706
sg13
g1170
sa(dp4442
g12
I13763
sg13
g1172
sa(dp4443
g12
I13799
sg13
g1174
sa(dp4444
g12
I13907
sg13
g1176
sa(dp4445
g12
I14158
sg13
g1178
sasg12
I14277
sg13
g1179
ssI14278
(dp4446
g1
(lp4447
(dp4448
g12
I13708
sg13
g1121
sa(dp4449
g12
I13820
sg13
g1123
sa(dp4450
g12
I14085
sg13
g1125
sa(dp4451
g12
I14112
sg13
g1127
sa(dp4452
g12
I14210
sg13
g1129
sasg12
I14278
sg13
g1130
ssI14279
(dp4453
g1
(lp4454
(dp4455
g12
I13710
sg13
g152
sa(dp4456
g12
I13739
sg13
g154
sa(dp4457
g12
I13863
sg13
g156
sa(dp4458
g12
I13899
sg13
g158
sa(dp4459
g12
I14148
sg13
g160
sasg12
I14279
sg13
g161
ssI14280
(dp4460
g1
(lp4461
(dp4462
g12
I13711
sg13
g532
sa(dp4463
g12
I13806
sg13
g534
sa(dp4464
g12
I13858
sg13
g536
sa(dp4465
g12
I13971
sg13
g538
sa(dp4466
g12
I14159
sg13
g540
sasg12
I14280
sg13
g541
ssI14281
(dp4467
g1
(lp4468
(dp4469
g12
I13713
sg13
g1183
sa(dp4470
g12
I13752
sg13
g1185
sa(dp4471
g12
I13795
sg13
g1187
sa(dp4472
g12
I13919
sg13
g1189
sa(dp4473
g12
I13975
sg13
g1191
sa(dp4474
g12
I14092
sg13
g1193
sasg12
I14281
sg13
g1194
ssI14282
(dp4475
g1
(lp4476
(dp4477
g12
I13714
sg13
g1539
sa(dp4478
g12
I14005
sg13
g1541
sa(dp4479
g12
I14075
sg13
g1543
sasg12
I14282
sg13
g1544
ssI14283
(dp4480
g1
(lp4481
(dp4482
g12
I13716
sg13
g352
sa(dp4483
g12
I13856
sg13
g354
sasg12
I14283
sg13
g355
ssI14284
(dp4484
g1
(lp4485
(dp4486
g12
I13717
sg13
g195
sa(dp4487
g12
I13736
sg13
g197
sasg12
I14284
sg13
g198
ssI14285
(dp4488
g1
(lp4489
(dp4490
g12
I13720
sg13
g1042
sa(dp4491
g12
I13779
sg13
g1044
sasg12
I14285
sg13
g1045
ssI14286
(dp4492
g1
(lp4493
(dp4494
g12
I13722
sg13
g708
sa(dp4495
g12
I13723
sg13
g710
sa(dp4496
g12
I13952
sg13
g712
sasg12
I14286
sg13
g713
ssI14287
(dp4497
g1
(lp4498
(dp4499
g12
I13724
sg13
g1716
sa(dp4500
g12
I14084
sg13
g1718
sasg12
I14287
sg13
g1719
ssI14289
(dp4501
g1
(lp4502
(dp4503
g12
I13727
sg13
g1316
sa(dp4504
g12
I13985
sg13
g1318
sasg12
I14289
sg13
g1319
ssI14290
(dp4505
g1
(lp4506
(dp4507
g12
I13729
sg13
g1453
sa(dp4508
g12
I14091
sg13
g1455
sasg12
I14290
sg13
g1456
ssI14293
(dp4509
g1
(lp4510
(dp4511
g12
I13733
sg13
g572
sa(dp4512
g12
I13993
sg13
g574
sa(dp4513
g12
I13995
sg13
g576
sa(dp4514
g12
I14009
sg13
g578
sa(dp4515
g12
I14145
sg13
g580
sa(dp4516
g12
I14247
sg13
g582
sasg12
I14293
sg13
g583
ssI14294
(dp4517
g1
(lp4518
(dp4519
g12
I13734
sg13
g1028
sa(dp4520
g12
I13786
sg13
g1030
sa(dp4521
g12
I14057
sg13
g1032
sa(dp4522
g12
I14175
sg13
g1034
sasg12
I14294
sg13
g1035
ssI14295
(dp4523
g1
(lp4524
(dp4525
g12
I13735
sg13
g165
sa(dp4526
g12
I13837
sg13
g167
sa(dp4527
g12
I13969
sg13
g169
sa(dp4528
g12
I14013
sg13
g171
sasg12
I14295
sg13
g172
ssI14296
(dp4529
g1
(lp4530
(dp4531
g12
I13737
sg13
g1567
sa(dp4532
g12
I13945
sg13
g1569
sasg12
I14296
sg13
g1570
ssI14297
(dp4533
g1
(lp4534
(dp4535
g12
I13738
sg13
g445
sa(dp4536
g12
I13810
sg13
g447
sa(dp4537
g12
I13831
sg13
g449
sasg12
I14297
sg13
g450
ssI14300
(dp4538
g1
(lp4539
(dp4540
g12
I13742
sg13
g202
sa(dp4541
g12
I13881
sg13
g204
sasg12
I14300
sg13
g205
ssI14301
(dp4542
g1
(lp4543
(dp4544
g12
I13743
sg13
g40
sa(dp4545
g12
I14052
sg13
g42
sa(dp4546
g12
I14113
sg13
g44
sasg12
I14301
sg13
g45
ssI14302
(dp4547
g1
(lp4548
(dp4549
g12
I13744
sg13
g911
sa(dp4550
g12
I13862
sg13
g913
sa(dp4551
g12
I13906
sg13
g915
sa(dp4552
g12
I13921
sg13
g917
sa(dp4553
g12
I14003
sg13
g919
sa(dp4554
g12
I14224
sg13
g921
sasg12
I14302
sg13
g922
ssI14303
(dp4555
g1
(lp4556
(dp4557
g12
I13746
sg13
g717
sa(dp4558
g12
I13772
sg13
g719
sa(dp4559
g12
I14118
sg13
g721
sa(dp4560
g12
I14142
sg13
g723
sasg12
I14303
sg13
g724
ssI14304
(dp4561
g1
(lp4562
(dp4563
g12
I13747
sg13
g52
sa(dp4564
g12
I13887
sg13
g54
sa(dp4565
g12
I13934
sg13
g56
sa(dp4566
g12
I13984
sg13
g58
sasg12
I14304
sg13
g59
ssI14305
(dp4567
g1
(lp4568
(dp4569
g12
I13749
sg13
g1355
sa(dp4570
g12
I13828
sg13
g1357
sa(dp4571
g12
I13956
sg13
g1359
sa(dp4572
g12
I14031
sg13
g1361
sasg12
I14305
sg13
g1362
ssI14306
(dp4573
g1
(lp4574
(dp4575
g12
I13750
sg13
g1366
sa(dp4576
g12
I13924
sg13
g1368
sa(dp4577
g12
I13977
sg13
g1370
sa(dp4578
g12
I14186
sg13
g1372
sa(dp4579
g12
I14218
sg13
g1374
sasg12
I14306
sg13
g1375
ssI14307
(dp4580
g1
(lp4581
(dp4582
g12
I13751
sg13
g1595
sa(dp4583
g12
I14235
sg13
g1597
sasg12
I14307
sg13
g1598
ssI14308
(dp4584
g1
(lp4585
(dp4586
g12
I13753
sg13
g435
sa(dp4587
g12
I13853
sg13
g437
sasg12
I14308
sg13
g438
ssI14309
(dp4588
g1
(lp4589
(dp4590
g12
I13754
sg13
g779
sa(dp4591
g12
I13761
sg13
g781
sa(dp4592
g12
I13868
sg13
g783
sa(dp4593
g12
I13936
sg13
g785
sa(dp4594
g12
I13951
sg13
g787
sa(dp4595
g12
I13961
sg13
g789
sa(dp4596
g12
I14002
sg13
g791
sa(dp4597
g12
I14007
sg13
g793
sa(dp4598
g12
I14170
sg13
g795
sa(dp4599
g12
I14177
sg13
g797
sa(dp4600
g12
I14225
sg13
g799
sasg12
I14309
sg13
g800
ssI14310
(dp4601
g1
(lp4602
(dp4603
g12
I13712
sg13
g728
sa(dp4604
g12
I13755
sg13
g730
sa(dp4605
g12
I13793
sg13
g732
sa(dp4606
g12
I13805
sg13
g734
sa(dp4607
g12
I13895
sg13
g736
sa(dp4608
g12
I14033
sg13
g738
sa(dp4609
g12
I14163
sg13
g740
sa(dp4610
g12
I14165
sg13
g742
sasg12
I14310
sg13
g743
ssI14311
(dp4611
g1
(lp4612
(dp4613
g12
I13757
sg13
g970
sa(dp4614
g12
I13791
sg13
g972
sa(dp4615
g12
I13813
sg13
g974
sa(dp4616
g12
I13846
sg13
g976
sasg12
I14311
sg13
g977
ssI14312
(dp4617
g1
(lp4618
(dp4619
g12
I13758
sg13
g228
sa(dp4620
g12
I13848
sg13
g230
sasg12
I14312
sg13
g231
ssI14313
(dp4621
g1
(lp4622
(dp4623
g12
I13759
sg13
g804
sa(dp4624
g12
I13803
sg13
g806
sa(dp4625
g12
I14207
sg13
g808
sasg12
I14313
sg13
g809
ssI14314
(dp4626
g1
(lp4627
(dp4628
g12
I13762
sg13
g261
sa(dp4629
g12
I14083
sg13
g263
sasg12
I14314
sg13
g264
ssI14315
(dp4630
g1
(lp4631
(dp4632
g12
I13765
sg13
g747
sa(dp4633
g12
I13766
sg13
g749
sa(dp4634
g12
I13832
sg13
g751
sa(dp4635
g12
I13888
sg13
g753
sa(dp4636
g12
I14036
sg13
g755
sa(dp4637
g12
I14065
sg13
g757
sa(dp4638
g12
I14071
sg13
g759
sasg12
I14315
sg13
g760
ssI14316
(dp4639
g1
(lp4640
(dp4641
g12
I13767
sg13
g235
sa(dp4642
g12
I13769
sg13
g237
sa(dp4643
g12
I13812
sg13
g239
sasg12
I14316
sg13
g240
ssI14317
(dp4644
g1
(lp4645
(dp4646
g12
I13768
sg13
g1049
sa(dp4647
g12
I13903
sg13
g1051
sasg12
I14317
sg13
g1052
ssI14318
(dp4648
g1
(lp4649
(dp4650
g12
I13770
sg13
g454
sa(dp4651
g12
I13980
sg13
g456
sa(dp4652
g12
I14105
sg13
g458
sasg12
I14318
sg13
g459
ssI14319
(dp4653
g1
(lp4654
(dp4655
g12
I13771
sg13
g1323
sa(dp4656
g12
I14089
sg13
g1325
sa(dp4657
g12
I14104
sg13
g1327
sa(dp4658
g12
I14119
sg13
g1329
sa(dp4659
g12
I14180
sg13
g1331
sasg12
I14319
sg13
g1332
ssI14320
(dp4660
g1
(lp4661
(dp4662
g12
I13773
sg13
g1230
sa(dp4663
g12
I13851
sg13
g1232
sa(dp4664
g12
I13872
sg13
g1234
sasg12
I14320
sg13
g1235
ssI14321
(dp4665
g1
(lp4666
(dp4667
g12
I13774
sg13
g764
sa(dp4668
g12
I13949
sg13
g766
sa(dp4669
g12
I14041
sg13
g768
sasg12
I14321
sg13
g769
ssI14322
(dp4670
g1
(lp4671
(dp4672
g12
I13775
sg13
g1244
sa(dp4673
g12
I14216
sg13
g1246
sasg12
I14322
sg13
g1247
ssI14323
(dp4674
g1
(lp4675
(dp4676
g12
I13776
sg13
g244
sa(dp4677
g12
I14102
sg13
g246
sasg12
I14323
sg13
g247
ssI14325
(dp4678
g1
(lp4679
(dp4680
g12
I13778
sg13
g608
sa(dp4681
g12
I13946
sg13
g610
sa(dp4682
g12
I13987
sg13
g612
sa(dp4683
g12
I14006
sg13
g614
sa(dp4684
g12
I14035
sg13
g616
sa(dp4685
g12
I14108
sg13
g618
sa(dp4686
g12
I14122
sg13
g620
sa(dp4687
g12
I14190
sg13
g622
sasg12
I14325
sg13
g623
ssI14326
(dp4688
g1
(lp4689
(dp4690
g12
I13780
sg13
g926
sa(dp4691
g12
I13950
sg13
g928
sa(dp4692
g12
I14078
sg13
g930
sa(dp4693
g12
I14080
sg13
g932
sa(dp4694
g12
I14115
sg13
g934
sa(dp4695
g12
I14213
sg13
g936
sasg12
I14326
sg13
g937
ssI14330
(dp4696
g1
(lp4697
(dp4698
g12
I13794
sg13
g317
sa(dp4699
g12
I13898
sg13
g319
sa(dp4700
g12
I13938
sg13
g321
sa(dp4701
g12
I14130
sg13
g323
sa(dp4702
g12
I14154
sg13
g325
sa(dp4703
g12
I14166
sg13
g327
sasg12
I14330
sg13
g328
ssI14332
(dp4704
g1
(lp4705
(dp4706
g12
I13797
sg13
g1687
sa(dp4707
g12
I14019
sg13
g1689
sa(dp4708
g12
I14206
sg13
g1691
sasg12
I14332
sg13
g1692
ssI14333
(dp4709
g1
(lp4710
(dp4711
g12
I13800
sg13
g209
sa(dp4712
g12
I13801
sg13
g211
sasg12
I14333
sg13
g212
ssI14334
(dp4713
g1
(lp4714
(dp4715
g12
I13802
sg13
g1652
sa(dp4716
g12
I13941
sg13
g1654
sa(dp4717
g12
I14000
sg13
g1656
sa(dp4718
g12
I14192
sg13
g1658
sa(dp4719
g12
I14200
sg13
g1660
sasg12
I14334
sg13
g1661
ssI14335
(dp4720
g1
(lp4721
(dp4722
g12
I13804
sg13
g941
sa(dp4723
g12
I13892
sg13
g943
sa(dp4724
g12
I13948
sg13
g945
sa(dp4725
g12
I14121
sg13
g947
sa(dp4726
g12
I14135
sg13
g949
sa(dp4727
g12
I14146
sg13
g951
sa(dp4728
g12
I14229
sg13
g953
sa(dp4729
g12
I14237
sg13
g955
sasg12
I14335
sg13
g956
sstp4730
.